_Z10cl_isalnumm
_Z10cl_isdigitm
_Z10cl_isspacem
_Z10cl_tolowerw
_Z10cl_toupperw
_Z10luaD_pcallP9lua_StatePFvS0_PvES1_ll.constprop.0
_Z10luaD_pcallP9lua_StatePFvS0_PvES1_ll.constprop.0.cold
_Z10luaD_throwP9lua_Statei
_Z10luaD_throwP9lua_Statei.cold
_Z10luaF_closeP9lua_StateP10StackValueii
_Z10luaL_errorP9lua_StatePKcz
_Z10luaL_unrefP9lua_Stateii
_Z10luaL_whereP9lua_Statei
_Z10luaT_gettmP5Table3TMSP7TString
_Z10lua_concatP9lua_Statei
_Z10lua_gettopP9lua_State
_Z10lua_pcallkP9lua_StateiiilPFiS0_ilE
_Z10lua_rawgetP9lua_Statei
_Z10lua_rawlenP9lua_Statei
_Z10lua_rawsetP9lua_Statei
_Z10lua_resumeP9lua_StateS0_iPi
_Z10lua_resumeP9lua_StateS0_iPi.cold
_Z10lua_rotateP9lua_Stateii
_Z10lua_settopP9lua_Statei
_Z10lua_statusP9lua_State
_Z10lua_yieldkP9lua_StateilPFiS0_ilE
_Z10luaopen_ioP9lua_State
_Z10luaopen_osP9lua_State
_Z11ExpandXPathPKcS0_PSt6vectorI13XPathStepInfoSaIS2_EE
_Z11ExpandXPathPKcS0_PSt6vectorI13XPathStepInfoSaIS2_EE.cold
_Z11_exvGettextPKc
_Z11_exvGettextPKc.cold
_Z11cl_isletterm
_Z11langdef_lexv
_Z11langdef_lexv.cold
_Z11luaC_fullgcP9lua_Statei
_Z11luaD_inctopP9lua_State
_Z11luaH_getintP5Tablex
_Z11luaH_getstrP5TableP7TString
_Z11luaH_newkeyP9lua_StateP5TablePK6TValuePS3_
_Z11luaH_resizeP9lua_StateP5Tablejj
_Z11luaK_concatP9FuncStatePii
_Z11luaK_exp2RKP9FuncStateP7expdesc
_Z11luaS_resizeP9lua_Statei
_Z11luaV_concatP9lua_Statei.part.0
_Z11luaV_objlenP9lua_StateP10StackValuePK6TValue
_Z11luaY_parserP9lua_StateP3ZioP7MbufferP7DyndataPKci
_Z11lua_atpanicP9lua_StatePFiS0_E
_Z11lua_compareP9lua_Stateiii
_Z11lua_gethookP9lua_State
_Z11lua_getinfoP9lua_StatePKcP9lua_Debug
_Z11lua_pushnilP9lua_State
_Z11lua_rawgetiP9lua_Stateix
_Z11lua_rawgetpP9lua_StateiPKv
_Z11lua_rawsetiP9lua_Stateix
_Z11lua_rawsetpP9lua_StateiPKv
_Z11lua_sethookP9lua_StatePFvS0_P9lua_DebugEii
_Z11lua_tocloseP9lua_Statei
_Z11lua_versionP9lua_State
_Z11lua_warningP9lua_StatePKci
_Z11stylesc_lexv
_Z11stylesc_lexv.cold
_Z12CloneSubtreePK8XMP_NodePS_b.constprop.0.isra.0
_Z12CloneSubtreePK8XMP_NodePS_b.constprop.0.isra.0.cold
_Z12MD5TransformPjPKj
_Z12check_returnRK14client_optionsR12memcached_stPKc18memcached_return_t
_Z12check_returnRK14client_optionsR12memcached_stPKc18memcached_return_t.cold
_Z12cl_tcasefoldw
_Z12getBestLevelPKhmi
_Z12jack_tls_getj
_Z12jack_tls_setjPv
_Z12langdef_freePv
_Z12luaD_poscallP9lua_StateP8CallInfoi
_Z12luaD_precallP9lua_StateP10StackValuei
_Z12luaG_addinfoP9lua_StatePKcP7TStringi
_Z12luaK_fixlineP9FuncStatei
_Z12luaK_indexedP9FuncStateP7expdescS2_
_Z12luaK_setlistP9FuncStateiii
_Z12luaL_addgsubP11luaL_BufferPKcS2_S2_
_Z12luaM_malloc_P9lua_Statemi
_Z12luaO_chunkidPcPKcm
_Z12luaO_str2numPKcP6TValue
_Z12luaO_utf8escPcm
_Z12luaS_newlstrP9lua_StatePKcm
_Z12luaV_executeP9lua_StateP8CallInfo
_Z12lua_absindexP9lua_Statei
_Z12lua_getfieldP9lua_StateiPKc
_Z12lua_getlocalP9lua_StatePK9lua_Debugi
_Z12lua_getstackP9lua_StateiP9lua_Debug
_Z12lua_gettableP9lua_Statei
_Z12lua_isnumberP9lua_Statei
_Z12lua_isstringP9lua_Statei
_Z12lua_newstatePFPvS_S_mmES_
_Z12lua_newstatePFPvS_S_mmES_.cold
_Z12lua_rawequalP9lua_Stateii
_Z12lua_setfieldP9lua_StateiPKc
_Z12lua_setlocalP9lua_StatePK9lua_Debugi
_Z12lua_settableP9lua_Statei
_Z12lua_setwarnfP9lua_StatePFvPvPKciES1_
_Z12lua_tothreadP9lua_Statei
_Z12lua_typenameP9lua_Statei
_Z12luaopen_baseP9lua_State
_Z12luaopen_mathP9lua_State
_Z12luaopen_utf8P9lua_State
_Z12stylesc_freePv
_Z13ADD32_BIT_FLTRKjS0_
_Z13ADD64_BIT_DBLRKmS0_
_Z13DeleteSubtreeN9__gnu_cxx17__normal_iteratorIPP8XMP_NodeSt6vectorIS2_SaIS2_EEEE
_Z13FindChildNodeP8XMP_NodePKcbPN9__gnu_cxx17__normal_iteratorIPS0_St6vectorIS0_SaIS0_EEEE
_Z13FindChildNodeP8XMP_NodePKcbPN9__gnu_cxx17__normal_iteratorIPS0_St6vectorIS0_SaIS0_EEEE.cold
_Z13SUB32_BIT_FLTRKjS0_
_Z13SUB64_BIT_DBLRKmS0_
_Z13_Cnd_OutDebugPKcS0_S0_iiS0_i
_Z13convertNumbertd
_Z13getBestLevel2PKhmi
_Z13getBestLevel2PKhmi.cold
_Z13getUnitStringt
_Z13instance_freeP21memcached_instance_st
_Z13langdef_allocm
_Z13langdef_parsev
_Z13langdef_parsev.cold
_Z13luaC_barrier_P9lua_StateP8GCObjectS2_
_Z13luaD_hookcallP9lua_StateP8CallInfo
_Z13luaF_newprotoP9lua_State
_Z13luaG_errormsgP9lua_State
_Z13luaG_forerrorP9lua_StatePK6TValuePKc
_Z13luaG_runerrorP9lua_StatePKcz
_Z13luaK_codeABCkP9FuncState6OpCodeiiii
_Z13luaK_goiftrueP9FuncStateP7expdesc
_Z13luaK_storevarP9FuncStateP7expdescS2_
_Z13luaL_addvalueP11luaL_Buffer
_Z13luaL_argerrorP9lua_StateiPKc
_Z13luaL_buffinitP9lua_StateP11luaL_Buffer
_Z13luaL_callmetaP9lua_StateiPKc
_Z13luaL_checkanyP9lua_Statei
_Z13luaL_newstatev
_Z13luaL_openlibsP9lua_State
_Z13luaL_requirefP9lua_StatePKcPFiS0_Ei
_Z13luaL_setfuncsP9lua_StatePK8luaL_Regi
_Z13luaM_growaux_P9lua_StatePviPiiiPKc
_Z13luaM_realloc_P9lua_StatePvmm
_Z13luaO_ceillog2j
_Z13luaO_rawarithP9lua_StateiPK6TValueS3_PS1_
_Z13luaT_trybinTMP9lua_StatePK6TValueS3_P10StackValue3TMS
_Z13luaV_equalobjP9lua_StatePK6TValueS3_
_Z13lua_closeslotP9lua_Statei
_Z13lua_getallocfP9lua_StatePPv
_Z13lua_getglobalP9lua_StatePKc
_Z13lua_isintegerP9lua_Statei
_Z13lua_newthreadP9lua_State
_Z13lua_pushvalueP9lua_Statei
_Z13lua_setallocfP9lua_StatePFPvS1_S1_mmES1_
_Z13lua_setglobalP9lua_StatePKc
_Z13lua_tobooleanP9lua_Statei
_Z13lua_tolstringP9lua_StateiPm
_Z13lua_tonumberxP9lua_StateiPi
_Z13lua_topointerP9lua_Statei
_Z13lua_upvalueidP9lua_Stateii
_Z13luaopen_debugP9lua_State
_Z13luaopen_tableP9lua_State
_Z13lucene_i64totlPwi
_Z13lucene_tcslwrPw
_Z13lucene_tcstodPKwPPw
_Z13lucene_wcsdupPKw
_Z13memcached_vdoP21memcached_instance_stP25libmemcached_io_vector_stmb
_Z13stylesc_allocm
_Z14CloneOffspringPK8XMP_NodePS_b
_Z14CloneOffspringPK8XMP_NodePS_b.cold
_Z14FillPacketInfoRKNSt7__cxx1112basic_stringIcSt11char_traitsIcESaIcEEEP14XMP_PacketInfo
_Z14FindSchemaNodeP8XMP_NodePKcbPN9__gnu_cxx17__normal_iteratorIPS0_St6vectorIS0_SaIS0_EEEE
_Z14FindSchemaNodeP8XMP_NodePKcbPN9__gnu_cxx17__normal_iteratorIPS0_St6vectorIS0_SaIS0_EEEE.cold
_Z14FindSchemaNodeP8XMP_NodePKcbPN9__gnu_cxx17__normal_iteratorIPS0_St6vectorIS0_SaIS0_EEEEPFbPvS2_PS2_PjESB_.constprop.0
_Z14FindSchemaNodeP8XMP_NodePKcbPN9__gnu_cxx17__normal_iteratorIPS0_St6vectorIS0_SaIS0_EEEEPFbPvS2_PS2_PjESB_.constprop.0.cold
_Z14LookupLangItemPK8XMP_NodeRNSt7__cxx1112basic_stringIcSt11char_traitsIcESaIcEEE
_Z14LookupLangItemPK8XMP_NodeRNSt7__cxx1112basic_stringIcSt11char_traitsIcESaIcEEE.cold
_Z14P2_CheckFormatjRKNSt7__cxx1112basic_stringIcSt11char_traitsIcESaIcEEES6_S6_S6_P8XMPFiles
_Z14P2_CheckFormatjRKNSt7__cxx1112basic_stringIcSt11char_traitsIcESaIcEEES6_S6_S6_P8XMPFiles.cold
_Z14cl_tcscasefoldPwi
_Z14decodePackBitsPKhmmPPh
_Z14encodePackBitsPKhmPPh
_Z14langdef_get_inv
_Z14langdef_set_inP8_IO_FILE
_Z14luaD_growstackP9lua_Stateii
_Z14luaD_tryfuncTMP9lua_StateP10StackValue
_Z14luaE_incCstackP9lua_State
_Z14luaG_findlocalP9lua_StateP8CallInfoiPP10StackValue
_Z14luaG_traceexecP9lua_StatePKj
_Z14luaG_typeerrorP9lua_StatePK6TValuePKc
_Z14luaH_finishsetP9lua_StateP5TablePK6TValueS5_PS3_
_Z14luaH_realasizePK5Table
_Z14luaK_goiffalseP9FuncStateP7expdesc
_Z14luaK_patchlistP9FuncStateii
_Z14luaK_setoneretP9FuncStateP7expdesc
_Z14luaL_addstringP11luaL_BufferPKc
_Z14luaL_checktypeP9lua_Stateii
_Z14luaL_loadfilexP9lua_StatePKcS2_
_Z14luaL_optnumberP9lua_Stateid
_Z14luaL_testudataP9lua_StateiPKc
_Z14luaL_tolstringP9lua_StateiPm
_Z14luaL_tracebackP9lua_StateS0_PKci
_Z14luaL_typeerrorP9lua_StateiPKc
_Z14luaO_hexavaluei
_Z14luaT_callTMresP9lua_StatePK6TValueS3_S3_P10StackValue.isra.0
_Z14luaV_finishgetP9lua_StatePK6TValuePS1_P10StackValueS3_
_Z14luaV_finishsetP9lua_StatePK6TValuePS1_S4_S3_
_Z14luaV_tonumber_PK6TValuePd
_Z14luaX_newstringP8LexStatePKcm
_Z14luaX_token2strP8LexStatei
_Z14luaY_nvarstackP9FuncState
_Z14lua_checkstackP9lua_Statei
_Z14lua_getupvalueP9lua_Stateii
_Z14lua_isuserdataP9lua_Statei
_Z14lua_pushnumberP9lua_Stated
_Z14lua_pushstringP9lua_StatePKc
_Z14lua_pushthreadP9lua_State
_Z14lua_setupvalueP9lua_Stateii
_Z14lua_tointegerxP9lua_StateiPi
_Z14lua_touserdataP9lua_Statei
_Z14luaopen_stringP9lua_State
_Z14lucene_wprintfPKwz
_Z14moveBits2Frontj
_Z14outlangdef_lexv
_Z14outlangdef_lexv.cold
_Z14stylecsssc_lexv
_Z14stylecsssc_lexv.cold
_Z14stylesc_get_inv
_Z14stylesc_set_inP8_IO_FILE
_Z15ASF_CheckFormatjPKcP6XMP_IOP8XMPFiles
_Z15DumpClearStringRKNSt7__cxx1112basic_stringIcSt11char_traitsIcESaIcEEEPFiPvPKcjES7_.isra.0
_Z15DumpNodeOptionsjPFiPvPKcjES_
_Z15ExportPhotoDatajP8TXMPMetaINSt7__cxx1112basic_stringIcSt11char_traitsIcESaIcEEEEP12TIFF_ManagerP12IPTC_ManagerP12PSIR_Managerj.constprop.0
_Z15ExportPhotoDatajP8TXMPMetaINSt7__cxx1112basic_stringIcSt11char_traitsIcESaIcEEEEP12TIFF_ManagerP12IPTC_ManagerP12PSIR_Managerj.constprop.0.cold
_Z15FLV_CheckFormatjPKcP6XMP_IOP8XMPFiles
_Z15GIF_CheckFormatjPKcP6XMP_IOP8XMPFiles
_Z15ImportPhotoDataRK12TIFF_ManagerRK12IPTC_ManagerRK12PSIR_ManageriP8TXMPMetaINSt7__cxx1112basic_stringIcSt11char_traitsIcESaIcEEEEj
_Z15ImportPhotoDataRK12TIFF_ManagerRK12IPTC_ManagerRK12PSIR_ManageriP8TXMPMetaINSt7__cxx1112basic_stringIcSt11char_traitsIcESaIcEEEEj.cold
_Z15MP3_CheckFormatjPKcP6XMP_IOP8XMPFiles
_Z15MP3_CheckFormatjPKcP6XMP_IOP8XMPFiles.cold
_Z15PNG_CheckFormatjPKcP6XMP_IOP8XMPFiles
_Z15PSD_CheckFormatjPKcP6XMP_IOP8XMPFiles
_Z15SVG_CheckFormatjPKcP6XMP_IOP8XMPFiles
_Z15SVG_CheckFormatjPKcP6XMP_IOP8XMPFiles.cold
_Z15SWF_CheckFormatjPKcP6XMP_IOP8XMPFiles
_Z15UCF_CheckFormatjPKcP6XMP_IOP8XMPFiles
_Z15UCF_CheckFormatjPKcP6XMP_IOP8XMPFiles.cold
_Z15getPackBitsSizePKhmPl
_Z15langdef_get_outv
_Z15langdef_reallocPvm
_Z15langdef_restartP8_IO_FILE
_Z15langdef_set_outP8_IO_FILE
_Z15luaF_closeupvalP9lua_StateP10StackValue
_Z15luaG_opinterrorP9lua_StatePK6TValueS3_PKc
_Z15luaK_checkstackP9FuncStatei
_Z15luaK_exp2anyregP9FuncStateP7expdesc
_Z15luaK_setreturnsP9FuncStateP7expdesci.isra.0
_Z15luaL_addlstringP11luaL_BufferPKcm
_Z15luaL_checkstackP9lua_StateiPKc
_Z15luaL_checkudataP9lua_StateiPKc
_Z15luaL_execresultP9lua_Statei
_Z15luaL_fileresultP9lua_StateiPKc
_Z15luaL_loadstringP9lua_StatePKc
_Z15luaL_optintegerP9lua_Stateix
_Z15luaL_optlstringP9lua_StateiPKcPm
_Z15luaL_pushresultP11luaL_Buffer
_Z15luaT_gettmbyobjP9lua_StatePK6TValue3TMS.isra.0
_Z15lua_closethreadP9lua_StateS0_
_Z15lua_createtableP9lua_Stateii
_Z15lua_gethookmaskP9lua_State
_Z15lua_iscfunctionP9lua_Statei
_Z15lua_isyieldableP9lua_State
_Z15lua_pushbooleanP9lua_Statei
_Z15lua_pushfstringP9lua_StatePKcz
_Z15lua_pushintegerP9lua_Statex
_Z15lua_pushlstringP9lua_StatePKcm
_Z15lua_resetthreadP9lua_State
_Z15lua_tocfunctionP9lua_Statei
_Z15lua_upvaluejoinP9lua_Stateiiii
_Z15luaopen_packageP9lua_State
_Z15lucene_tcstoi64PKwPPwi
_Z15lucene_utf8towcRwPKc
_Z15lucene_wctoutf8Pcw
_Z15memcached_purgeP21memcached_instance_st
_Z15memcached_purgeP21memcached_instance_st.cold
_Z15outlangdef_freePv
_Z15parseStyleErrorRKNSt7__cxx1112basic_stringIcSt11char_traitsIcESaIcEEE
_Z15restoreSequencePhmib
_Z15stylecsssc_freePv
_Z15stylesc_get_outv
_Z15stylesc_reallocPvm
_Z15stylesc_restartP8_IO_FILE
_Z15stylesc_set_outP8_IO_FILE
_Z15updateTokenInfov
_Z16AIFF_CheckFormatjPKcP6XMP_IOP8XMPFiles
_Z16ConvertToMacLangRKNSt7__cxx1112basic_stringIcSt11char_traitsIcESaIcEEEtPS4_
_Z16JPEG_CheckFormatjPKcP6XMP_IOP8XMPFiles
_Z16RIFF_CheckFormatjPKcP6XMP_IOP8XMPFiles
_Z16TIFF_CheckFormatjPKcP6XMP_IOP8XMPFiles
_Z16VerifySetOptionsjPKc
_Z16VerifySetOptionsjPKc.cold
_Z16WAVE_CheckFormatjPKcP6XMP_IOP8XMPFiles
_Z16WEBP_CheckFormatjPKcP6XMP_IOP8XMPFiles
_Z16_lucene_shutdownv
_Z16_lucene_shutdownv.cold
_Z16initialize_queryP12memcached_stb
_Z16langdef_get_lengv
_Z16langdef_get_textv
_Z16luaD_pretailcallP9lua_StateP8CallInfoP10StackValueii
_Z16luaD_seterrorobjP9lua_StateiP10StackValue
_Z16luaD_shrinkstackP9lua_State
_Z16luaE_checkcstackP9lua_State.part.0
_Z16luaE_resetthreadP9lua_Statei
_Z16luaE_resetthreadP9lua_Statei.cold
_Z16luaF_newLclosureP9lua_Statei
_Z16luaF_newtbcupvalP9lua_StateP10StackValue.part.0
_Z16luaG_getfunclinePK5Protoi
_Z16luaK_exp2nextregP9FuncStateP7expdesc
_Z16luaK_patchtohereP9FuncStatei
_Z16luaK_reserveregsP9FuncStatei
_Z16luaL_checknumberP9lua_Statei
_Z16luaL_checkoptionP9lua_StateiPKcPKS2_
_Z16luaL_getsubtableP9lua_StateiPKc
_Z16luaL_loadbufferxP9lua_StatePKcmS2_S2_
_Z16luaO_pushfstringP9lua_StatePKcz
_Z16luaT_callorderTMP9lua_StatePK6TValueS3_3TMS
_Z16luaT_objtypenameP9lua_StatePK6TValue
_Z16luaV_tointegernsPK6TValuePx6F2Imod
_Z16luaX_syntaxerrorP8LexStatePKc
_Z16lua_gethookcountP9lua_State
_Z16lua_getmetatableP9lua_Statei
_Z16lua_pushcclosureP9lua_StatePFiS0_Ei
_Z16lua_pushvfstringP9lua_StatePKcP13__va_list_tag
_Z16lua_setmetatableP9lua_Statei
_Z16lucene_snwprintfPwmPKwz
_Z16lucene_snwprintfPwmPKwz.cold
_Z16lucene_utf8towcsPwPKcm
_Z16lucene_wcstoutf8PcPKwm
_Z16outlangdef_allocm
_Z16outlangdef_parsev
_Z16outlangdef_parsev.cold
_Z16restoreByteOrderRSt6vectorISt4pairIiPcESaIS2_EEmmN6LercNS13PredictorTypeENS6_8UnitTypeEPPh
_Z16stylecsssc_allocm
_Z16stylesc_get_lengv
_Z16stylesc_get_textv
_Z16try_start_serverP14jack_varargs_t11JackOptionsP10JackStatus
_Z17DeleteEmptySchemaP8XMP_Node.part.0
_Z17FindQualifierNodeP8XMP_NodePKcbPN9__gnu_cxx17__normal_iteratorIPS0_St6vectorIS0_SaIS0_EEEE
_Z17FindQualifierNodeP8XMP_NodePKcbPN9__gnu_cxx17__normal_iteratorIPS0_St6vectorIS0_SaIS0_EEEE.cold
_Z17MPEG2_CheckFormatjPKcP6XMP_IOP8XMPFiles
_Z17MPEG4_CheckFormatjPKcP6XMP_IOP8XMPFiles
_Z17MPEG4_CheckFormatjPKcP6XMP_IOP8XMPFiles.cold
_Z17SplitNameAndValueRKNSt7__cxx1112basic_stringIcSt11char_traitsIcESaIcEEEPS4_S7_.constprop.0.isra.0
_Z17__cnd_FormatDebugPKciiS0_i
_Z17cl_tcscasefoldcmpPKwS0_
_Z17jack_drivers_loadP7_JSList
_Z17jack_tls_free_keyj
_Z17langdef_get_debugv
_Z17langdef_set_debugi
_Z17luaC_barrierback_P9lua_StateP8GCObject
_Z17luaC_barrierback_P9lua_StateP8GCObject.cold
_Z17luaD_reallocstackP9lua_Stateii
_Z17luaK_exp2anyregupP9FuncStateP7expdesc
_Z17luaL_buffinitsizeP9lua_StateP11luaL_Bufferm
_Z17luaL_checkintegerP9lua_Statei
_Z17luaL_checklstringP9lua_StateiPm
_Z17luaL_getmetafieldP9lua_StateiPKc
_Z17luaL_newmetatableP9lua_StatePKc
_Z17luaL_prepbuffsizeP11luaL_Bufferm
_Z17luaL_setmetatableP9lua_StatePKc
_Z17luaM_saferealloc_P9lua_StatePvmm
_Z17luaO_pushvfstringP9lua_StatePKcP13__va_list_tag
_Z17luaV_flttointegerdPx6F2Imod
_Z17lua_getiuservalueP9lua_Stateii
_Z17lua_newuserdatauvP9lua_Statemi
_Z17lua_setiuservalueP9lua_Stateii
_Z17luaopen_coroutineP9lua_State
_Z17lucene_tcscasecmpPKwS0_
_Z17lucene_vfnwprintfPN6lucene4util12StringBufferEmPKwRA1_13__va_list_tag
_Z17lucene_vfnwprintfPN6lucene4util12StringBufferEmPKwRA1_13__va_list_tag.cold
_Z17lucene_vsnwprintfPwmPKwRA1_13__va_list_tag
_Z17lucene_vsnwprintfPwmPKwRA1_13__va_list_tag.cold
_Z17memcached_io_pollP21memcached_instance_stsi
_Z17memcached_io_readP21memcached_instance_stPvmRl
_Z17outlangdef_get_inv
_Z17outlangdef_set_inP8_IO_FILE
_Z17restoreCrossBytesRSt6vectorISt4pairIiPcESaIS2_EEmmmN6LercNS13PredictorTypeENS6_8UnitTypeEPPh
_Z17stylecsssc_get_inv
_Z17stylecsssc_set_inP8_IO_FILE
_Z17stylesc_get_debugv
_Z17stylesc_set_debugi
_Z18ConvertFromMacLangRKNSt7__cxx1112basic_stringIcSt11char_traitsIcESaIcEEEtPS4_
_Z18MurmurHash3_x86_32PKvijPv
_Z18NormalizeLangArrayP8XMP_Node
_Z18NormalizeLangArrayP8XMP_Node.cold
_Z18NormalizeLangValuePNSt7__cxx1112basic_stringIcSt11char_traitsIcESaIcEEE
_Z18NormalizeLangValuePNSt7__cxx1112basic_stringIcSt11char_traitsIcESaIcEEE.isra.0
_Z18P2_MetaHandlerCTorP8XMPFiles
_Z18P2_MetaHandlerCTorP8XMPFiles.cold
_Z18_libmemcached_freePK12memcached_stPvS2_
_Z18_open_file_to_scanRKNSt7__cxx1112basic_stringIcSt11char_traitsIcESaIcEEES6_
_Z18config_lex_destroyPv.isra.0
_Z18langdef_get_linenov
_Z18langdef_set_linenoi
_Z18luaK_dischargevarsP9FuncStateP7expdesc
_Z18luaL_checkversion_P9lua_Statedm
_Z18luaM_shrinkvector_P9lua_StatePvPiii
_Z18lua_setcstacklimitP9lua_Statej
_Z18lua_stringtonumberP9lua_StatePKc
_Z18lucene_utf8charlenh
_Z18memcached_key_testR12memcached_stPKPKcPKmm.part.0
_Z18memcached_responseP21memcached_instance_stP19memcached_result_st
_Z18memcached_responseP21memcached_instance_stPcmP19memcached_result_st
_Z18memcached_responseP21memcached_instance_stPcmP19memcached_result_st.part.0
_Z18outlangdef_get_outv
_Z18outlangdef_reallocPvm
_Z18outlangdef_restartP8_IO_FILE
_Z18outlangdef_set_outP8_IO_FILE
_Z18setDerivativeFloatPjmii
_Z18stylecsssc_get_outv
_Z18stylecsssc_reallocPvm
_Z18stylecsssc_restartP8_IO_FILE
_Z18stylecsssc_set_outP8_IO_FILE
_Z18stylesc_get_linenov
_Z18stylesc_set_linenoi
_Z19ASF_MetaHandlerCTorP8XMPFiles
_Z19ASF_MetaHandlerCTorP8XMPFiles.cold
_Z19ComputeHuffmanCodesPKhmRiRSt6vectorISt4pairItjESaIS4_EE
_Z19ComputeHuffmanCodesPKhmRiRSt6vectorISt4pairItjESaIS4_EE.cold
_Z19FLV_MetaHandlerCTorP8XMPFiles
_Z19FLV_MetaHandlerCTorP8XMPFiles.cold
_Z19GIF_MetaHandlerCTorP8XMPFiles
_Z19GIF_MetaHandlerCTorP8XMPFiles.cold
_Z19MP3_MetaHandlerCTorP8XMPFiles
_Z19MP3_MetaHandlerCTorP8XMPFiles.cold
_Z19PNG_MetaHandlerCTorP8XMPFiles
_Z19PNG_MetaHandlerCTorP8XMPFiles.cold
_Z19PSD_MetaHandlerCTorP8XMPFiles
_Z19PSD_MetaHandlerCTorP8XMPFiles.cold
_Z19SVG_MetaHandlerCTorP8XMPFiles
_Z19SVG_MetaHandlerCTorP8XMPFiles.cold
_Z19SWF_MetaHandlerCTorP8XMPFiles
_Z19SWF_MetaHandlerCTorP8XMPFiles.cold
_Z19SonyHDV_CheckFormatjRKNSt7__cxx1112basic_stringIcSt11char_traitsIcESaIcEEES6_S6_S6_P8XMPFiles
_Z19SonyHDV_CheckFormatjRKNSt7__cxx1112basic_stringIcSt11char_traitsIcESaIcEEES6_S6_S6_P8XMPFiles.cold
_Z19UCF_MetaHandlerCTorP8XMPFiles
_Z19UCF_MetaHandlerCTorP8XMPFiles.cold
_Z19XDCAMEX_CheckFormatjRKNSt7__cxx1112basic_stringIcSt11char_traitsIcESaIcEEES6_S6_S6_P8XMPFiles
_Z19XDCAMEX_CheckFormatjRKNSt7__cxx1112basic_stringIcSt11char_traitsIcESaIcEEES6_S6_S6_P8XMPFiles.cold
_Z19jack_internals_loadP7_JSList
_Z19langdef__scan_bytesPKci
_Z19langdef_lex_destroyv
_Z19luaC_checkfinalizerP9lua_StateP8GCObjectP5Table
_Z19luaC_freeallobjectsP9lua_State
_Z19luaL_pushresultsizeP11luaL_Bufferm
_Z19memcached_safe_readP21memcached_instance_stPvm
_Z19memcached_set_errnoR21memcached_instance_stiPKc.part.0
_Z19memcached_set_errnoR21memcached_instance_stiPKcR18memcached_string_t.part.0
_Z19memcached_set_errorR12memcached_st18memcached_return_tPKc
_Z19memcached_set_errorR12memcached_st18memcached_return_tPKcS3_m
_Z19memcached_set_errorR21memcached_instance_st18memcached_return_tPKc
_Z19memcached_set_errorR21memcached_instance_st18memcached_return_tPKcR18memcached_string_t
_Z19memcached_set_errorR21memcached_instance_st18memcached_return_tPKcS3_m
_Z19outlangdef_get_lengv
_Z19outlangdef_get_textv
_Z19pspell_aspell_dummyv
_Z19setDerivativeDoublePmmii
_Z19stylecsssc_get_lengv
_Z19stylecsssc_get_textv
_Z19stylesc__scan_bytesPKci
_Z19stylesc_lex_destroyv
_Z19undo_moveBits2Frontj
_Z20AIFF_MetaHandlerCTorP8XMPFiles
_Z20AIFF_MetaHandlerCTorP8XMPFiles.cold
_Z20InDesign_CheckFormatjPKcP6XMP_IOP8XMPFiles
_Z20JPEG_MetaHandlerCTorP8XMPFiles
_Z20JPEG_MetaHandlerCTorP8XMPFiles.cold
_Z20RIFF_MetaHandlerCTorP8XMPFiles
_Z20RIFF_MetaHandlerCTorP8XMPFiles.cold
_Z20TIFF_MetaHandlerCTorP8XMPFiles
_Z20TIFF_MetaHandlerCTorP8XMPFiles.cold
_Z20WAVE_MetaHandlerCTorP8XMPFiles
_Z20WAVE_MetaHandlerCTorP8XMPFiles.cold
_Z20WEBP_MetaHandlerCTorP8XMPFiles
_Z20WEBP_MetaHandlerCTorP8XMPFiles.cold
_Z20XDCAMFAM_CheckFormatjRKNSt7__cxx1112basic_stringIcSt11char_traitsIcESaIcEEES6_S6_S6_P8XMPFiles
_Z20XDCAMFAM_CheckFormatjRKNSt7__cxx1112basic_stringIcSt11char_traitsIcESaIcEEES6_S6_S6_P8XMPFiles.cold
_Z20XDCAMSAM_CheckFormatjRKNSt7__cxx1112basic_stringIcSt11char_traitsIcESaIcEEES6_S6_S6_P8XMPFiles
_Z20XDCAMSAM_CheckFormatjRKNSt7__cxx1112basic_stringIcSt11char_traitsIcESaIcEEES6_S6_S6_P8XMPFiles.cold
_Z20_libmemcached_callocPK12memcached_stmmPv
_Z20_libmemcached_mallocPK12memcached_stmPv
_Z20instance_create_withP12memcached_stP21memcached_instance_stRK18memcached_string_ttj22memcached_connection_t
_Z20jack_client_open_auxPKc11JackOptionsP10JackStatusP13__va_list_tag
_Z20jack_client_open_auxPKc11JackOptionsP10JackStatusP13__va_list_tag.cold
_Z20langdef__scan_bufferPcm
_Z20langdef__scan_stringPKc
_Z20luaS_createlngstrobjP9lua_Statem
_Z20outlangdef_get_debugv
_Z20outlangdef_set_debugi
_Z20stylecsssc_get_debugv
_Z20stylecsssc_set_debugi
_Z20stylesc__scan_bufferPcm
_Z20stylesc__scan_stringPKc
_Z21MPEG2_MetaHandlerCTorP8XMPFiles
_Z21MPEG2_MetaHandlerCTorP8XMPFiles.cold
_Z21MPEG4_MetaHandlerCTorP8XMPFiles
_Z21MPEG4_MetaHandlerCTorP8XMPFiles.cold
_Z21_libmemcached_reallocPK12memcached_stPvmS2_
_Z21config__create_bufferP8_IO_FILEiPv.constprop.0
_Z21config__delete_bufferP15yy_buffer_statePv
_Z21hashkit_string_createm
_Z21jack_tls_allocate_keyPj
_Z21langdef__flush_bufferP15yy_buffer_state
_Z21lua_pushlightuserdataP9lua_StatePv
_Z21memcached_quit_serverP21memcached_instance_stb
_Z21outlangdef_get_linenov
_Z21outlangdef_set_linenoi
_Z21stylecsssc_get_linenov
_Z21stylecsssc_set_linenoi
_Z21stylesc__flush_bufferP15yy_buffer_state
_Z22ComputeHistoForHuffmanPKhmRSt6vectorIiSaIiEE
_Z22PostScript_CheckFormatjPKcP6XMP_IOP8XMPFiles
_Z22XMP_ExitCriticalRegionR15pthread_mutex_t.part.0
_Z22langdef__create_bufferP8_IO_FILEi
_Z22langdef__delete_bufferP15yy_buffer_state
_Z22lucene_wcstoutf8stringB5cxx11PKwm
_Z22lucene_wcstoutf8stringB5cxx11PKwm.cold
_Z22memcached_instance_setP12memcached_stP21memcached_instance_stj.part.0
_Z22outlangdef__scan_bytesPKci
_Z22outlangdef_lex_destroyv
_Z22restoreCrossBytesFloatiPjmm
_Z22setRowsDerivativeFloatPjmmii
_Z22stylecsssc__scan_bytesPKci
_Z22stylecsssc_lex_destroyv
_Z22stylesc__create_bufferP8_IO_FILEi
_Z22stylesc__delete_bufferP15yy_buffer_state
_Z23ErrorCallbackForXMPMetaPvhiPKc
_Z23ErrorCallbackForXMPMetaPvhiPKc.cold
_Z23Scanner_MetaHandlerCTorP8XMPFiles
_Z23Scanner_MetaHandlerCTorP8XMPFiles.cold
_Z23SonyHDV_MetaHandlerCTorP8XMPFiles
_Z23SonyHDV_MetaHandlerCTorP8XMPFiles.cold
_Z23XDCAMEX_MetaHandlerCTorP8XMPFiles
_Z23XDCAMEX_MetaHandlerCTorP8XMPFiles.cold
_Z23XMP_EnterCriticalRegionR15pthread_mutex_t.part.0
_Z23jack_free_driver_paramsP7_JSList
_Z23jackctl_driver_get_descP14jackctl_driver
_Z23memcached_set_namespaceR12memcached_stPKcm
_Z23memcached_string_appendP19memcached_string_stPKcm
_Z23outlangdef__scan_bufferPcm
_Z23outlangdef__scan_stringPKc
_Z23restoreCrossBytesDoubleiPmmm
_Z23setCrossDerivativeFloatPjmmii
_Z23setRowsDerivativeDoublePmmmii
_Z23stylecsssc__scan_bufferPcm
_Z23stylecsssc__scan_stringPKc
_Z24InDesign_MetaHandlerCTorP8XMPFiles
_Z24InDesign_MetaHandlerCTorP8XMPFiles.cold
_Z24XDCAMFAM_MetaHandlerCTorP8XMPFiles
_Z24XDCAMFAM_MetaHandlerCTorP8XMPFiles.cold
_Z24XDCAMSAM_MetaHandlerCTorP8XMPFiles
_Z24XDCAMSAM_MetaHandlerCTorP8XMPFiles.cold
_Z24langdef_pop_buffer_statev
_Z24memcached_parse_filenameP12memcached_st.part.0
_Z24outlangdef__flush_bufferP15yy_buffer_state
_Z24setCrossDerivativeDoublePmmmii
_Z24stylecsssc__flush_bufferP15yy_buffer_state
_Z24stylesc_pop_buffer_statev
_Z25hashkit_string_set_lengthP17hashkit_string_stm.part.0
_Z25jack_print_driver_optionsP18jack_driver_desc_tP8_IO_FILE
_Z25langdef__switch_to_bufferP15yy_buffer_state
_Z25langdef_push_buffer_stateP15yy_buffer_state
_Z25outlangdef__create_bufferP8_IO_FILEi
_Z25outlangdef__delete_bufferP15yy_buffer_state
_Z25restoreBlockSequenceFloatiPjmm
_Z25stylecsssc__create_bufferP8_IO_FILEi
_Z25stylecsssc__delete_bufferP15yy_buffer_state
_Z25stylesc__switch_to_bufferP15yy_buffer_state
_Z25stylesc_push_buffer_stateP15yy_buffer_state
_Z26PostScript_MetaHandlerCTorP8XMPFiles
_Z26PostScript_MetaHandlerCTorP8XMPFiles.cold
_Z26memcached_set_parser_errorR12memcached_stPKcS2_z
_Z26restoreBlockSequenceDoubleiPmmm
_Z26set_last_disconnected_hostP21memcached_instance_st
_Z27jack_find_driver_descriptorP7_JSListPKc
_Z27memcached_string_take_valueP19memcached_string_st
_Z27outlangdef_pop_buffer_statev
_Z27stylecsssc_pop_buffer_statev
_Z28InitializeUnicodeConversionsv
_Z28hashkit_string_c_str_mutableP17hashkit_string_st.part.0
_Z28memcached_instance_list_freeP21memcached_instance_stj
_Z28outlangdef__switch_to_bufferP15yy_buffer_state
_Z28outlangdef_push_buffer_stateP15yy_buffer_state
_Z28stylecsssc__switch_to_bufferP15yy_buffer_state
_Z28stylecsssc_push_buffer_stateP15yy_buffer_state
_Z29memcached_parse_configurationP12memcached_stPKcm
_Z29memcached_parse_configurationP12memcached_stPKcm.cold
_Z30memcached_parse_configure_fileR12memcached_stPKcm
_Z32memcached_io_get_readable_serverP12memcached_stR18memcached_return_t.isra.0
_Z32memcached_io_get_readable_serverP12memcached_stR18memcached_return_t.isra.0.cold
_Z38jack_get_self_connect_mode_descriptionc
_Z38memcached_sasl_authenticate_connectionP21memcached_instance_st.part.0
_Z39jack_get_thread_realtime_priority_rangePiS_
_Z41__static_initialization_and_destruction_0v.lto_priv.0
_Z41__static_initialization_and_destruction_0v.lto_priv.0.cold
_Z41__static_initialization_and_destruction_0v.lto_priv.1
_Z41__static_initialization_and_destruction_0v.lto_priv.10
_Z41__static_initialization_and_destruction_0v.lto_priv.11
_Z41__static_initialization_and_destruction_0v.lto_priv.12
_Z41__static_initialization_and_destruction_0v.lto_priv.13
_Z41__static_initialization_and_destruction_0v.lto_priv.14
_Z41__static_initialization_and_destruction_0v.lto_priv.15
_Z41__static_initialization_and_destruction_0v.lto_priv.16
_Z41__static_initialization_and_destruction_0v.lto_priv.17
_Z41__static_initialization_and_destruction_0v.lto_priv.18
_Z41__static_initialization_and_destruction_0v.lto_priv.19
_Z41__static_initialization_and_destruction_0v.lto_priv.2
_Z41__static_initialization_and_destruction_0v.lto_priv.20
_Z41__static_initialization_and_destruction_0v.lto_priv.21
_Z41__static_initialization_and_destruction_0v.lto_priv.22
_Z41__static_initialization_and_destruction_0v.lto_priv.23
_Z41__static_initialization_and_destruction_0v.lto_priv.24
_Z41__static_initialization_and_destruction_0v.lto_priv.25
_Z41__static_initialization_and_destruction_0v.lto_priv.26
_Z41__static_initialization_and_destruction_0v.lto_priv.27
_Z41__static_initialization_and_destruction_0v.lto_priv.28
_Z41__static_initialization_and_destruction_0v.lto_priv.29
_Z41__static_initialization_and_destruction_0v.lto_priv.3
_Z41__static_initialization_and_destruction_0v.lto_priv.4
_Z41__static_initialization_and_destruction_0v.lto_priv.5
_Z41__static_initialization_and_destruction_0v.lto_priv.6
_Z41__static_initialization_and_destruction_0v.lto_priv.6.cold
_Z41__static_initialization_and_destruction_0v.lto_priv.7
_Z41__static_initialization_and_destruction_0v.lto_priv.8
_Z41__static_initialization_and_destruction_0v.lto_priv.9
_Z43memcached_generate_hash_with_redistributionP12memcached_stPKcm
_Z6lua_gcP9lua_Stateiz
_Z7ToUTF16PKhmPNSt7__cxx1112basic_stringIcSt11char_traitsIcESaIcEEEb
_Z7ToUTF16PKhmPNSt7__cxx1112basic_stringIcSt11char_traitsIcESaIcEEEb.cold
_Z7ToUTF32PKhmPNSt7__cxx1112basic_stringIcSt11char_traitsIcESaIcEEEb
_Z7ToUTF32PKhmPNSt7__cxx1112basic_stringIcSt11char_traitsIcESaIcEEEb.cold
_Z7_assertb
_Z7_assertb.cold
_Z7enforcebN5Exiv29ErrorCodeE
_Z7enforcebN5Exiv29ErrorCodeE.cold
_Z7lua_lenP9lua_Statei
_Z8FindNodeP8XMP_NodeRKSt6vectorI13XPathStepInfoSaIS2_EEbjPN9__gnu_cxx17__normal_iteratorIPS0_S1_IS0_SaIS0_EEEE
_Z8FindNodeP8XMP_NodeRKSt6vectorI13XPathStepInfoSaIS2_EEbjPN9__gnu_cxx17__normal_iteratorIPS0_S1_IS0_SaIS0_EEEE.cold
_Z8MD5FinalPhP7MD5_CTX
_Z8luaC_fixP9lua_StateP8GCObject
_Z8luaH_getP5TablePK6TValue
_Z8luaH_newP9lua_State
_Z8luaK_nilP9FuncStateii
_Z8luaL_lenP9lua_Statei
_Z8luaL_refP9lua_Statei
_Z8luaS_newP9lua_StatePKc
_Z8lua_copyP9lua_Stateii
_Z8lua_dumpP9lua_StatePFiS0_PKvmPvES3_i
_Z8lua_getiP9lua_Stateix
_Z8lua_loadP9lua_StatePFPKcS0_PvPmES3_S2_S2_
_Z8lua_nextP9lua_Statei
_Z8lua_setiP9lua_Stateix
_Z8lua_typeP9lua_Statei
_Z9FromUTF16PKtmPNSt7__cxx1112basic_stringIcSt11char_traitsIcESaIcEEEb
_Z9FromUTF16PKtmPNSt7__cxx1112basic_stringIcSt11char_traitsIcESaIcEEEb.cold
_Z9MD5UpdateP7MD5_CTXPhj
_Z9luaC_stepP9lua_State
_Z9luaD_hookP9lua_Stateiiii
_Z9luaH_getnP5Table
_Z9luaK_codeP9FuncStatej
_Z9luaK_jumpP9FuncState
_Z9luaL_gsubP9lua_StatePKcS2_S2_
_Z9luaX_initP9lua_State
_Z9luaX_nextP8LexState
_Z9luaZ_fillP3Zio
_Z9lua_arithP9lua_Statei
_Z9lua_callkP9lua_StateiilPFiS0_ilE
_Z9lua_closeP9lua_State
_Z9lua_errorP9lua_State
_Z9lua_xmoveP9lua_StateS0_i
_ZL10GetFloatBEPKv
_ZL10GetFloatLEPKv.lto_priv.0
_ZL10GetFloatLEPKv.lto_priv.1
_ZL10GetUns16BEPKv
_ZL10GetUns16LEPKv.lto_priv.0
_ZL10GetUns16LEPKv.lto_priv.1
_ZL10GetUns32BEPKv.lto_priv.0.lto_priv.0
_ZL10GetUns32BEPKv.lto_priv.1.lto_priv.0
_ZL10GetUns32BEPKv.lto_priv.2.lto_priv.0
_ZL10GetUns32BEPKv.lto_priv.3.lto_priv.0
_ZL10GetUns32LEPKv.lto_priv.0
_ZL10GetUns32LEPKv.lto_priv.1
_ZL10PutFloatBEfPv
_ZL10PutFloatLEfPv.lto_priv.0
_ZL10PutFloatLEfPv.lto_priv.1
_ZL10PutUns16BEtPv
_ZL10PutUns16LEtPv.lto_priv.0
_ZL10PutUns16LEtPv.lto_priv.1
_ZL10PutUns32BEjPv.lto_priv.1.lto_priv.0
_ZL10PutUns32BEjPv.lto_priv.2
_ZL10PutUns32LEjPv.lto_priv.0
_ZL10PutUns32LEjPv.lto_priv.1
_ZL10WriteOnXMPP6XMP_IORKNSt7__cxx1112basic_stringIcSt11char_traitsIcESaIcEEE
_ZL10WriteOnXMPP6XMP_IORKNSt7__cxx1112basic_stringIcSt11char_traitsIcESaIcEEE.cold
_ZL10arith_idivP9lua_State
_ZL10ascii_dumpP12memcached_stPPF18memcached_return_tPKS_PKcmPvES6_j
_ZL10atomic2genP9lua_StateP12global_State
_ZL10aux_rawsetP9lua_StateiP6TValuei
_ZL10auxupvalueP9lua_Statei
_ZL10byteoffsetP9lua_State
_ZL10check_wordP12VoikkoHandlePKwRNSt7__cxx1118basic_stringstreamIwSt11char_traitsIwESaIwEEE
_ZL10checklimitP9FuncStateiiPKc
_ZL10checkupvalP9lua_StateiiPi
_ZL10close_funcP8LexState
_ZL10db_gethookP9lua_State
_ZL10db_getinfoP9lua_State
_ZL10db_sethookP9lua_State
_ZL10dofilecontP9lua_Stateil
_ZL10dumpStringP9DumpStatePK7TString
_ZL10enterblockP9FuncStateP8BlockCnth
_ZL10entersweepP9lua_State
_ZL10f_tostringP9lua_State
_ZL10fchecksizeP9LoadStatemPKc.part.0.lto_priv.0
_ZL10findloaderP9lua_StatePKc
_ZL10getdetailsP6HeadermPPKcPiS4_
_ZL10getgenericP5TablePK6TValuei.lto_priv.0
_ZL10getobjnamePK5ProtoiiPPKc
_ZL10gmatch_auxP9lua_State
_ZL10io_nocloseP9lua_State
_ZL10io_tmpfileP9lua_State
_ZL10isSCnumberP7expdescPiS1_.lto_priv.0
_ZL10iter_codesP9lua_State
_ZL10jumponcondP9FuncStateP7expdesci
_ZL10l_str2dlocPKcPdi
_ZL10leaveblockP9FuncState
_ZL10ll_loadlibP9lua_State
_ZL10ll_requireP9lua_State
_ZL10luaB_closeP9lua_State
_ZL10luaB_errorP9lua_State
_ZL10luaB_pairsP9lua_State
_ZL10luaB_pcallP9lua_State
_ZL10luaB_printP9lua_State
_ZL10luaB_yieldP9lua_State
_ZL10luaK_codekP9FuncStateii.isra.0
_ZL10luaK_exp2KP9FuncStateP7expdesc.lto_priv.0
_ZL10math_floorP9lua_State
_ZL10math_frexpP9lua_State
_ZL10math_ldexpP9lua_State
_ZL10math_log10P9lua_State
_ZL10math_tointP9lua_State
_ZL10need_valueP9FuncStatei
_ZL10os_executeP9lua_State
_ZL10os_tmpnameP9lua_State
_ZL10print_statPK21memcached_instance_stPKcmS3_mPv
_ZL10read_charsP9lua_StateP8_IO_FILEm
_ZL10readdigitsP2RNi
_ZL10restassignP8LexStateP10LHS_assigni
_ZL10retry_readPvm
_ZL10retry_readPvm.cold
_ZL10searcher_CP9lua_State
_ZL10searchpathP9lua_StatePKcS2_S2_S2_
_ZL10server_addP12memcached_stRK18memcached_string_ttj22memcached_connection_t
_ZL10singlestepP9lua_State
_ZL10stack_initP9lua_StateS0_
_ZL10str_formatP9lua_State
_ZL10str_unpackP9lua_State
_ZL10writeTransRSt14basic_ofstreamIcSt11char_traitsIcEEbRN9libvoikko3fst18WeightedTransitionEb
_ZL10yydestructPKc15yysymbol_kind_tP12CONFIG_STYPEP7ContextPPv.isra.0
_ZL10yydestructPKciP7YYSTYPE.isra.0
_ZL10yydestructPKciP7YYSTYPE.isra.1
_ZL10yydestructPKciP7YYSTYPEP7YYLTYPE.isra.0
_ZL11ApplyQuotesPNSt7__cxx1112basic_stringIcSt11char_traitsIcESaIcEEEmmb.lto_priv.0
_ZL11ApplyQuotesPNSt7__cxx1112basic_stringIcSt11char_traitsIcESaIcEEEmmb.lto_priv.0.cold
_ZL11DaysInMonthii
_ZL11DaysInMonthii.lto_priv.0
_ZL11DefaultCTorv.lto_priv.0
_ZL11DefaultCTorv.lto_priv.0.cold
_ZL11GetAtomInfoP6XMP_IOliP8AtomInfo
_ZL11GetDoubleBEPKv
_ZL11GetDoubleLEPKv.lto_priv.0
_ZL11GetDoubleLEPKv.lto_priv.1
_ZL11ParseFullNSPKcRNSt7__cxx1112basic_stringIcSt11char_traitsIcESaIcEEES7_.constprop.0
_ZL11PutDoubleBEdPv
_ZL11PutDoubleLEdPv.lto_priv.0
_ZL11PutDoubleLEdPv.lto_priv.1
_ZL11ReadIDXFileRKNSt7__cxx1112basic_stringIcSt11char_traitsIcESaIcEEES6_P8TXMPMetaIS4_ERbP7MD5_CTXb
_ZL11ReadIDXFileRKNSt7__cxx1112basic_stringIcSt11char_traitsIcESaIcEEES6_P8TXMPMetaIS4_ERbP7MD5_CTXb.cold
_ZL11SetQualNameP12ExpatAdapterPKcP8XML_Node
_ZL11SetQualNameP12ExpatAdapterPKcP8XML_Node.cold
_ZL11SetQualNamePKcP8XML_Node
_ZL11SetQualNamePKcP8XML_Node.cold
_ZL11UTF32InSwapPKv.lto_priv.0
_ZL11_add_phraseP17_pinyin_context_thP7_GArrayPjli.lto_priv.0
_ZL11_add_phraseP17_pinyin_context_thP7_GArrayPjli.lto_priv.0.cold
_ZL11_error_freeP17memcached_error_t.part.0.lto_priv.0
_ZL11addstr2buffP6BuffFSPKcm.part.0
_ZL11ascii_existP12memcached_stP21memcached_instance_stPKcm
_ZL11check_matchP8LexStateiii
_ZL11check_next1P8LexStatei
_ZL11check_next2P8LexStatePKc
_ZL11checkformatP9lua_StatePKcS2_i
_ZL11clear_stepsP10_GPtrArrayS0_.lto_priv.0
_ZL11clearbykeysP12global_StateP8GCObject
_ZL11close_stateP9lua_State
_ZL11close_stateP9lua_State.cold
_ZL11constructorP8LexStateP7expdesc
_ZL11create_filePKci
_ZL11create_filePKci.cold
_ZL11createlabelP8LexStateP7TStringii
_ZL11db_getlocalP9lua_State
_ZL11db_setlocalP9lua_State
_ZL11execute_getRK14client_optionsR12memcached_stRK9keyval_st
_ZL11execute_setRK14client_optionsR12memcached_stRK9keyval_st
_ZL11finishpcallP9lua_Stateil
_ZL11flushBufferPKcmRiRNSt7__cxx1112basic_stringIcSt11char_traitsIcESaIcEEE
_ZL11flushBufferPKcmRiRNSt7__cxx1112basic_stringIcSt11char_traitsIcESaIcEEE.cold
_ZL11getnumlimitP6HeaderPPKci
_ZL11index2valueP9lua_Statei
_ZL11io_readlineP9lua_State
_ZL11io_sock_errP21memcached_instance_stPKcm
_ZL11iter_auxlaxP9lua_State
_ZL11loadStringNP9LoadStateP5Proto
_ZL11lookforfuncP9lua_StatePKcS2_
_ZL11luaB_assertP9lua_State
_ZL11luaB_cowrapP9lua_State
_ZL11luaB_dofileP9lua_State
_ZL11luaB_ipairsP9lua_State
_ZL11luaB_rawgetP9lua_State
_ZL11luaB_rawlenP9lua_State
_ZL11luaB_rawsetP9lua_State
_ZL11luaB_selectP9lua_State
_ZL11luaB_xpcallP9lua_State
_ZL11match_classii
_ZL11math_randomP9lua_State
_ZL11os_difftimeP9lua_State
_ZL11raw_commandP7commandhPKvmS2_m
_ZL11recv_packetP8response
_ZL11recv_packetP8response.cold
_ZL11retry_writePKvm
_ZL11retry_writePKvm.cold
_ZL11send_packetP7command
_ZL11send_packetP7command.cold
_ZL11send_stringPKc
_ZL11send_stringPKc.cold
_ZL11singlematchP10MatchStatePKcS2_S2_.part.0.isra.0
_ZL11skipcommentP8_IO_FILEPi
_ZL11str_reverseP9lua_State
_ZL11suffixedexpP8LexStateP7expdesc
_ZL11tablerehashPP7TStringii
_ZL11utf8_decodePKcPji
_ZL12AddChildNodeP8XMP_NodeRK8XML_NodePKcb
_ZL12AddChildNodeP8XMP_NodeRK8XML_NodePKcb.cold
_ZL12AdjustOffsetmRKSt3mapImP10LayoutInfoSt4lessImESaISt4pairIKmS1_EEEP20GenericErrorCallback
_ZL12AdjustOffsetmRKSt3mapImP10LayoutInfoSt4lessImESaISt4pairIKmS1_EEEP20GenericErrorCallback.cold
_ZL12CharStarLessPKcS0_
_ZL12Default_CTorv
_ZL12Default_CTorv.cold
_ZL12MD5TransformPjPKh
_ZL12MD5TransformPjPh
_ZL12PickBestRootRK8XML_Nodej.lto_priv.0
_ZL12SetNodeValueP8XMP_NodePKc.lto_priv.0
_ZL12_error_printPK17memcached_error_t
_ZL12_write_filesP17_pinyin_context_t
_ZL12_write_filesP17_pinyin_context_t.cold
_ZL12allocupvalueP9FuncState
_ZL12block_followP8LexStatei.isra.0
_ZL12call_stat_fnP12memcached_stP21memcached_instance_stPv
_ZL12check_symbolPKcS0_S0_PPv
_ZL12constfoldingP9FuncStateiP7expdescPKS1_.lto_priv.0
_ZL12correctstackP9lua_State
_ZL12db_tracebackP9lua_State
_ZL12db_upvalueidP9lua_State
_ZL12dumpFunctionP9DumpStatePK5ProtoP7TString
_ZL12flush_bufferv
_ZL12flush_bufferv.cold
_ZL12flush_bufferv.lto_priv.1
_ZL12flush_bufferv.lto_priv.1.cold
_ZL12get_passwordP9sasl_connPviPP11sasl_secret.lto_priv.0
_ZL12get_usernamePviPPKcPj.lto_priv.0
_ZL12internshrstrP9lua_StatePKcm.lto_priv.0
_ZL12loadFunctionP9LoadStateP5ProtoP7TString.lto_priv.0
_ZL12loadUnsignedP9LoadStatem
_ZL12luaB_auxwrapP9lua_State
_ZL12luaK_numberKP9FuncStated
_ZL12new_localvarP8LexStateP7TString
_ZL12os_setlocaleP9lua_State
_ZL12patchlistauxP9FuncStateiiii
_ZL12patchtestregP9FuncStateii.isra.0
_ZL12prepbuffsizeP11luaL_Buffermi
_ZL12processBlockPv
_ZL12processBlockPv.cold
_ZL12read_numeralP8LexStateP7SemInfo
_ZL12receive_linePcm
_ZL12receive_linePcm.cold
_ZL12removevaluesP9FuncStatei.lto_priv.0
_ZL12savelineinfoP9FuncStateP5Protoi
_ZL12searcher_LuaP9lua_State
_ZL12setallfieldsP9lua_StateP2tm
_ZL12singlevarauxP9FuncStateP7TStringP7expdesci
_ZL12str_find_auxP9lua_Statei
_ZL12str_packsizeP9lua_State
_ZL12tostringbuffP6TValuePc.lto_priv.0
_ZL13AppendSubtreePK8XMP_NodePS_bbb.lto_priv.0
_ZL13AppendSubtreePK8XMP_NodePS_bbb.lto_priv.0.cold
_ZL13CheckAtomListP6XMP_IOli
_ZL13DeleteSubtreeN9__gnu_cxx17__normal_iteratorIPP8XMP_NodeSt6vectorIS2_SaIS2_EEEE
_ZL13DeleteSubtreeN9__gnu_cxx17__normal_iteratorIPP8XMP_NodeSt6vectorIS2_SaIS2_EEEE.cold
_ZL13DumpStringMapRKSt3mapINSt7__cxx1112basic_stringIcSt11char_traitsIcESaIcEEES5_St4lessIS5_ESaISt4pairIKS5_S5_EEEPKcPFiPvSG_jESH_.constprop.0
_ZL13GetASValueLenPKhS0_
_ZL13RegisterAliasPKcS0_S0_S0_j.lto_priv.0
_ZL13RegisterAliasPKcS0_S0_S0_j.lto_priv.0.cold
_ZL13RepairAltTextR8XMP_NodePKcS2_
_ZL13RepairAltTextR8XMP_NodePKcS2_.cold
_ZL13RepairAltTextR8XMP_NodePKcS2_.lto_priv.0
_ZL13RepairAltTextR8XMP_NodePKcS2_.lto_priv.0.cold
_ZL13UTF16_to_UTF8PKtmbPNSt7__cxx1112basic_stringIcSt11char_traitsIcESaIcEEE
_ZL13UTF8_to_UTF16PKhmbPNSt7__cxx1112basic_stringIcSt11char_traitsIcESaIcEEE.constprop.0
_ZL13_append_itemsPP7_GArrayP19_lookup_candidate_tS0_.constprop.0
_ZL13_check_offsetRN6pinyin17PhoneticKeyMatrixEm.isra.0
_ZL13_set_functionPN10hashkit_st19hashkit_function_stE24hashkit_hash_algorithm_t
_ZL13_string_checkP19memcached_string_stm.lto_priv.0
_ZL13adjust_assignP8LexStateiiP7expdesc.isra.0
_ZL13auto_responseP21memcached_instance_stbR18memcached_return_tPm
_ZL13buffer_escapePKc
_ZL13cleanupThreadv
_ZL13clearbyvaluesP12global_StateP8GCObjectS2_
_ZL13codebinexpvalP9FuncState6BinOprP7expdescS3_i.lto_priv.0
_ZL13db_getupvalueP9lua_State
_ZL13db_setupvalueP9lua_State
_ZL13discharge2regP9FuncStateP7expdesci.lto_priv.0
_ZL13dispatch_hostPK12memcached_stj
_ZL13inclinenumberP8LexState
_ZL13initNextBlockv
_ZL13ll_searchpathP9lua_State
_ZL13luaB_cocreateP9lua_State
_ZL13luaB_coresumeP9lua_State
_ZL13luaB_costatusP9lua_State
_ZL13luaB_loadfileP9lua_State
_ZL13luaB_rawequalP9lua_State
_ZL13luaB_tonumberP9lua_State
_ZL13luaB_tostringP9lua_State
_ZL13newlabelentryP8LexStateP9LabellistP7TStringii
_ZL13propagatemarkP12global_State
_ZL13propagatemarkP12global_State.cold
_ZL13resend_packetP7command
_ZL13resend_packetP7command.cold
_ZL13str_checknameP8LexState
_ZL13stylesc_parsev
_ZL13stylesc_parsev.cold
_ZL13timeout_io_opisPKcm
_ZL13timeout_io_opisPKcm.cold
_ZL13updateBgColorPKNSt7__cxx1112basic_stringIcSt11char_traitsIcESaIcEEE
_ZL14AddSchemaPropsR8IterInfoR8IterNodePK8XMP_Node.isra.0
_ZL14AddSchemaPropsR8IterInfoR8IterNodePK8XMP_Node.isra.0.cold
_ZL14AdvanceIterPosR8IterInfo
_ZL14AdvanceIterPosR8IterInfo.cold
_ZL14AppendLangItemP8XMP_NodePKcS2_
_ZL14AppendLangItemP8XMP_NodePKcS2_.cold
_ZL14AppendLangItemP8XMP_NodePKcS2_.lto_priv.0
_ZL14AppendLangItemP8XMP_NodePKcS2_.lto_priv.0.cold
_ZL14CheckFileSpaceP6XMP_IOP8IOBufferm.lto_priv.0
_ZL14CheckFileSpaceP6XMP_IOP8IOBufferm.lto_priv.1
_ZL14CloseLocalFileP8XMPFiles.part.0.lto_priv.0
_ZL14CommentHandlerPvPKc.lto_priv.0
_ZL14DoSetArrayItemP8XMP_NodeiPKcj
_ZL14DoSetArrayItemP8XMP_NodeiPKcj.cold
_ZL14GetNextXMPNodeR8IterInfo
_ZL14GetNextXMPNodeR8IterInfo.cold
_ZL14GetNextXMPNodeR8IterInfo.lto_priv.0
_ZL14GetNextXMPNodeR8IterInfo.lto_priv.0.cold
_ZL14GetRDFTermKindRKNSt7__cxx1112basic_stringIcSt11char_traitsIcESaIcEEE
_ZL14VerifyQualNamePKcS0_
_ZL14VerifyQualNamePKcS0_.cold
_ZL14_set_verbosityPK12memcached_stPK21memcached_instance_stPv
_ZL14ascii_get_itemPKcS0_b
_ZL14ascii_get_itemPKcS0_b.cold
_ZL14ascii_set_itemPKcS0_
_ZL14ascii_set_itemPKcS0_.cold
_ZL14check_readonlyP8LexStateP7expdesc
_ZL14connect_serverPKcS0_
_ZL14connect_serverPKcS0_.cold
_ZL14db_getregistryP9lua_State
_ZL14db_upvaluejoinP9lua_State
_ZL14doubleToStringdPKcS0_
_ZL14doubleToStringdPKcS0_.cold
_ZL14error_expectedP8LexStatei
_ZL14finishgencycleP9lua_StateP12global_State
_ZL14generic_readerP9lua_StatePvPm
_ZL14getjumpcontrolP9FuncStatei.isra.0
_ZL14iter_auxstrictP9lua_State
_ZL14localdebuginfoP9FuncStatei
_ZL14logWeightToLogd
_ZL14luaB_corunningP9lua_State
_ZL14luaB_yieldableP9lua_State
_ZL14mainpositionTVPK5TablePK6TValue.isra.0
_ZL14queueNextBlockv
_ZL14searcher_CrootP9lua_State
_ZL14server_connectPc
_ZL14server_connectPc.cold
_ZL14signal_handleri
_ZL14testBlocksSizeRSt6vectorI9TestBlockSaIS0_EEN6LercNS8UnitTypeEPKvlb
_ZL14test_ascii_addv
_ZL14test_ascii_casv
_ZL14test_ascii_getv
_ZL14test_ascii_getv.cold
_ZL14test_ascii_setv
_ZL14text_incr_decrP21memcached_instance_stbPKcmmb
_ZL14yy_fatal_errorPKc.lto_priv.0.lto_priv.0
_ZL14yy_fatal_errorPKc.lto_priv.1
_ZL14yy_fatal_errorPKc.lto_priv.2
_ZL14yy_fatal_errorPKc.lto_priv.3.lto_priv.0
_ZL14yy_stack_printPaS_
_ZL14yysyntax_errorPlPPcPK12yypcontext_t.isra.0
_ZL15AppendNodeValueRNSt7__cxx1112basic_stringIcSt11char_traitsIcESaIcEEERKS4_b.isra.0
_ZL15CodePointToUTF8mRNSt7__cxx1112basic_stringIcSt11char_traitsIcESaIcEEE.constprop.0
_ZL15DumpClearStringRKNSt7__cxx1112basic_stringIcSt11char_traitsIcESaIcEEEPFiPvPKcjES7_.constprop.0.isra.0
_ZL15EmitRDFArrayTagjRNSt7__cxx1112basic_stringIcSt11char_traitsIcESaIcEEEPKcS7_iib
_ZL15EmitRDFArrayTagjRNSt7__cxx1112basic_stringIcSt11char_traitsIcESaIcEEEPKcS7_iib.lto_priv.0
_ZL15EstimateRDFSizePK8XMP_Nodeim
_ZL15EstimateRDFSizePK8XMP_Nodeim.lto_priv.0
_ZL15ExportIPTC_DatehRK8TXMPMetaINSt7__cxx1112basic_stringIcSt11char_traitsIcESaIcEEEEP12IPTC_Manager
_ZL15ExportIPTC_DatehRK8TXMPMetaINSt7__cxx1112basic_stringIcSt11char_traitsIcESaIcEEEEP12IPTC_Manager.cold
_ZL15ExportMVHDItemsRK8TXMPMetaINSt7__cxx1112basic_stringIcSt11char_traitsIcESaIcEEEEP12MOOV_Managerb.lto_priv.0
_ZL15ExportTIFF_DateRK8TXMPMetaINSt7__cxx1112basic_stringIcSt11char_traitsIcESaIcEEEEPKcSA_P12TIFF_Managert.lto_priv.0
_ZL15ExportTIFF_DateRK8TXMPMetaINSt7__cxx1112basic_stringIcSt11char_traitsIcESaIcEEEEPKcSA_P12TIFF_Managert.lto_priv.0.cold
_ZL15FollowXPathStepP8XMP_NodeRKSt6vectorI13XPathStepInfoSaIS2_EEmbPN9__gnu_cxx17__normal_iteratorIPS0_S1_IS0_SaIS0_EEEEb
_ZL15FollowXPathStepP8XMP_NodeRKSt6vectorI13XPathStepInfoSaIS2_EEmbPN9__gnu_cxx17__normal_iteratorIPS0_S1_IS0_SaIS0_EEEEb.cold
_ZL15FollowXPathStepP8XMP_NodeRKSt6vectorI13XPathStepInfoSaIS2_EEmbPN9__gnu_cxx17__normal_iteratorIPS0_S1_IS0_SaIS0_EEEEb.isra.0
_ZL15FollowXPathStepP8XMP_NodeRKSt6vectorI13XPathStepInfoSaIS2_EEmbPN9__gnu_cxx17__normal_iteratorIPS0_S1_IS0_SaIS0_EEEEb.isra.0.cold
_ZL15GetClosingQuotem.lto_priv.0
_ZL15ImportMVHDItemsN20ISOBaseMedia_Manager7BoxInfoEP8TXMPMetaINSt7__cxx1112basic_stringIcSt11char_traitsIcESaIcEEEE.lto_priv.0
_ZL15ImportTIFF_DateRK12TIFF_ManagerRKNS_7TagInfoEP8TXMPMetaINSt7__cxx1112basic_stringIcSt11char_traitsIcESaIcEEEEPKcSF_
_ZL15ImportTIFF_DateRK12TIFF_ManagerRKNS_7TagInfoEP8TXMPMetaINSt7__cxx1112basic_stringIcSt11char_traitsIcESaIcEEEEPKcSF_.cold
_ZL15ItemValuesMatchPK8XMP_NodeS1_
_ZL15MoveOnePropertyR7XMPMetaPS_PKcS3_.lto_priv.0
_ZL15RDF_NodeElementP8XMP_NodeRK8XML_Nodeb.lto_priv.0
_ZL15RDF_NodeElementP8XMP_NodeRK8XML_Nodeb.lto_priv.0.cold
_ZL15WaitGraphChangev.part.0
_ZL15adjustlocalvarsP8LexStatei
_ZL15ascii_gets_itemPKcS0_bPm.constprop.0
_ZL15ascii_gets_itemPKcS0_bPm.constprop.0.cold
_ZL15binary_set_itemPKcS0_
_ZL15binary_set_itemPKcS0_.cold
_ZL15compare_serversPKvS0_
_ZL15correctgraylistPP8GCObject
_ZL15db_getmetatableP9lua_State
_ZL15db_getuservalueP9lua_State
_ZL15db_setmetatableP9lua_State
_ZL15db_setuservalueP9lua_State
_ZL15finishbinexpnegP9FuncStateP7expdescS2_6OpCodei3TMS.lto_priv.0
_ZL15finishbinexpvalP9FuncStateP7expdescS2_6OpCodeiiiS3_3TMS.lto_priv.0
_ZL15getlocalvardescP9FuncStatei
_ZL15math_randomseedP9lua_State
_ZL15negateconditionP9FuncStateP7expdesc.isra.0
_ZL15probWeightToLogd
_ZL15push_onecaptureP10MatchStateiPKcS2_
_ZL15separatetobefnzP12global_Statei
_ZL15storage_commandP7commandhPKvmS2_mjj.constprop.0
_ZL15test_ascii_decrv
_ZL15test_ascii_getsv
_ZL15test_ascii_getsv.cold
_ZL15test_ascii_incrv
_ZL15test_ascii_mgetv
_ZL15test_ascii_mgetv.cold
_ZL15test_ascii_quitv
_ZL15test_ascii_quitv.cold
_ZL15test_ascii_statv
_ZL15test_ascii_statv.cold
_ZL15test_binary_addv
_ZL15test_binary_getv
_ZL15test_binary_setv
_ZL15test_then_blockP8LexStatePi
_ZL15token_less_thanRK14SingleGramItemS1_.lto_priv.0
_ZL16AddNodeOffspringR8IterInfoR8IterNodePK8XMP_Node
_ZL16AddNodeOffspringR8IterInfoR8IterNodePK8XMP_Node.cold
_ZL16AddNodeOffspringR8IterInfoR8IterNodePK8XMP_Node.lto_priv.0
_ZL16AddNodeOffspringR8IterInfoR8IterNodePK8XMP_Node.lto_priv.0.cold
_ZL16AddQualifierNodeP8XMP_NodeRK8XML_Node.part.0
_ZL16AddQualifierNodeP8XMP_NodeRKNSt7__cxx1112basic_stringIcSt11char_traitsIcESaIcEEES8_.isra.0
_ZL16AddQualifierNodeP8XMP_NodeRKNSt7__cxx1112basic_stringIcSt11char_traitsIcESaIcEEES8_.isra.0.cold
_ZL16AddSchemaAliasesR8IterInfoR8IterNodePKc.lto_priv.0
_ZL16AddSchemaAliasesR8IterInfoR8IterNodePKc.lto_priv.0.cold
_ZL16CompareNodeLangsP8XMP_NodeS0_
_ZL16CompareNodeNamesP8XMP_NodeS0_
_ZL16DumpPropertyTreePK8XMP_NodeimPFiPvPKcjES2_
_ZL16ExportIPTC_ArrayRK8TXMPMetaINSt7__cxx1112basic_stringIcSt11char_traitsIcESaIcEEEEP12IPTC_ManagerPKcSC_h
_ZL16ExportIPTC_ArrayRK8TXMPMetaINSt7__cxx1112basic_stringIcSt11char_traitsIcESaIcEEEEP12IPTC_ManagerPKcSC_h.cold
_ZL16ImportSingleTIFFRKN12TIFF_Manager7TagInfoEbP8TXMPMetaINSt7__cxx1112basic_stringIcSt11char_traitsIcESaIcEEEEPKcSD_
_ZL16ImportSingleTIFFRKN12TIFF_Manager7TagInfoEbP8TXMPMetaINSt7__cxx1112basic_stringIcSt11char_traitsIcESaIcEEEEPKcSD_.cold
_ZL16SecondsToXMPDatemP12XMP_DateTime
_ZL16SelectTimeFormatRKN17MPEG4_MetaHandler17TimecodeTrackInfoE
_ZL16SerializeOneNodePNSt7__cxx1112basic_stringIcSt11char_traitsIcESaIcEEERK8XML_Node
_ZL16UTF16Nat_to_UTF8PKtmPhmPmS2_
_ZL16UTF16Nat_to_UTF8PKtmPhmPmS2_.lto_priv.0
_ZL16UTF16Swp_to_UTF8PKtmPhmPmS2_.lto_priv.0
_ZL16UTF32Nat_to_UTF8PKjmPhmPmS2_
_ZL16UTF32Nat_to_UTF8PKjmPhmPmS2_.lto_priv.0
_ZL16UTF32Swp_to_UTF8PKjmPhmPmS2_.lto_priv.0
_ZL16UTF8_to_UTF16NatPKhmPtmPmS2_
_ZL16UTF8_to_UTF16NatPKhmPtmPmS2_.cold
_ZL16UTF8_to_UTF16NatPKhmPtmPmS2_.lto_priv.0
_ZL16UTF8_to_UTF16NatPKhmPtmPmS2_.lto_priv.0.cold
_ZL16UTF8_to_UTF16SwpPKhmPtmPmS2_
_ZL16UTF8_to_UTF16SwpPKhmPtmPmS2_.cold
_ZL16UTF8_to_UTF16SwpPKhmPtmPmS2_.lto_priv.0
_ZL16UTF8_to_UTF16SwpPKhmPtmPmS2_.lto_priv.0.cold
_ZL16UTF8_to_UTF32NatPKhmPjmPmS2_
_ZL16UTF8_to_UTF32NatPKhmPjmPmS2_.lto_priv.0
_ZL16UTF8_to_UTF32SwpPKhmPjmPmS2_.lto_priv.0
_ZL16XMPDateToSecondsRK12XMP_DateTimePm.constprop.0
_ZL16binary_incr_decrP21memcached_instance_st23protocol_binary_commandPKcmmmjb
_ZL16ceeplusplus_testPKci
_ZL16ceeplusplus_testPKci.cold
_ZL16count_same_charsPKci
_ZL16funcnamefromcallP9lua_StateP8CallInfoPPKc
_ZL16mget_by_key_realP12memcached_stPKcmPKS2_PKmmb.part.0
_ZL16read_long_stringP8LexStateP7SemInfom
_ZL16reallymarkobjectP12global_StateP8GCObject
_ZL16reallymarkobjectP12global_StateP8GCObject.cold
_ZL16receive_responsePKc
_ZL16receive_responsePKc.cold
_ZL16s_buildHashNamesRSt6vectorINSt7__cxx1112basic_stringIcSt11char_traitsIcESaIcEEESaIS5_EEPKc.constprop.0
_ZL16s_buildHashNamesRSt6vectorINSt7__cxx1112basic_stringIcSt11char_traitsIcESaIcEEESaIS5_EEPKc.constprop.0.cold
_ZL16searcher_preloadP9lua_State
_ZL16send_binary_noopv
_ZL16send_binary_noopv.cold
_ZL16setBooleanOptionii
_ZL16stylecsssc_parsev
_ZL16stylecsssc_parsev.cold
_ZL16test_ascii_flushv
_ZL16test_binary_addqv
_ZL16test_binary_decrv
_ZL16test_binary_getkv
_ZL16test_binary_getqv
_ZL16test_binary_incrv
_ZL16test_binary_noopv
_ZL16test_binary_noopv.cold
_ZL16test_binary_quitv
_ZL16test_binary_setqv
_ZL16test_binary_statv
_ZL16test_binary_statv.cold
_ZL16update_continuumP12memcached_st
_ZL17AttemptFileRepairP6XMP_IOlhP20GenericErrorCallback
_ZL17AttemptFileRepairP6XMP_IOlhP20GenericErrorCallback.cold
_ZL17ClassifyCharacterPKcmP11UniCharKindPmS3_.lto_priv.0
_ZL17CompareNodeValuesP8XMP_NodeS0_.lto_priv.0
_ZL17EndElementHandlerPvPKc
_ZL17EndElementHandlerPvPKc.cold
_ZL17EndElementHandlerPvPKc.lto_priv.0
_ZL17FindTimecode_stblRK12MOOV_Manager.lto_priv.0
_ZL17FindTimecode_trakRK12MOOV_Manager.lto_priv.0
_ZL17SplitNameAndValueRKNSt7__cxx1112basic_stringIcSt11char_traitsIcESaIcEEEPS4_S7_.constprop.0.isra.0
_ZL17_clean_user_filesPKcPKN6pinyin19pinyin_table_info_tE.isra.0
_ZL17_compute_prefixesP18_pinyin_instance_tPKc
_ZL17_token_get_phrasePN6pinyin17FacadePhraseIndexEjjPjPPc.lto_priv.0
_ZL17_token_get_phrasePN6pinyin17FacadePhraseIndexEjjPjPPc.lto_priv.0.cold
_ZL17ascii_stats_fetchP17memcached_stat_stPKcmP21memcached_instance_stP13local_context
_ZL17constructDateTimeRKNSt7__cxx1112basic_stringIcSt11char_traitsIcESaIcEEERS4_
_ZL17constructDateTimeRKNSt7__cxx1112basic_stringIcSt11char_traitsIcESaIcEEERS4_.cold
_ZL17db_setcstacklimitP9lua_State
_ZL17ensureSymbolInMapRNSt7__cxx1112basic_stringIcSt11char_traitsIcESaIcEEERSt6vectorI6SymbolSaIS7_EERSt3mapIS4_S7_St4lessIS4_ESaISt4pairIKS4_S7_EEE
_ZL17ensureSymbolInMapRNSt7__cxx1112basic_stringIcSt11char_traitsIcESaIcEEERSt6vectorI6SymbolSaIS7_EERSt3mapIS4_S7_St4lessIS4_ESaISt4pairIKS4_S7_EEE.cold
_ZL17libmemcached_freePK12memcached_stPv.lto_priv.1.lto_priv.0
_ZL17libmemcached_freePK12memcached_stPv.lto_priv.2
_ZL17luaB_getmetatableP9lua_State
_ZL17luaB_setmetatableP9lua_State
_ZL17matchbracketclassiPKcS0_
_ZL17memcached_free_exP12memcached_stb
_ZL17memcached_success18memcached_return_t
_ZL17test_ascii_appendv
_ZL17test_ascii_deletev
_ZL17test_binary_decrqv
_ZL17test_binary_flushv
_ZL17test_binary_getkqv
_ZL17test_binary_incrqv
_ZL17test_binary_quitqv
_ZL17traverseephemeronP12global_StateP5Tablei
_ZL18AdjustTimeOverflowP12XMP_DateTime.lto_priv.0
_ZL18ConjureDerivedPathPKc
_ZL18ConjureDerivedPathPKc.cold
_ZL18CreateChildElementP8XML_NodePKcS2_i.constprop.0
_ZL18CreateChildElementP8XML_NodePKcS2_i.constprop.0.cold
_ZL18DeclarationHandlerPvPKcS1_i
_ZL18ExportIPTC_LangAltRK8TXMPMetaINSt7__cxx1112basic_stringIcSt11char_traitsIcESaIcEEEEP12IPTC_ManagerPKcSC_h
_ZL18ExportIPTC_LangAltRK8TXMPMetaINSt7__cxx1112basic_stringIcSt11char_traitsIcESaIcEEEEP12IPTC_ManagerPKcSC_h.cold
_ZL18FixupQualifiedNodeP8XMP_Node
_ZL18FixupQualifiedNodeP8XMP_Node.cold
_ZL18FormatFullDateTimeR12XMP_DateTimePcm.constprop.0
_ZL18GetElementLocationP8XML_NodeRPNSt7__cxx1112basic_stringIcSt11char_traitsIcESaIcEEE
_ZL18ProcessUTF8PortionP16XMLParserAdapterPKhmb
_ZL18ProcessUTF8PortionP16XMLParserAdapterPKhmb.lto_priv.0
_ZL18ProcessUTF8PortionP16XMLParserAdapterPKhmb.lto_priv.0.cold
_ZL18TrimTrailingSpacesPcm.part.0.lto_priv.0
_ZL18_memcached_connectP21memcached_instance_stb.constprop.0
_ZL18_read_one_responseP21memcached_instance_stPcmP19memcached_result_st
_ZL18arithmetic_commandP7commandhPKvmmmj.constprop.0
_ZL18binary_stats_fetchP17memcached_stat_stPKcmP21memcached_instance_stP13local_context
_ZL18continuum_item_cmpPKvS0_
_ZL18convergeephemeronsP12global_State
_ZL18convertSymbolNamesNSt7__cxx1112basic_stringIcSt11char_traitsIcESaIcEEE
_ZL18ketama_server_hashPKcmj
_ZL18pushglobalfuncnameP9lua_StateP9lua_Debug
_ZL18removelastlineinfoP9FuncState
_ZL18test_ascii_prependv
_ZL18test_ascii_replacev
_ZL18test_ascii_versionv
_ZL18test_ascii_versionv.cold
_ZL18test_binary_appendv
_ZL18test_binary_deletev
_ZL18test_binary_flushqv
_ZL18yy_get_next_bufferPv
_ZL19ChooseLocalizedTextPK8XMP_NodePKcS3_PS1_
_ZL19ChooseLocalizedTextPK8XMP_NodePKcS3_PS1_.cold
_ZL19DeclareOneNamespacePKcS0_RNSt7__cxx1112basic_stringIcSt11char_traitsIcESaIcEEES7_S0_S0_i
_ZL19DeclareOneNamespacePKcS0_RNSt7__cxx1112basic_stringIcSt11char_traitsIcESaIcEEES7_S0_S0_i.cold
_ZL19DeclareOneNamespaceRKNSt7__cxx1112basic_stringIcSt11char_traitsIcESaIcEEES6_RS4_S7_PKcS9_i.part.0.constprop.0
_ZL19EstimateSizeForJPEGPK8XMP_Node.lto_priv.0
_ZL19ImportISOCopyrightsRKSt6vectorIN20ISOBaseMedia_Manager7BoxInfoESaIS1_EEP8TXMPMetaINSt7__cxx1112basic_stringIcSt11char_traitsIcESaIcEEEE.lto_priv.0
_ZL19ImportISOCopyrightsRKSt6vectorIN20ISOBaseMedia_Manager7BoxInfoESaIS1_EEP8TXMPMetaINSt7__cxx1112basic_stringIcSt11char_traitsIcESaIcEEEE.lto_priv.0.cold
_ZL19ImportTimecodeItemsRKN17MPEG4_MetaHandler17TimecodeTrackInfoERK14TradQT_ManagerP8TXMPMetaINSt7__cxx1112basic_stringIcSt11char_traitsIcESaIcEEEE.lto_priv.0
_ZL19ImportTimecodeItemsRKN17MPEG4_MetaHandler17TimecodeTrackInfoERK14TradQT_ManagerP8TXMPMetaINSt7__cxx1112basic_stringIcSt11char_traitsIcESaIcEEEE.lto_priv.0.cold
_ZL19SortWithinOffspringRSt6vectorIP8XMP_NodeSaIS1_EE
_ZL19SortWithinOffspringRSt6vectorIP8XMP_NodeSaIS1_EE.cold
_ZL19StartElementHandlerPvPKcPS1_
_ZL19StartElementHandlerPvPKcPS1_.cold
_ZL19StartElementHandlerPvPKcPS1_.lto_priv.0
_ZL19StartElementHandlerPvPKcPS1_.lto_priv.0.cold
_ZL19VerifyDateTimeFlagsP12XMP_DateTime.lto_priv.0
_ZL19VerifySimpleXMLNamePKcS0_
_ZL19VerifySimpleXMLNamePKcS0_.cold
_ZL19_compute_zero_startRN6pinyin17PhoneticKeyMatrixEm
_ZL19_parse_file_optionsR12memcached_stP18memcached_array_st.lto_priv.0
_ZL19_pre_compute_tokensP17_pinyin_context_tP7_GArrayPjm.isra.0
_ZL19config__init_bufferP15yy_buffer_stateP8_IO_FILEPv.lto_priv.0
_ZL19hunspell_dict_checkP16str_enchant_dictPKcm
_ZL19jack_format_and_logiPKcS0_P13__va_list_tag
_ZL19jack_format_and_logiPKcS0_P13__va_list_tag.constprop.0
_ZL19jack_get_descriptorP7_JSListPKcS2_S2_
_ZL19luaB_collectgarbageP9lua_State
_ZL19receive_binary_noopv
_ZL19receive_binary_noopv.cold
_ZL19test_ascii_add_implPKcb
_ZL19test_ascii_add_implPKcb.cold
_ZL19test_ascii_cas_implPKcb
_ZL19test_ascii_cas_implPKcb.cold
_ZL19test_ascii_set_implPKcb
_ZL19test_ascii_set_implPKcb.cold
_ZL19test_binary_appendqv
_ZL19test_binary_deleteqv
_ZL19test_binary_prependv
_ZL19test_binary_replacev
_ZL19test_binary_versionv
_ZL19test_binary_versionv.cold
_ZL20CharacterDataHandlerPvPKci
_ZL20CharacterDataHandlerPvPKci.cold
_ZL20CharacterDataHandlerPvPKci.lto_priv.0
_ZL20DeclareElemNamespaceRKNSt7__cxx1112basic_stringIcSt11char_traitsIcESaIcEEERS4_S7_PKcS9_i
_ZL20DeclareElemNamespaceRKNSt7__cxx1112basic_stringIcSt11char_traitsIcESaIcEEERS4_S7_PKcS9_i.cold
_ZL20DeclareElemNamespaceRKNSt7__cxx1112basic_stringIcSt11char_traitsIcESaIcEEERS4_S7_PKcS9_i.constprop.0
_ZL20DeclareElemNamespaceRKNSt7__cxx1112basic_stringIcSt11char_traitsIcESaIcEEERS4_S7_PKcS9_i.constprop.0.cold
_ZL20ImportArrayTIFF_ByteRKN12TIFF_Manager7TagInfoEP8TXMPMetaINSt7__cxx1112basic_stringIcSt11char_traitsIcESaIcEEEEPKcSD_
_ZL20ImportArrayTIFF_ByteRKN12TIFF_Manager7TagInfoEP8TXMPMetaINSt7__cxx1112basic_stringIcSt11char_traitsIcESaIcEEEEPKcSD_.cold
_ZL20RemoveSchemaChildrenN9__gnu_cxx17__normal_iteratorIPP8XMP_NodeSt6vectorIS2_SaIS2_EEEEb.lto_priv.0
_ZL20UTF16Nat_to_UTF32NatPKtmPjmPmS2_
_ZL20UTF16Nat_to_UTF32NatPKtmPjmPmS2_.lto_priv.0
_ZL20UTF16Nat_to_UTF32NatPKtmPjmPmS2_.lto_priv.0.cold
_ZL20UTF16Nat_to_UTF32SwpPKtmPjmPmS2_.lto_priv.0
_ZL20UTF16Swp_to_UTF32NatPKtmPjmPmS2_.lto_priv.0
_ZL20UTF16Swp_to_UTF32SwpPKtmPjmPmS2_.lto_priv.0
_ZL20UTF32Nat_to_UTF16NatPKjmPtmPmS2_
_ZL20UTF32Nat_to_UTF16NatPKjmPtmPmS2_.cold
_ZL20UTF32Nat_to_UTF16NatPKjmPtmPmS2_.lto_priv.0
_ZL20UTF32Nat_to_UTF16NatPKjmPtmPmS2_.lto_priv.0.cold
_ZL20UTF32Nat_to_UTF16SwpPKjmPtmPmS2_.lto_priv.0
_ZL20UTF32Nat_to_UTF16SwpPKjmPtmPmS2_.lto_priv.0.cold
_ZL20UTF32Swp_to_UTF16NatPKjmPtmPmS2_.lto_priv.0
_ZL20UTF32Swp_to_UTF16NatPKjmPtmPmS2_.lto_priv.0.cold
_ZL20UTF32Swp_to_UTF16SwpPKjmPtmPmS2_.lto_priv.0
_ZL20UTF32Swp_to_UTF16SwpPKjmPtmPmS2_.lto_priv.0.cold
_ZL20_get_aux_text_prefixP18_pinyin_instance_tmj
_ZL20_get_aux_text_prefixP18_pinyin_instance_tmj.cold
_ZL20_load_phrase_libraryPKcS0_PN6pinyin17FacadePhraseIndexEPKNS1_19pinyin_table_info_tE
_ZL20_load_phrase_libraryPKcS0_PN6pinyin17FacadePhraseIndexEPKNS1_19pinyin_table_info_tE.cold
_ZL20check_server_versionPK12memcached_stPK21memcached_instance_stPv
_ZL20langdef__init_bufferP15yy_buffer_stateP8_IO_FILE
_ZL20memcached_send_asciiP12memcached_stP21memcached_instance_stPKcmS4_mljmbb26memcached_storage_action_t
_ZL20print_server_versionPK12memcached_stPK21memcached_instance_stPv
_ZL20process_input_bufferP21memcached_instance_st
_ZL20search_chewing_indexjPKN6pinyin20chewing_index_item_tEmPKcR11_ChewingKey
_ZL20stylesc__init_bufferP15yy_buffer_stateP8_IO_FILE
_ZL20test_ascii_decr_implPKcb
_ZL20test_ascii_decr_implPKcb.cold
_ZL20test_ascii_incr_implPKcb
_ZL20test_ascii_incr_implPKcb.cold
_ZL20test_ascii_verbosityv
_ZL20test_ascii_verbosityv.cold
_ZL20test_binary_add_implPKch
_ZL20test_binary_add_implPKch.cold
_ZL20test_binary_get_implPKch
_ZL20test_binary_get_implPKch.cold
_ZL20test_binary_prependqv
_ZL20test_binary_replaceqv
_ZL20test_binary_set_implPKch
_ZL20test_binary_set_implPKch.cold
_ZL21CodePoint_to_UTF16NatjPtmPm
_ZL21CodePoint_to_UTF16NatjPtmPm.cold
_ZL21CodePoint_to_UTF16NatjPtmPm.lto_priv.0
_ZL21CodePoint_to_UTF16NatjPtmPm.lto_priv.0.cold
_ZL21CodePoint_to_UTF16NatjPtmPm.part.0
_ZL21CodePoint_to_UTF16NatjPtmPm.part.0.lto_priv.0
_ZL21CodePoint_to_UTF16SwpjPtmPm
_ZL21CodePoint_to_UTF16SwpjPtmPm.cold
_ZL21CodePoint_to_UTF16SwpjPtmPm.lto_priv.0
_ZL21CodePoint_to_UTF16SwpjPtmPm.lto_priv.0.cold
_ZL21CodePoint_to_UTF16SwpjPtmPm.part.0
_ZL21CodePoint_to_UTF16SwpjPtmPm.part.0.lto_priv.0
_ZL21CollectNamespaceDeclsPSt3mapINSt7__cxx1112basic_stringIcSt11char_traitsIcESaIcEEES5_St4lessIS5_ESaISt4pairIKS5_S5_EEERK8XML_Node
_ZL21CollectNamespaceDeclsPSt3mapINSt7__cxx1112basic_stringIcSt11char_traitsIcESaIcEEES5_St4lessIS5_ESaISt4pairIKS5_S5_EEERK8XML_Node.cold
_ZL21DeclareUsedNamespacesPK8XMP_NodeRNSt7__cxx1112basic_stringIcSt11char_traitsIcESaIcEEES8_PKcSA_i
_ZL21DeclareUsedNamespacesPK8XMP_NodeRNSt7__cxx1112basic_stringIcSt11char_traitsIcESaIcEEES8_PKcSA_i.constprop.0
_ZL21ImportConversionTableRKN12TIFF_Manager7TagInfoEbP8TXMPMetaINSt7__cxx1112basic_stringIcSt11char_traitsIcESaIcEEEEPKcSD_.constprop.0
_ZL21ImportConversionTableRKN12TIFF_Manager7TagInfoEbP8TXMPMetaINSt7__cxx1112basic_stringIcSt11char_traitsIcESaIcEEEEPKcSD_.constprop.0.cold
_ZL21ImportSingleTIFF_ByteRKN12TIFF_Manager7TagInfoEP8TXMPMetaINSt7__cxx1112basic_stringIcSt11char_traitsIcESaIcEEEEPKcSD_.isra.0
_ZL21ImportSingleTIFF_ByteRKN12TIFF_Manager7TagInfoEP8TXMPMetaINSt7__cxx1112basic_stringIcSt11char_traitsIcESaIcEEEEPKcSD_.isra.0.cold
_ZL21TextOutputProcWrapperPvPKcj.lto_priv.0
_ZL21TextOutputProcWrapperPvPKcj.lto_priv.0.cold
_ZL21_compute_pinyin_startRN6pinyin17PhoneticKeyMatrixEm
_ZL21_get_aux_text_postfixP18_pinyin_instance_tmj
_ZL21_get_aux_text_postfixP18_pinyin_instance_tmj.cold
_ZL21find_chars_or_commentPKcS0_.lto_priv.0
_ZL21hunspell_dict_suggestP16str_enchant_dictPKcmPm
_ZL21jackctl_add_parameterPP7_JSListPKcS3_S3_20jackctl_param_type_tP23jackctl_parameter_valueS6_S5_P35jack_driver_param_constraint_desc_t.constprop.0
_ZL21memcached_send_binaryP12memcached_stP21memcached_instance_stjPKcmS4_mljmbb26memcached_storage_action_t
_ZL21s_buildDictionaryDirsRSt6vectorINSt7__cxx1112basic_stringIcSt11char_traitsIcESaIcEEESaIS5_EE.constprop.0
_ZL21s_buildDictionaryDirsRSt6vectorINSt7__cxx1112basic_stringIcSt11char_traitsIcESaIcEEESaIS5_EE.constprop.0.cold
_ZL21test_ascii_flush_implPKcb
_ZL21test_ascii_flush_implPKcb.cold
_ZL21test_binary_decr_implPKch
_ZL21test_binary_decr_implPKch.cold
_ZL21test_binary_incr_implPKch
_ZL21test_binary_incr_implPKch.cold
_ZL21test_binary_quit_implh
_ZL21test_binary_quit_implh.cold
_ZL21yy_get_previous_statePv
_ZL21yy_get_previous_statev
_ZL21yy_get_previous_statev.lto_priv.0
_ZL21yy_get_previous_statev.lto_priv.1
_ZL21yy_get_previous_statev.lto_priv.2
_ZL22CompareAliasedSubtreesP8XMP_NodeS0_RN7XMPMeta17ErrorCallbackInfoEb
_ZL22CompareAliasedSubtreesP8XMP_NodeS0_RN7XMPMeta17ErrorCallbackInfoEb.cold
_ZL22DetermineInputEncodingPKhm
_ZL22DetermineInputEncodingPKhm.lto_priv.0
_ZL22EndCdataSectionHandlerPv
_ZL22EndCdataSectionHandlerPv.lto_priv.0
_ZL22_compute_phrase_lengthP17_pinyin_context_tP7_GArray.isra.0
_ZL22_compute_phrase_lengthP17_pinyin_context_tP7_GArray.isra.0.cold
_ZL22_get_char_offset_recurP18_pinyin_instance_tP7_GArraymmPm
_ZL22_get_char_offset_recurP18_pinyin_instance_tP7_GArraymmPm.cold
_ZL22_remember_phrase_recurP18_pinyin_instance_tP7_GArrayS2_mPji
_ZL22_remember_phrase_recurP18_pinyin_instance_tP7_GArrayS2_mPji.cold
_ZL22receive_error_responsev
_ZL22receive_error_responsev.cold
_ZL22s_correspondingAffFileRKNSt7__cxx1112basic_stringIcSt11char_traitsIcESaIcEEE
_ZL22s_correspondingAffFileRKNSt7__cxx1112basic_stringIcSt11char_traitsIcESaIcEEE.cold
_ZL22test_ascii_add_noreplyv
_ZL22test_ascii_cas_noreplyv
_ZL22test_ascii_concat_implPKcbb
_ZL22test_ascii_concat_implPKcbb.cold
_ZL22test_ascii_delete_implPKcb
_ZL22test_ascii_delete_implPKcb.cold
_ZL22test_ascii_set_noreplyv
_ZL22test_binary_flush_implPKch
_ZL22test_binary_flush_implPKch.cold
_ZL23CodePoint_from_UTF16NatPKtmPjPm
_ZL23CodePoint_from_UTF16NatPKtmPjPm.lto_priv.0
_ZL23CodePoint_from_UTF16SwpPKtmPjPm
_ZL23CodePoint_from_UTF16SwpPKtmPjPm.lto_priv.0
_ZL23CodePoint_to_UTF8_MultijPhmPm
_ZL23CodePoint_to_UTF8_MultijPhmPm.cold
_ZL23CodePoint_to_UTF8_MultijPhmPm.lto_priv.0
_ZL23CodePoint_to_UTF8_MultijPhmPm.lto_priv.0.cold
_ZL23EndNamespaceDeclHandlerPvPKc
_ZL23EndNamespaceDeclHandlerPvPKc.lto_priv.0
_ZL23ExportTIFF_LocTextASCIIRK8TXMPMetaINSt7__cxx1112basic_stringIcSt11char_traitsIcESaIcEEEEPKcSA_P12TIFF_Managerht.constprop.0
_ZL23ExportTIFF_LocTextASCIIRK8TXMPMetaINSt7__cxx1112basic_stringIcSt11char_traitsIcESaIcEEEEPKcSA_P12TIFF_Managerht.constprop.0.cold
_ZL23RDF_PropertyElementListP8XMP_NodeRK8XML_Nodeb
_ZL23RDF_PropertyElementListP8XMP_NodeRK8XML_Nodeb.cold
_ZL23StartDoctypeDeclHandlerPvPKcS1_S1_i.lto_priv.0
_ZL23StartDoctypeDeclHandlerPvPKcS1_S1_i.lto_priv.0.lto_priv.0
_ZL23StartDoctypeDeclHandlerPvPKcS1_S1_i.lto_priv.1
_ZL23ascii_get_unknown_valuePPcS0_Pl.constprop.0
_ZL23ascii_get_unknown_valuePPcS0_Pl.constprop.0.cold
_ZL23memcached_flush_textualP12memcached_stlb
_ZL23outlangdef__init_bufferP15yy_buffer_stateP8_IO_FILE
_ZL23search_chewing_symbols2PKN6pinyin20zhuyin_symbol_item_tEcPPKcS5_
_ZL23stylecsssc__init_bufferP15yy_buffer_stateP8_IO_FILE
_ZL23test_ascii_decr_noreplyv
_ZL23test_ascii_incr_noreplyv
_ZL23test_ascii_replace_implPKcb
_ZL23test_ascii_replace_implPKcb.cold
_ZL23test_binary_concat_implPKch
_ZL23test_binary_concat_implPKch.cold
_ZL23test_binary_delete_implPKch
_ZL23test_binary_delete_implPKch.cold
_ZL24ExportTIFF_EncodedStringRK8TXMPMetaINSt7__cxx1112basic_stringIcSt11char_traitsIcESaIcEEEEPKcSA_P12TIFF_Managerhtb.constprop.0
_ZL24ExportTIFF_EncodedStringRK8TXMPMetaINSt7__cxx1112basic_stringIcSt11char_traitsIcESaIcEEEEPKcSA_P12TIFF_Managerhtb.constprop.0.cold
_ZL24ExportTIFF_GPSCoordinateRK8TXMPMetaINSt7__cxx1112basic_stringIcSt11char_traitsIcESaIcEEEEPKcSA_P12TIFF_Managerht.constprop.0
_ZL24ExportTIFF_GPSCoordinateRK8TXMPMetaINSt7__cxx1112basic_stringIcSt11char_traitsIcESaIcEEEEPKcSA_P12TIFF_Managerht.constprop.0.cold
_ZL24ImportTIFF_EncodedStringRK12TIFF_ManagerRKNS_7TagInfoEP8TXMPMetaINSt7__cxx1112basic_stringIcSt11char_traitsIcESaIcEEEEPKcSF_b.constprop.0.isra.0
_ZL24ImportTIFF_EncodedStringRK12TIFF_ManagerRKNS_7TagInfoEP8TXMPMetaINSt7__cxx1112basic_stringIcSt11char_traitsIcESaIcEEEEPKcSF_b.constprop.0.isra.0.cold
_ZL24ImportTIFF_GPSCoordinateRK12TIFF_ManagerRKNS_7TagInfoEP8TXMPMetaINSt7__cxx1112basic_stringIcSt11char_traitsIcESaIcEEEEPKcSF_.constprop.0
_ZL24ImportTIFF_GPSCoordinateRK12TIFF_ManagerRKNS_7TagInfoEP8TXMPMetaINSt7__cxx1112basic_stringIcSt11char_traitsIcESaIcEEEEPKcSF_.constprop.0.cold
_ZL24InternalMakeClipFilePathPNSt7__cxx1112basic_stringIcSt11char_traitsIcESaIcEEERKS4_S7_PKc.lto_priv.0
_ZL24RDF_EmptyPropertyElementP8XMP_NodeRK8XML_Nodeb
_ZL24RDF_EmptyPropertyElementP8XMP_NodeRK8XML_Nodeb.cold
_ZL24StartCdataSectionHandlerPv
_ZL24StartCdataSectionHandlerPv.lto_priv.0
_ZL24StartOuterRDFDescriptionRK8XMP_NodeRNSt7__cxx1112basic_stringIcSt11char_traitsIcESaIcEEEPKcSA_i
_ZL24StartOuterRDFDescriptionRK8XMP_NodeRNSt7__cxx1112basic_stringIcSt11char_traitsIcESaIcEEEPKcSA_i.cold
_ZL24TransplantArrayItemAliasP8XMP_NodemS0_.lto_priv.0
_ZL24TransplantArrayItemAliasP8XMP_NodemS0_.lto_priv.0.cold
_ZL24TransplantArrayItemAliasP8XMP_NodemS0_RN7XMPMeta17ErrorCallbackInfoE
_ZL24TransplantArrayItemAliasP8XMP_NodemS0_RN7XMPMeta17ErrorCallbackInfoE.cold
_ZL24binary_read_one_responseP21memcached_instance_stPcmP19memcached_result_st
_ZL24start_server_classic_auxPKc
_ZL24test_ascii_flush_noreplyv
_ZL24test_binary_replace_implPKch
_ZL24test_binary_replace_implPKch.cold
_ZL25CodePoint_from_UTF8_MultiPKhmPjPm.lto_priv.0
_ZL25CodePoint_from_UTF8_MultiPKhmPjPm.lto_priv.0.cold
_ZL25StartNamespaceDeclHandlerPvPKcS1_
_ZL25StartNamespaceDeclHandlerPvPKcS1_.lto_priv.0
_ZL25compare_chewing_less_thanRKN6pinyin20chewing_index_item_tES2_
_ZL25jackctl_create_param_listPK7_JSListPPS_
_ZL25test_ascii_append_noreplyv
_ZL25test_ascii_delete_noreplyv
_ZL26RDF_LiteralPropertyElementP8XMP_NodeRK8XML_Nodeb
_ZL26RDF_LiteralPropertyElementP8XMP_NodeRK8XML_Nodeb.cold
_ZL26SerializePrettyRDFPropertyPK8XMP_NodeRNSt7__cxx1112basic_stringIcSt11char_traitsIcESaIcEEEPKcSA_ib.lto_priv.0
_ZL26SerializePrettyRDFPropertyPK8XMP_NodeRNSt7__cxx1112basic_stringIcSt11char_traitsIcESaIcEEEPKcSA_ib.lto_priv.0.cold
_ZL26config_ensure_buffer_stackPv
_ZL26increment_decrement_by_key23protocol_binary_commandP12memcached_stPKcmS3_mmPm
_ZL26test_ascii_prepend_noreplyv
_ZL26test_ascii_replace_noreplyv
_ZL27ExportTIFF_StandardMappingshP12TIFF_ManagerRK8TXMPMetaINSt7__cxx1112basic_stringIcSt11char_traitsIcESaIcEEEE.lto_priv.0
_ZL27ExportTIFF_StandardMappingshP12TIFF_ManagerRK8TXMPMetaINSt7__cxx1112basic_stringIcSt11char_traitsIcESaIcEEEE.lto_priv.0.cold
_ZL27FillClipAssociatedResourcesPSt6vectorINSt7__cxx1112basic_stringIcSt11char_traitsIcESaIcEEESaIS5_EERS5_S9_
_ZL27FillClipAssociatedResourcesPSt6vectorINSt7__cxx1112basic_stringIcSt11char_traitsIcESaIcEEESaIS5_EERS5_S9_.cold
_ZL27ImportTIFF_StandardMappingshRK12TIFF_ManagerP8TXMPMetaINSt7__cxx1112basic_stringIcSt11char_traitsIcESaIcEEEE
_ZL27ImportTIFF_StandardMappingshRK12TIFF_ManagerP8TXMPMetaINSt7__cxx1112basic_stringIcSt11char_traitsIcESaIcEEEE.cold
_ZL27RemoveTimeStampFromClipNameRNSt7__cxx1112basic_stringIcSt11char_traitsIcESaIcEEE.lto_priv.0
_ZL27_compute_frequency_of_itemsP17_pinyin_context_tjPN6pinyin10SingleGramEP7_GArray
_ZL27_compute_frequency_of_itemsP17_pinyin_context_tjPN6pinyin10SingleGramEP7_GArray.cold
_ZL27do_validate_response_headerP8responseht
_ZL27do_validate_response_headerP8responseht.cold
_ZL27langdef_ensure_buffer_stackv
_ZL27stylesc_ensure_buffer_stackv
_ZL28ProcessingInstructionHandlerPvPKcS1_
_ZL28ProcessingInstructionHandlerPvPKcS1_.cold
_ZL28ProcessingInstructionHandlerPvPKcS1_.lto_priv.0
_ZL28ProcessingInstructionHandlerPvPKcS1_.lto_priv.0.cold
_ZL28SerializeCompactRDFAttrPropsPK8XMP_NodeRNSt7__cxx1112basic_stringIcSt11char_traitsIcESaIcEEEPKcSA_i
_ZL28SerializeCompactRDFAttrPropsPK8XMP_NodeRNSt7__cxx1112basic_stringIcSt11char_traitsIcESaIcEEEPKcSA_i.lto_priv.0
_ZL28SerializeCompactRDFElemPropsPK8XMP_NodeRNSt7__cxx1112basic_stringIcSt11char_traitsIcESaIcEEEPKcSA_i
_ZL28SerializeCompactRDFElemPropsPK8XMP_NodeRNSt7__cxx1112basic_stringIcSt11char_traitsIcESaIcEEEPKcSA_i.cold
_ZL28SerializeCompactRDFElemPropsPK8XMP_NodeRNSt7__cxx1112basic_stringIcSt11char_traitsIcESaIcEEEPKcSA_i.lto_priv.0
_ZL28SerializeCompactRDFElemPropsPK8XMP_NodeRNSt7__cxx1112basic_stringIcSt11char_traitsIcESaIcEEEPKcSA_i.lto_priv.0.cold
_ZL28printAndDeleteCapabilityListPKcPPc
_ZL29SerializeCanonicalRDFPropertyPK8XMP_NodeRNSt7__cxx1112basic_stringIcSt11char_traitsIcESaIcEEEPKcSA_ibb
_ZL29SerializeCanonicalRDFPropertyPK8XMP_NodeRNSt7__cxx1112basic_stringIcSt11char_traitsIcESaIcEEEPKcSA_ibb.cold
_ZL29compare_item_with_sort_optionPKvS0_Pv
_ZL29jackctl_add_driver_parametersP14jackctl_driver.constprop.0
_ZL30outlangdef_ensure_buffer_stackv
_ZL30stylecsssc_ensure_buffer_stackv
_ZL31CodePoint_to_UTF16Nat_SurrogatejPtmPm.part.0
_ZL31CodePoint_to_UTF16Nat_SurrogatejPtmPm.part.0.lto_priv.0
_ZL31CodePoint_to_UTF16Swp_SurrogatejPtmPm.part.0
_ZL31CodePoint_to_UTF16Swp_SurrogatejPtmPm.part.0.lto_priv.0
_ZL31hunspell_dict_is_word_characterP16str_enchant_dictjm
_ZL32_compute_phrase_strings_of_itemsP18_pinyin_instance_tP7_GArray.isra.0
_ZL32_compute_phrase_strings_of_itemsP18_pinyin_instance_tP7_GArray.isra.0.cold
_ZL33CodePoint_from_UTF16Nat_SurrogatePKtmPjPm
_ZL33CodePoint_from_UTF16Nat_SurrogatePKtmPjPm.cold
_ZL33CodePoint_from_UTF16Nat_SurrogatePKtmPjPm.lto_priv.0
_ZL33CodePoint_from_UTF16Nat_SurrogatePKtmPjPm.lto_priv.0.cold
_ZL33CodePoint_from_UTF16Swp_SurrogatePKtmPjPm
_ZL33CodePoint_from_UTF16Swp_SurrogatePKtmPjPm.cold
_ZL33CodePoint_from_UTF16Swp_SurrogatePKtmPjPm.lto_priv.0
_ZL33CodePoint_from_UTF16Swp_SurrogatePKtmPjPm.lto_priv.0.cold
_ZL39compare_indexed_item_with_phrase_stringPKvS0_Pv.lto_priv.0
_ZL39hunspell_dict_get_extra_word_charactersP16str_enchant_dict
_ZL39increment_decrement_with_initial_by_key23protocol_binary_commandP12memcached_stPKcmS3_mmmlPm
_ZL41_remove_duplicated_items_by_phrase_stringP18_pinyin_instance_tP7_GArray.isra.0
_ZL4GCTMP9lua_State
_ZL4_setR12memcached_stP18memcached_string_tR18memcached_return_tPKci.lto_priv.0
_ZL4_setR21memcached_instance_stR12memcached_st
_ZL4addkP9FuncStateP6TValueS2_
_ZL4bodyP8LexStateP7expdescii
_ZL4condP8LexState
_ZL4exp1P8LexState
_ZL4exprP8LexStateP7expdesc
_ZL4f_gcP9lua_State
_ZL4gctmP9lua_State
_ZL4getFP9lua_StatePvPm
_ZL4getSP9lua_StatePvPm
_ZL4llexP8LexStateP7SemInfo
_ZL4pingPK12memcached_stPK21memcached_instance_stPv
_ZL4pingPK12memcached_stPK21memcached_instance_stPv.cold
_ZL4saveP8LexStatei.lto_priv.0
_ZL4sortP9lua_State
_ZL5Flip8m.lto_priv.0.lto_priv.0
_ZL5Flip8m.lto_priv.1.lto_priv.0
_ZL5alignRSo
_ZL5arithP9lua_StateiPKc
_ZL5blockP8LexState
_ZL5boxgcP9lua_State
_ZL5errorP9LoadStatePKc.lto_priv.0
_ZL5errorRNSt7__cxx1112basic_stringIcSt11char_traitsIcESaIcEEEPKcS7_S7_i
_ZL5errorRNSt7__cxx1112basic_stringIcSt11char_traitsIcESaIcEEEPKcS7_S7_i.cold
_ZL5hookfP9lua_StateP9lua_Debug
_ZL5matchP10MatchStatePKcS2_
_ZL5panicP9lua_State
_ZL5printPK12memcached_stPKcmPv
_ZL5test2P2RNPKc
_ZL5tmoveP9lua_State
_ZL5tonumP9lua_Statei
_ZL5tpackP9lua_State
_ZL6EncodePhPjj
_ZL6atomicP9lua_State
_ZL6f_callP9lua_StatePv
_ZL6f_readP9lua_State
_ZL6f_seekP9lua_State
_ZL6g_readP9lua_StateP8_IO_FILEi
_ZL6gmatchP9lua_State
_ZL6isKstrP9FuncStateP7expdesc
_ZL6outputRSoRKSt6vectorI17re_pattern_bufferSaIS1_EEPKcRKNSt7__cxx1112basic_stringIcSt11char_traitsIcESaIcEEE
_ZL6outputRSoRKSt6vectorI17re_pattern_bufferSaIS1_EEPKcRKNSt7__cxx1112basic_stringIcSt11char_traitsIcESaIcEEE.cold
_ZL6outputRSoRKSt6vectorI17re_pattern_bufferSaIS1_EEPKci
_ZL6outputRSoRKSt6vectorI17re_pattern_bufferSaIS1_EEPKci.cold
_ZL6unrollP9lua_StatePv
_ZL6utflenP9lua_State
_ZL6writerP9lua_StatePKvmPv
_ZL6yindexP8LexStateP7expdesc
_ZL7SetNodeP8XMP_NodePKcj
_ZL7SetNodeP8XMP_NodePKcj.cold
_ZL7SetNodeP8XMP_NodePKcj.lto_priv.0
_ZL7SetNodeP8XMP_NodePKcj.lto_priv.0.cold
_ZL7auxsortP9lua_Statejjj
_ZL7counterPK12memcached_stP19memcached_result_stPv
_ZL7errfileP9lua_StatePKci
_ZL7exp2regP9FuncStateP7expdesci
_ZL7explistP8LexStateP7expdesc
_ZL7f_closeP9lua_State
_ZL7f_flushP9lua_State
_ZL7f_linesP9lua_State
_ZL7f_writeP9lua_State
_ZL7fixjumpP9FuncStateii.lto_priv.0
_ZL7forbodyP8LexStateiiii
_ZL7forprepP9lua_StateP10StackValue.lto_priv.0
_ZL7freeexpP9FuncStateP7expdesc.lto_priv.0
_ZL7freeobjP9lua_StateP8GCObject.lto_priv.0
_ZL7freeregP9FuncStatei
_ZL7g_writeP9lua_StateP8_IO_FILEi
_ZL7genlinkP12global_StateP8GCObject
_ZL7genlinkP12global_StateP8GCObject.cold
_ZL7gethexaP8LexState
_ZL7getjumpP9FuncStatei.isra.0
_ZL7io_openP9lua_State
_ZL7io_readP9lua_State
_ZL7io_typeP9lua_State
_ZL7isSCintP7expdesc.lto_priv.0
_ZL7l_allocPvS_mm
_ZL7memstatRK14client_optionsR12memcached_stPKc
_ZL7memstatRK14client_optionsR12memcached_stPKc.cold
_ZL7os_dateP9lua_State
_ZL7os_exitP9lua_State
_ZL7os_timeP9lua_State
_ZL7packintP11luaL_Bufferyiii
_ZL7pushstrP6BuffFSPKcm
_ZL7rethookP9lua_StateP8CallInfoi
_ZL7setpathP9lua_StatePKcS2_S2_
_ZL7str_lenP9lua_State
_ZL7str_repP9lua_State
_ZL7str_subP9lua_State
_ZL7stringKP9FuncStateP7TString
_ZL7subexprP8LexStateP7expdesci
_ZL7tconcatP9lua_State
_ZL7tinsertP9lua_State
_ZL7tremoveP9lua_State
_ZL7tunpackP9lua_State
_ZL7utfcharP9lua_State
_ZL7varinfoP9lua_StatePK6TValue.lto_priv.0
_ZL7warnfonPvPKci
_ZL8DoPutXMPP8XMPFilesRK8TXMPMetaINSt7__cxx1112basic_stringIcSt11char_traitsIcESaIcEEEEb
_ZL8DoPutXMPP8XMPFilesRK8TXMPMetaINSt7__cxx1112basic_stringIcSt11char_traitsIcESaIcEEEEb.cold
_ZL8add_fileRSt6vectorI10memcp_fileSaIS0_EERK14client_optionsPc
_ZL8add_fileRSt6vectorI10memcp_fileSaIS0_EERK14client_optionsPc.cold
_ZL8addfieldP9lua_StateP11luaL_Bufferx
_ZL8checktabP9lua_Stateii.part.0
_ZL8classendP10MatchStatePKc
_ZL8codeABRKP9FuncState6OpCodeiiP7expdesc.lto_priv.0
_ZL8db_debugP9lua_State
_ZL8do_iconvP7_GIConvPKc
_ZL8dumpSizeP9DumpStatem
_ZL8entergenP9lua_StateP12global_State
_ZL8enterincP12global_State
_ZL8esccheckP8LexStateiPKc
_ZL8f_parserP9lua_StatePv
_ZL8fieldselP8LexStateP7expdesc
_ZL8findfileP9lua_StatePKcS2_S2_.constprop.0
_ZL8freeexpsP9FuncStateP7expdescS2_.lto_priv.0
_ZL8freeregsP9FuncStateii
_ZL8funcargsP8LexStateP7expdesci
_ZL8g_iofileP9lua_StatePKcS2_
_ZL8getIndexRKN8IFF_RIFF15IChunkContainerERKNS_5ChunkE
_ZL8getIndexRKN8IFF_RIFF15IChunkContainerERKNS_5ChunkE.cold
_ZL8getfieldP9lua_StatePKcii
_ZL8intarithP9lua_Stateixx
_ZL8io_closeP9lua_State
_ZL8io_flushP21memcached_instance_stbR18memcached_return_t
_ZL8io_flushP9lua_State
_ZL8io_inputP9lua_State
_ZL8io_linesP9lua_State
_ZL8io_popenP9lua_State
_ZL8io_writeP9lua_State
_ZL8iter_auxP9lua_Statei
_ZL8l_strcmpPK7TStringS1_.lto_priv.0
_ZL8lexerrorP8LexStatePKci.lto_priv.0
_ZL8loadByteP9LoadState.lto_priv.0
_ZL8load_auxP9lua_Stateii
_ZL8loadfuncP9lua_StatePKcS2_
_ZL8math_absP9lua_State.lto_priv.0
_ZL8math_cosP9lua_State.lto_priv.0
_ZL8math_degP9lua_State
_ZL8math_expP9lua_State
_ZL8math_logP9lua_State
_ZL8math_maxP9lua_State
_ZL8math_minP9lua_State
_ZL8math_powP9lua_State
_ZL8math_radP9lua_State
_ZL8math_sinP9lua_State.lto_priv.0
_ZL8math_tanP9lua_State.lto_priv.0
_ZL8math_ultP9lua_State
_ZL8numarithP9lua_Stateidd
_ZL8os_clockP9lua_State
_ZL8read_allP9lua_StateP8_IO_FILE
_ZL8recfieldP8LexStateP11ConsControl
_ZL8reglevelP9FuncStatei
_ZL8set_dataP17memcached_stat_stPKcS2_.isra.0
_ZL8setpauseP12global_State
_ZL8skip_sepP8LexState
_ZL8statlistP8LexState
_ZL8str_byteP9lua_State
_ZL8str_charP9lua_State
_ZL8str_dumpP9lua_State
_ZL8str_findP9lua_State
_ZL8str_gsubP9lua_State
_ZL8str_packP9lua_State
_ZL8swapexpsP7expdescS0_.lto_priv.0
_ZL8sweepgenP9lua_StateP12global_StatePP8GCObjectS4_S5_.isra.0
_ZL8testnextP8LexStatei
_ZL8tryagainP9lua_StatePvmm
_ZL8warnfoffPvPKci
_ZL9GatherIntPKcPmS0_
_ZL9GatherIntPKcPmS0_.cold
_ZL9GatherIntPKcm
_ZL9GetNumberPPKcs
_ZL9MD5UpdateP7MD5_CTXPKhj
_ZL9_io_writeP21memcached_instance_stPKvmbRm.lto_priv.0
_ZL9addlenmodPcPKc
_ZL9arith_addP9lua_State
_ZL9arith_divP9lua_State
_ZL9arith_modP9lua_State
_ZL9arith_mulP9lua_State
_ZL9arith_powP9lua_State
_ZL9arith_subP9lua_State
_ZL9arith_unmP9lua_State
_ZL9aux_linesP9lua_Statei
_ZL9auxresumeP9lua_StateS0_i
_ZL9auxsetstrP9lua_StatePK6TValuePKc
_ZL9auxstatusP9lua_StateS0_
_ZL9callbinTMP9lua_StatePK6TValueS3_P10StackValue3TMS.lto_priv.0
_ZL9checknextP8LexStatei
_ZL9codearithP9FuncState6BinOprP7expdescS3_ii.lto_priv.0
_ZL9codepointP9lua_State
_ZL9copy2buffP10StackValueiPc
_ZL9dothecallP9lua_StatePv
_ZL9f_setvbufP9lua_State
_ZL9findfieldP9lua_Stateii
_ZL9freestackP9lua_State.part.0.lto_priv.0
_ZL9getoptionP6HeaderPPKcPi
_ZL9io_fcloseP9lua_State
_ZL9io_outputP9lua_State
_ZL9io_pcloseP9lua_State
_ZL9ipairsauxP9lua_State
_ZL9loadBlockP9LoadStatePvm.lto_priv.0
_ZL9luaB_loadP9lua_State
_ZL9luaB_nextP9lua_State
_ZL9luaB_typeP9lua_State
_ZL9luaB_warnP9lua_State
_ZL9matchherePKcS0_
_ZL9math_acosP9lua_State.lto_priv.0
_ZL9math_asinP9lua_State.lto_priv.0
_ZL9math_atanP9lua_State.lto_priv.0
_ZL9math_ceilP9lua_State
_ZL9math_coshP9lua_State
_ZL9math_fmodP9lua_State
_ZL9math_modfP9lua_State
_ZL9math_sinhP9lua_State
_ZL9math_sqrtP9lua_State
_ZL9math_tanhP9lua_State
_ZL9math_typeP9lua_State
_ZL9open_funcP8LexStateP9FuncStateP8BlockCnt
_ZL9opencheckP9lua_StatePKcS2_
_ZL9os_getenvP9lua_State
_ZL9os_removeP9lua_State
_ZL9os_renameP9lua_State
_ZL9pairscontP9lua_Stateil
_ZL9read_lineP9lua_StateP8_IO_FILEi
_ZL9resizeboxP9lua_Stateim
_ZL9set_errorRK9XMP_Error
_ZL9singlevarP8LexStateP7expdesc
_ZL9sort_compP9lua_Stateii
_ZL9statementP8LexState
_ZL9str_lowerP9lua_State
_ZL9str_matchP9lua_State
_ZL9str_upperP9lua_State
_ZL9sweep2oldP9lua_StatePP8GCObject
_ZL9sweepstepP9lua_StateP12global_StateiPP8GCObject
_ZL9to_stringPKc
_ZL9tonumeralPK7expdescP6TValue.lto_priv.0
_ZL9unpackintP9lua_StatePKciii
_ZL9warnfcontPvPKci
_ZN10ActaParser11checkHeaderEP10MWAWHeaderb
_ZN10ActaParser11checkHeaderEP10MWAWHeaderb.cold
_ZN10ActaParser13readEndDataV3Ev
_ZN10ActaParser13readEndDataV3Ev.cold
_ZN10ActaParser13readRSRCZonesEv.isra.0
_ZN10ActaParser13readRSRCZonesEv.isra.0.cold
_ZN10ActaParser14createDocumentEPN10librevenge17RVNGTextInterfaceE
_ZN10ActaParser14createDocumentEPN10librevenge17RVNGTextInterfaceE.cold
_ZN10ActaParser16sendHeaderFooterEv
_ZN10ActaParser16sendHeaderFooterEv.cold
_ZN10ActaParser4initEv
_ZN10ActaParser4initEv.cold
_ZN10ActaParser5parseEPN10librevenge17RVNGTextInterfaceE
_ZN10ActaParser5parseEPN10librevenge17RVNGTextInterfaceE.cold
_ZN10ActaParserD0Ev
_ZN10ActaParserD1Ev
_ZN10ActaParserD2Ev
_ZN10DocMkrText11createZonesEv
_ZN10DocMkrText11createZonesEv.cold
_ZN10DocMkrText18updatePageSpanListERSt6vectorI12MWAWPageSpanSaIS1_EE.constprop.0
_ZN10DocMkrText18updatePageSpanListERSt6vectorI12MWAWPageSpanSaIS1_EE.constprop.0.cold
_ZN10DocMkrText7sendTOCEv
_ZN10DocMkrText7sendTOCEv.cold
_ZN10DocMkrText8sendTextERKN18DocMkrTextInternal4ZoneE
_ZN10DocMkrText8sendTextERKN18DocMkrTextInternal4ZoneE.cold
_ZN10DocMkrTextD0Ev
_ZN10DocMkrTextD1Ev
_ZN10DocMkrTextD2Ev
_ZN10EDocParser11checkHeaderEP10MWAWHeaderb
_ZN10EDocParser11checkHeaderEP10MWAWHeaderb.cold
_ZN10EDocParser11createZonesEv
_ZN10EDocParser11createZonesEv.cold
_ZN10EDocParser11sendPictureEib.isra.0
_ZN10EDocParser11sendPictureEib.isra.0.cold
_ZN10EDocParser5parseEPN10librevenge17RVNGTextInterfaceE
_ZN10EDocParser5parseEPN10librevenge17RVNGTextInterfaceE.cold
_ZN10EDocParser9sendIndexEv.isra.0
_ZN10EDocParser9sendIndexEv.isra.0.cold
_ZN10EDocParserC1ERKSt10shared_ptrI15MWAWInputStreamERKS0_I14MWAWRSRCParserEP10MWAWHeader
_ZN10EDocParserC2ERKSt10shared_ptrI15MWAWInputStreamERKS0_I14MWAWRSRCParserEP10MWAWHeader
_ZN10EDocParserC2ERKSt10shared_ptrI15MWAWInputStreamERKS0_I14MWAWRSRCParserEP10MWAWHeader.cold
_ZN10EDocParserD0Ev
_ZN10EDocParserD1Ev
_ZN10EDocParserD2Ev
_ZN10IReconcile14convertToASCIIERKNSt7__cxx1112basic_stringIcSt11char_traitsIcESaIcEEERS5_
_ZN10IReconcile17exportXMPToNativeER9IMetadataR8TXMPMetaINSt7__cxx1112basic_stringIcSt11char_traitsIcESaIcEEEEPK20MetadataPropertyInfoPSt6vectorISt4pairIPKcSH_ESaISI_EE
_ZN10IReconcile17exportXMPToNativeER9IMetadataR8TXMPMetaINSt7__cxx1112basic_stringIcSt11char_traitsIcESaIcEEEEPK20MetadataPropertyInfoPSt6vectorISt4pairIPKcSH_ESaISI_EE.cold
_ZN10IReconcile17importNativeToXMPER8TXMPMetaINSt7__cxx1112basic_stringIcSt11char_traitsIcESaIcEEEERK9IMetadataPK20MetadataPropertyInfob
_ZN10IReconcile17importNativeToXMPER8TXMPMetaINSt7__cxx1112basic_stringIcSt11char_traitsIcESaIcEEEERK9IMetadataPK20MetadataPropertyInfob.cold
_ZN10MWAWBorderC1ERKS_
_ZN10MWAWBorderC1Ev
_ZN10MWAWBorderC2ERKS_.lto_priv.0
_ZN10MWAWBorderC2ERKS_.lto_priv.0.cold
_ZN10MWAWBorderC2Ev.lto_priv.0
_ZN10MWAWBorderaSEOS_.isra.0
_ZN10MWAWBorderaSERKS_.isra.0
_ZN10MWAWHeader15constructHeaderESt10shared_ptrI15MWAWInputStreamES0_I14MWAWRSRCParserE.isra.0
_ZN10MWAWHeader15constructHeaderESt10shared_ptrI15MWAWInputStreamES0_I14MWAWRSRCParserE.isra.0.cold
_ZN10MWAWHeaderD0Ev
_ZN10MWAWHeaderD1Ev
_ZN10MWAWHeaderD2Ev
_ZN10MWAWParser15setTextListenerERSt10shared_ptrI16MWAWTextListenerE
_ZN10MWAWParser17resetTextListenerEv
_ZN10MWAWParser18setGraphicListenerERSt10shared_ptrI19MWAWGraphicListenerE
_ZN10MWAWParser20resetGraphicListenerEv
_ZN10MWAWParser24resetSpreadsheetListenerEv
_ZN10MWAWParserC2EN15MWAWParserState4TypeERKSt10shared_ptrI15MWAWInputStreamERKS2_I14MWAWRSRCParserEP10MWAWHeader
_ZN10MWAWParserC2EN15MWAWParserState4TypeERKSt10shared_ptrI15MWAWInputStreamERKS2_I14MWAWRSRCParserEP10MWAWHeader.cold
_ZN10MoreParser10readColorsEl
_ZN10MoreParser10readColorsEl.cold
_ZN10MoreParser11checkHeaderEP10MWAWHeaderb
_ZN10MoreParser11checkHeaderEP10MWAWHeaderb.cold
_ZN10MoreParser11createZonesEv
_ZN10MoreParser11createZonesEv.cold
_ZN10MoreParser11readPatternElRN10MoreStruct7PatternE
_ZN10MoreParser11readPatternElRN10MoreStruct7PatternE.cold
_ZN10MoreParser12readBacksideElRNSt7__cxx1112basic_stringIcSt11char_traitsIcESaIcEEE
_ZN10MoreParser12readBacksideElRNSt7__cxx1112basic_stringIcSt11char_traitsIcESaIcEEE.cold
_ZN10MoreParser12readUnkn9SubEl
_ZN10MoreParser12readUnkn9SubEl.cold
_ZN10MoreParser13checkAndStoreERK9MWAWEntry.isra.0
_ZN10MoreParser13checkAndStoreERK9MWAWEntry.isra.0.cold
_ZN10MoreParser13readZonesListEv
_ZN10MoreParser13readZonesListEv.cold
_ZN10MoreParser14createDocumentEPN10librevenge17RVNGTextInterfaceE
_ZN10MoreParser14createDocumentEPN10librevenge17RVNGTextInterfaceE.cold
_ZN10MoreParser16checkAndFindSizeER9MWAWEntry
_ZN10MoreParser4initEv
_ZN10MoreParser4initEv.cold
_ZN10MoreParser5parseEPN10librevenge17RVNGTextInterfaceE
_ZN10MoreParser5parseEPN10librevenge17RVNGTextInterfaceE.cold
_ZN10MoreParser9readSlideERK9MWAWEntry
_ZN10MoreParser9readSlideERK9MWAWEntry.cold
_ZN10MoreParserD0Ev
_ZN10MoreParserD1Ev
_ZN10MoreParserD2Ev
_ZN10MsWks3Text11createZonesEib
_ZN10MsWks3Text11createZonesEib.cold
_ZN10MsWks3Text4sendERN18MsWks3TextInternal8TextZoneE8MWAWVec2IiE
_ZN10MsWks3Text4sendERN18MsWks3TextInternal8TextZoneE8MWAWVec2IiE.cold
_ZN10MsWks3Text8readFontERN18MsWks3TextInternal4FontEl
_ZN10MsWks3Text8readFontERN18MsWks3TextInternal4FontEl.cold
_ZN10MsWks3TextD0Ev
_ZN10MsWks3TextD1Ev
_ZN10MsWks3TextD2Ev
_ZN10MsWks4Text11setPropertyERKN18MsWks4TextInternal9ParagraphE
_ZN10MsWks4Text11setPropertyERKN18MsWks4TextInternal9ParagraphE.cold
_ZN10MsWks4Text13defDataParserESt10shared_ptrI15MWAWInputStreamEllliRNSt7__cxx1112basic_stringIcSt11char_traitsIcESaIcEEE
_ZN10MsWks4Text13pgdDataParserESt10shared_ptrI15MWAWInputStreamEllliRNSt7__cxx1112basic_stringIcSt11char_traitsIcESaIcEEE
_ZN10MsWks4Text13readParagraphERSt10shared_ptrI15MWAWInputStreamElRiRNSt7__cxx1112basic_stringIcSt11char_traitsIcESaIcEEE
_ZN10MsWks4Text13readParagraphERSt10shared_ptrI15MWAWInputStreamElRiRNSt7__cxx1112basic_stringIcSt11char_traitsIcESaIcEEE.cold
_ZN10MsWks4Text14eobjDataParserESt10shared_ptrI15MWAWInputStreamEllliRNSt7__cxx1112basic_stringIcSt11char_traitsIcESaIcEEE
_ZN10MsWks4Text14eobjDataParserESt10shared_ptrI15MWAWInputStreamEllliRNSt7__cxx1112basic_stringIcSt11char_traitsIcESaIcEEE.cold
_ZN10MsWks4Text14ftntDataParserESt10shared_ptrI15MWAWInputStreamEllliRNSt7__cxx1112basic_stringIcSt11char_traitsIcESaIcEEE
_ZN10MsWks4Text14ftntDataParserESt10shared_ptrI15MWAWInputStreamEllliRNSt7__cxx1112basic_stringIcSt11char_traitsIcESaIcEEE.cold
_ZN10MsWks4Text14readStructuresESt10shared_ptrI15MWAWInputStreamEb
_ZN10MsWks4Text14readStructuresESt10shared_ptrI15MWAWInputStreamEb.cold
_ZN10MsWks4Text14toknDataParserESt10shared_ptrI15MWAWInputStreamEllliRNSt7__cxx1112basic_stringIcSt11char_traitsIcESaIcEEE
_ZN10MsWks4Text14toknDataParserESt10shared_ptrI15MWAWInputStreamEllliRNSt7__cxx1112basic_stringIcSt11char_traitsIcESaIcEEE.cold
_ZN10MsWks4Text7readFDPERSt10shared_ptrI15MWAWInputStreamERK9MWAWEntryRSt6vectorINS_7DataFODESaIS8_EEMS_FbS3_lRiRNSt7__cxx1112basic_stringIcSt11char_traitsIcESaIcEEEE.constprop.0.isra.0
_ZN10MsWks4Text7readFDPERSt10shared_ptrI15MWAWInputStreamERK9MWAWEntryRSt6vectorINS_7DataFODESaIS8_EEMS_FbS3_lRiRNSt7__cxx1112basic_stringIcSt11char_traitsIcESaIcEEEE.constprop.0.isra.0.cold
_ZN10MsWks4Text7readPLCESt10shared_ptrI15MWAWInputStreamERK9MWAWEntryRSt6vectorIlSaIlEES9_MS_FbS2_llliRNSt7__cxx1112basic_stringIcSt11char_traitsIcESaIcEEEE.constprop.0
_ZN10MsWks4Text7readPLCESt10shared_ptrI15MWAWInputStreamERK9MWAWEntryRSt6vectorIlSaIlEES9_MS_FbS2_llliRNSt7__cxx1112basic_stringIcSt11char_traitsIcESaIcEEEE.constprop.0.cold
_ZN10MsWks4Text8readFontERSt10shared_ptrI15MWAWInputStreamElRiRNSt7__cxx1112basic_stringIcSt11char_traitsIcESaIcEEE
_ZN10MsWks4Text8readFontERSt10shared_ptrI15MWAWInputStreamElRiRNSt7__cxx1112basic_stringIcSt11char_traitsIcESaIcEEE.cold
_ZN10MsWks4Text8readTextESt10shared_ptrI15MWAWInputStreamERK9MWAWEntryb.isra.0
_ZN10MsWks4Text8readTextESt10shared_ptrI15MWAWInputStreamERK9MWAWEntryb.isra.0.cold
_ZN10MsWks4TextD1Ev
_ZN10MsWks4TextD2Ev
_ZN10MsWks4Zone11createZonesEb
_ZN10MsWks4Zone11createZonesEb.cold
_ZN10MsWks4Zone16readContentZonesERK9MWAWEntryb
_ZN10MsWks4Zone16readContentZonesERK9MWAWEntryb.cold
_ZN10MsWks4Zone7readDOPESt10shared_ptrI15MWAWInputStreamERK9MWAWEntryR12MWAWPageSpan
_ZN10MsWks4Zone7readDOPESt10shared_ptrI15MWAWInputStreamERK9MWAWEntryR12MWAWPageSpan.cold
_ZN10MsWks4ZoneC1ERKSt10shared_ptrI15MWAWInputStreamERKS0_I15MWAWParserStateER10MWAWParserRKNSt7__cxx1112basic_stringIcSt11char_traitsIcESaIcEEE
_ZN10MsWks4ZoneC2ERKSt10shared_ptrI15MWAWInputStreamERKS0_I15MWAWParserStateER10MWAWParserRKNSt7__cxx1112basic_stringIcSt11char_traitsIcESaIcEEE
_ZN10MsWks4ZoneC2ERKSt10shared_ptrI15MWAWInputStreamERKS0_I15MWAWParserStateER10MWAWParserRKNSt7__cxx1112basic_stringIcSt11char_traitsIcESaIcEEE.cold
_ZN10MsWks4ZoneD1Ev
_ZN10MsWks4ZoneD2Ev
_ZN10MsWksGraph11sendObjectsERKNS_8SendDataE
_ZN10MsWksGraph11sendObjectsERKNS_8SendDataE.cold
_ZN10MsWksGraph14readPictHeaderERN18MsWksGraphInternal4ZoneE
_ZN10MsWksGraph14readPictHeaderERN18MsWksGraphInternal4ZoneE.cold
_ZN10MsWksGraph14sendGroupChildEiRK12MWAWPosition
_ZN10MsWksGraph14sendGroupChildEiRK12MWAWPosition.cold
_ZN10MsWksGraph15getEntryPictureEiR9MWAWEntrybi
_ZN10MsWksGraph15getEntryPictureEiR9MWAWEntrybi.cold
_ZN10MsWksGraph16computePositionsEiRKSt6vectorIiSaIiEES4_.isra.0
_ZN10MsWksGraph4sendEiRK12MWAWPosition
_ZN10MsWksGraph4sendEiRK12MWAWPosition.cold
_ZN10MsWksGraph5StyleD0Ev
_ZN10MsWksGraph5StyleD1Ev
_ZN10MsWksGraph5StyleD2Ev
_ZN10MsWksGraph6readRBESt10shared_ptrI15MWAWInputStreamERK9MWAWEntryi
_ZN10MsWksGraph6readRBESt10shared_ptrI15MWAWInputStreamERK9MWAWEntryi.cold
_ZN10MsWksGraph7sendAllEib
_ZN10MsWksGraph7sendAllEib.cold
_ZN10MsWksGraph8readTextERN18MsWksGraphInternal7TextBoxE
_ZN10MsWksGraph8readTextERN18MsWksGraphInternal7TextBoxE.cold
_ZN10MsWksGraphD0Ev
_ZN10MsWksGraphD1Ev
_ZN10MsWksGraphD2Ev
_ZN10MsWksTable9readTableEiiiRKN10MsWksGraph5StyleE
_ZN10MsWksTable9readTableEiiiRKN10MsWksGraph5StyleE.cold
_ZN10MsWksTable9sendTableEi
_ZN10MsWksTable9sendTableEi.cold
_ZN10MsWksTableD0Ev
_ZN10MsWksTableD1Ev
_ZN10MsWksTableD2Ev
_ZN10MsWrdEntryD0Ev
_ZN10MsWrdEntryD1Ev
_ZN10MsWrdEntryD2Ev
_ZN10RDF_Parser11NodeElementEP8XMP_NodeRK8XML_Nodeb
_ZN10RDF_Parser11NodeElementEP8XMP_NodeRK8XML_Nodeb.cold
_ZN10RDF_Parser12AddChildNodeEP8XMP_NodeRK8XML_NodePKcb
_ZN10RDF_Parser12AddChildNodeEP8XMP_NodeRK8XML_NodePKcb.cold
_ZN10RDF_Parser16AddQualifierNodeEP8XMP_NodeRK8XML_Node.isra.0
_ZN10RDF_Parser16AddQualifierNodeEP8XMP_NodeRK8XML_Node.isra.0.cold
_ZN10RDF_Parser16AddQualifierNodeEP8XMP_NodeRKNSt7__cxx1112basic_stringIcSt11char_traitsIcESaIcEEES9_.isra.0
_ZN10RDF_Parser16AddQualifierNodeEP8XMP_NodeRKNSt7__cxx1112basic_stringIcSt11char_traitsIcESaIcEEES9_.isra.0.cold
_ZN10RDF_Parser18FixupQualifiedNodeEP8XMP_Node
_ZN10RDF_Parser18FixupQualifiedNodeEP8XMP_Node.cold
_ZN10RDF_Parser19PropertyElementListEP8XMP_NodeRK8XML_Nodeb
_ZN10RDF_Parser19PropertyElementListEP8XMP_NodeRK8XML_Nodeb.cold
_ZN10RDF_Parser20EmptyPropertyElementEP8XMP_NodeRK8XML_Nodeb
_ZN10RDF_Parser20EmptyPropertyElementEP8XMP_NodeRK8XML_Nodeb.cold
_ZN10RDF_Parser22LiteralPropertyElementEP8XMP_NodeRK8XML_Nodeb
_ZN10RDF_Parser22LiteralPropertyElementEP8XMP_NodeRK8XML_Nodeb.cold
_ZN10SheetStyle6addRowERKN10librevenge16RVNGPropertyListE
_ZN10SheetStyle6addRowERKN10librevenge16RVNGPropertyListE.cold
_ZN10SheetStyleD0Ev
_ZN10SheetStyleD1Ev
_ZN10SheetStyleD2Ev
_ZN10WingzGraph11readGraphicEv
_ZN10WingzGraph11readGraphicEv.cold
_ZN10WingzGraph11readPatternERN16MWAWGraphicStyle7PatternERi
_ZN10WingzGraph11readPatternERN16MWAWGraphicStyle7PatternERi.cold
_ZN10WingzGraph11sendGraphicERKN18WingzGraphInternal7GraphicERK12MWAWPosition.isra.0
_ZN10WingzGraph11sendGraphicERKN18WingzGraphInternal7GraphicERK12MWAWPosition.isra.0.cold
_ZN10WingzGraph12readEndGroupEv
_ZN10WingzGraph12readEndGroupEv.cold
_ZN10WingzGraph12readTextZoneESt10shared_ptrIN18WingzGraphInternal7GraphicEE
_ZN10WingzGraph12readTextZoneESt10shared_ptrIN18WingzGraphInternal7GraphicEE.cold
_ZN10WingzGraph9readColorER9MWAWColorRi
_ZN10WingzGraph9readColorER9MWAWColorRi.cold
_ZN10WingzGraphD0Ev
_ZN10WingzGraphD1Ev
_ZN10WingzGraphD2Ev
_ZN10XMPScanner12InternalSnipC2ERKS0_.part.0
_ZN10XMPScanner13PacketMachine11MatchStringEPS0_PKc
_ZN10XMPScanner13PacketMachine11RecordStartEPS0_PKc
_ZN10XMPScanner13PacketMachine12FindLessThanEPS0_PKc
_ZN10XMPScanner13PacketMachine12RecognizeBOMEPS0_PKc
_ZN10XMPScanner13PacketMachine13CaptureAccessEPS0_PKc
_ZN10XMPScanner13PacketMachine14CheckPacketEndEPS0_PKc
_ZN10XMPScanner13PacketMachine14CheckPacketEndEPS0_PKc.cold
_ZN10XMPScanner13PacketMachine14MatchOpenQuoteEPS0_PKc
_ZN10XMPScanner13PacketMachine14RecordHeadAttrEPS0_PKc
_ZN10XMPScanner13PacketMachine14RecordTailAttrEPS0_PKc
_ZN10XMPScanner13PacketMachine15CaptureAttrNameEPS0_PKc
_ZN10XMPScanner13PacketMachine15CheckFinalNullsEPS0_PKc
_ZN10XMPScanner13PacketMachine15MatchCloseQuoteEPS0_PKc
_ZN10XMPScanner13PacketMachine16CaptureAttrValueEPS0_PKc
_ZN10XMPScanner13PacketMachine9MatchCharEPS0_PKc
_ZN10XMPScanner17SplitInternalSnipESt14_List_iteratorINS_12InternalSnipEEll
_ZN10XMPScanner17SplitInternalSnipESt14_List_iteratorINS_12InternalSnipEEll.cold
_ZN10XMPScanner4ScanEPKvll.part.0
_ZN10XMPScanner4ScanEPKvll.part.0.cold
_ZN10XMPScanner6ReportERSt6vectorINS_8SnipInfoESaIS1_EE
_ZN10XMPScanner9ScanErrorD0Ev
_ZN10XMPScanner9ScanErrorD1Ev
_ZN10XMPScanner9ScanErrorD2Ev
_ZN10XMPScannerC1El
_ZN10XMPScannerC2El
_ZN10XMPScannerC2El.cold
_ZN10ZWrtParser11checkHeaderEP10MWAWHeaderb
_ZN10ZWrtParser11checkHeaderEP10MWAWHeaderb.cold
_ZN10ZWrtParser11createZonesEv
_ZN10ZWrtParser11createZonesEv.cold
_ZN10ZWrtParser12getFieldListERK9MWAWEntryRSt6vectorI7ZWFieldSaIS4_EE.constprop.0
_ZN10ZWrtParser12getFieldListERK9MWAWEntryRSt6vectorI7ZWFieldSaIS4_EE.constprop.0.cold
_ZN10ZWrtParser14createDocumentEPN10librevenge17RVNGTextInterfaceE
_ZN10ZWrtParser14createDocumentEPN10librevenge17RVNGTextInterfaceE.cold
_ZN10ZWrtParser15readUnknownZoneERK9MWAWEntry.isra.0
_ZN10ZWrtParser15readUnknownZoneERK9MWAWEntry.isra.0.cold
_ZN10ZWrtParser4initEv
_ZN10ZWrtParser4initEv.cold
_ZN10ZWrtParser5parseEPN10librevenge17RVNGTextInterfaceE
_ZN10ZWrtParser5parseEPN10librevenge17RVNGTextInterfaceE.cold
_ZN10ZWrtParser7newPageEi
_ZN10ZWrtParser8readCPosERK9MWAWEntry
_ZN10ZWrtParser8readCPosERK9MWAWEntry.cold
_ZN10ZWrtParser8readSLenERK9MWAWEntry
_ZN10ZWrtParser9rsrcInputEv
_ZN10ZWrtParserD0Ev
_ZN10ZWrtParserD1Ev
_ZN10ZWrtParserD2Ev
_ZN10librevenge10RVNGString16appendEscapedXMLEPKc
_ZN10librevenge10RVNGString16appendEscapedXMLERKS0_
_ZN10librevenge10RVNGString4Iter4nextEv
_ZN10librevenge10RVNGString4Iter6rewindEv
_ZN10librevenge10RVNGString4IterC1ERKS0_
_ZN10librevenge10RVNGString4IterD1Ev
_ZN10librevenge10RVNGString5clearEv
_ZN10librevenge10RVNGString6appendEPKc
_ZN10librevenge10RVNGString6appendERKS0_
_ZN10librevenge10RVNGString6appendEc
_ZN10librevenge10RVNGString7sprintfEPKcz
_ZN10librevenge10RVNGString9escapeXMLEPKc
_ZN10librevenge10RVNGString9escapeXMLERKS0_
_ZN10librevenge10RVNGStringC1EPKc
_ZN10librevenge10RVNGStringC1ERKS0_
_ZN10librevenge10RVNGStringC1Ev
_ZN10librevenge10RVNGStringD1Ev
_ZN10librevenge10RVNGStringaSEPKc
_ZN10librevenge10RVNGStringaSERKS0_
_ZN10librevenge14RVNGBinaryData16appendBase64DataERKNS_10RVNGStringE
_ZN10librevenge14RVNGBinaryData5clearEv
_ZN10librevenge14RVNGBinaryData6appendEPKhm
_ZN10librevenge14RVNGBinaryData6appendERKS0_
_ZN10librevenge14RVNGBinaryData6appendEh
_ZN10librevenge14RVNGBinaryDataC1EPKhm
_ZN10librevenge14RVNGBinaryDataC1ERKNS_10RVNGStringE
_ZN10librevenge14RVNGBinaryDataC1ERKS0_
_ZN10librevenge14RVNGBinaryDataC1Ev
_ZN10librevenge14RVNGBinaryDataD1Ev
_ZN10librevenge14RVNGBinaryDataaSERKS0_
_ZN10librevenge16RVNGPropertyList4Iter4nextEv
_ZN10librevenge16RVNGPropertyList4Iter6rewindEv
_ZN10librevenge16RVNGPropertyList4IterC1ERKS0_
_ZN10librevenge16RVNGPropertyList4IterD1Ev
_ZN10librevenge16RVNGPropertyList5clearEv
_ZN10librevenge16RVNGPropertyList6insertEPKcPNS_12RVNGPropertyE
_ZN10librevenge16RVNGPropertyList6insertEPKcRKNS_10RVNGStringE
_ZN10librevenge16RVNGPropertyList6insertEPKcRKNS_14RVNGBinaryDataE
_ZN10librevenge16RVNGPropertyList6insertEPKcRKNS_22RVNGPropertyListVectorE
_ZN10librevenge16RVNGPropertyList6insertEPKcS2_
_ZN10librevenge16RVNGPropertyList6insertEPKcb
_ZN10librevenge16RVNGPropertyList6insertEPKcdNS_8RVNGUnitE
_ZN10librevenge16RVNGPropertyList6insertEPKci
_ZN10librevenge16RVNGPropertyList6removeEPKc
_ZN10librevenge16RVNGPropertyListC1ERKS0_
_ZN10librevenge16RVNGPropertyListC1Ev
_ZN10librevenge16RVNGPropertyListD1Ev
_ZN10librevenge16RVNGPropertyListaSERKS0_
_ZN10librevenge16RVNGStringVector6appendERKNS_10RVNGStringE
_ZN10librevenge16RVNGStringVectorC1Ev
_ZN10librevenge16RVNGStringVectorD1Ev
_ZN10librevenge19RVNGPropertyFactory11newInchPropEd
_ZN10librevenge19RVNGPropertyFactory13newDoublePropEd
_ZN10librevenge19RVNGPropertyFactory13newStringPropEPKc
_ZN10librevenge19RVNGPropertyFactory13newStringPropERKNS_10RVNGStringE
_ZN10librevenge22RVNGPropertyListVector4Iter4nextEv
_ZN10librevenge22RVNGPropertyListVector4Iter6rewindEv
_ZN10librevenge22RVNGPropertyListVector4IterC1ERKS0_
_ZN10librevenge22RVNGPropertyListVector4IterD1Ev
_ZN10librevenge22RVNGPropertyListVector5clearEv
_ZN10librevenge22RVNGPropertyListVector6appendERKNS_16RVNGPropertyListE
_ZN10librevenge22RVNGPropertyListVectorC1ERKS0_
_ZN10librevenge22RVNGPropertyListVectorC1Ev
_ZN10librevenge22RVNGPropertyListVectorD1Ev
_ZN11ASF_Support10ObjectDataD0Ev
_ZN11ASF_Support10ObjectDataD1Ev.lto_priv.0
_ZN11ASF_Support10ObjectDataD2Ev.lto_priv.0
_ZN11ASF_Support10ReadObjectEP6XMP_IORNS_11ObjectStateEPmRm
_ZN11ASF_Support10ReadObjectEP6XMP_IORNS_11ObjectStateEPmRm.cold
_ZN11ASF_Support11ObjectStateD0Ev
_ZN11ASF_Support11ObjectStateD1Ev
_ZN11ASF_Support11ObjectStateD2Ev
_ZN11ASF_Support11WriteBufferEP6XMP_IORmjPKc
_ZN11ASF_Support11WriteBufferEP6XMP_IORmjPKc.cold
_ZN11ASF_Support13ReplaceStringERNSt7__cxx1112basic_stringIcSt11char_traitsIcESaIcEEES6_ii.isra.0
_ZN11ASF_Support17WriteHeaderObjectEP6XMP_IOS1_RKNS_10ObjectDataER17ASF_LegacyManagerb
_ZN11ASF_Support17WriteHeaderObjectEP6XMP_IOS1_RKNS_10ObjectDataER17ASF_LegacyManagerb.cold
_ZN11ASF_Support7OpenASFEP6XMP_IORNS_11ObjectStateE.constprop.0
_ZN11ASF_Support7OpenASFEP6XMP_IORNS_11ObjectStateE.constprop.0.cold
_ZN11ASF_SupportD0Ev
_ZN11ASF_SupportD1Ev
_ZN11ASF_SupportD2Ev
_ZN11CanvasGraph10readShapesEimm
_ZN11CanvasGraph10readShapesEimm.cold
_ZN11CanvasGraph11getBitmapBWERKN19CanvasGraphInternal5ShapeER18MWAWEmbeddedObject
_ZN11CanvasGraph11getBitmapBWERKN19CanvasGraphInternal5ShapeER18MWAWEmbeddedObject.cold
_ZN11CanvasGraph11sendSpecialERKN19CanvasGraphInternal5ShapeERKNS0_14LocalTransformE.isra.0
_ZN11CanvasGraph11sendSpecialERKN19CanvasGraphInternal5ShapeERKNS0_14LocalTransformE.isra.0.cold
_ZN11CanvasGraph14readFileBitmapEl
_ZN11CanvasGraph14readFileBitmapEl.cold
_ZN11CanvasGraph14sendMultiLinesERKN19CanvasGraphInternal5ShapeERKNS0_14LocalTransformE.isra.0
_ZN11CanvasGraph14sendMultiLinesERKN19CanvasGraphInternal5ShapeERKNS0_14LocalTransformE.isra.0.cold
_ZN11CanvasGraph4sendERKN19CanvasGraphInternal5ShapeEPKNS0_14LocalTransformE.isra.0
_ZN11CanvasGraph4sendERKN19CanvasGraphInternal5ShapeEPKNS0_14LocalTransformE.isra.0.cold
_ZN11CanvasGraphD0Ev
_ZN11CanvasGraphD1Ev
_ZN11CanvasGraphD2Ev
_ZN11FillManager13addPropertiesERKN10librevenge16RVNGPropertyListERS1_
_ZN11FillManager13addPropertiesERKN10librevenge16RVNGPropertyListERS1_.cold
_ZN11FillManager23getStyleNameForGradientERKN10librevenge16RVNGPropertyListERb
_ZN11FillManager23getStyleNameForGradientERKN10librevenge16RVNGPropertyListERb.cold
_ZN11FullWrtText11readColumnsESt10shared_ptrIN13FullWrtStruct5EntryEE.isra.0
_ZN11FullWrtText11readColumnsESt10shared_ptrIN13FullWrtStruct5EntryEE.isra.0.cold
_ZN11FullWrtText11readDataModESt10shared_ptrIN13FullWrtStruct5EntryEEi
_ZN11FullWrtText11readDataModESt10shared_ptrIN13FullWrtStruct5EntryEEi.cold
_ZN11FullWrtText12readTextDataESt10shared_ptrIN13FullWrtStruct5EntryEE
_ZN11FullWrtText12readTextDataESt10shared_ptrIN13FullWrtStruct5EntryEE.cold
_ZN11FullWrtText14sendHiddenItemEiRN19FullWrtTextInternal4FontERNS0_9ParagraphE.isra.0
_ZN11FullWrtText14sendHiddenItemEiRN19FullWrtTextInternal4FontERNS0_9ParagraphE.isra.0.cold
_ZN11FullWrtText17readParagraphTabsESt10shared_ptrIN13FullWrtStruct5EntryEEi
_ZN11FullWrtText17readParagraphTabsESt10shared_ptrIN13FullWrtStruct5EntryEEi.cold
_ZN11FullWrtText4sendESt10shared_ptrIN19FullWrtTextInternal4ZoneEE9MWAWColor.isra.0
_ZN11FullWrtText4sendESt10shared_ptrIN19FullWrtTextInternal4ZoneEE9MWAWColor.isra.0.cold
_ZN11FullWrtText4sendESt10shared_ptrIN19FullWrtTextInternal4ZoneEEiRNS1_4FontERNS1_9ParagraphERNSt7__cxx1112basic_stringIcSt11char_traitsIcESaIcEEE
_ZN11FullWrtText4sendESt10shared_ptrIN19FullWrtTextInternal4ZoneEEiRNS1_4FontERNS1_9ParagraphERNSt7__cxx1112basic_stringIcSt11char_traitsIcESaIcEEE.cold
_ZN11FullWrtText4sendEi9MWAWColor
_ZN11FullWrtText4sendEi9MWAWColor.cold
_ZN11FullWrtText8readItemESt10shared_ptrIN13FullWrtStruct5EntryEEib
_ZN11FullWrtText8readItemESt10shared_ptrIN13FullWrtStruct5EntryEEib.cold
_ZN11FullWrtText9readStyleESt10shared_ptrIN13FullWrtStruct5EntryEE.isra.0
_ZN11FullWrtText9readStyleESt10shared_ptrIN13FullWrtStruct5EntryEE.isra.0.cold
_ZN11FullWrtText9sortZonesEv
_ZN11FullWrtText9sortZonesEv.cold
_ZN11FullWrtTextD0Ev
_ZN11FullWrtTextD1Ev
_ZN11FullWrtTextD2Ev
_ZN11ID3_Support10ID3v2Frame13setFrameValueERKNSt7__cxx1112basic_stringIcSt11char_traitsIcESaIcEEEbbbbb.constprop.0
_ZN11ID3_Support10ID3v2Frame13setFrameValueERKNSt7__cxx1112basic_stringIcSt11char_traitsIcESaIcEEEbbbbb.constprop.0.cold
_ZN11ID3_Support10ID3v2Frame25advancePastCOMMDescriptorERi
_ZN11ID3_Support10ID3v2Frame25advancePastCOMMDescriptorERi.cold
_ZN11ID3_Support10ID3v2FrameC1Ej
_ZN11ID3_Support10ID3v2FrameC2Ej
_ZN11ID3_Support12synchToInt32Ej.part.0
_ZN11ID3_Support8ID3v1Tag4readEP6XMP_IOP8TXMPMetaINSt7__cxx1112basic_stringIcSt11char_traitsIcESaIcEEEE
_ZN11ID3_Support8ID3v1Tag4readEP6XMP_IOP8TXMPMetaINSt7__cxx1112basic_stringIcSt11char_traitsIcESaIcEEEE.cold
_ZN11ID3_SupportL18StripOutsideSpacesEPNSt7__cxx1112basic_stringIcSt11char_traitsIcESaIcEEE.lto_priv.0
_ZN11IPTC_Reader13DeleteDataSetEhl
_ZN11IPTC_Reader14NotAppropriateEv
_ZN11IPTC_Reader15SetDataSet_UTF8EhPKvjl
_ZN11IPTC_Reader20UpdateMemoryDataSetsEv
_ZN11IPTC_Reader9IsChangedEv
_ZN11IPTC_ReaderD0Ev
_ZN11IPTC_ReaderD1Ev
_ZN11IPTC_ReaderD2Ev
_ZN11IPTC_Writer13DeleteDataSetEhl
_ZN11IPTC_Writer15SetDataSet_UTF8EhPKvjl
_ZN11IPTC_Writer15SetDataSet_UTF8EhPKvjl.cold
_ZN11IPTC_Writer20UpdateMemoryDataSetsEv
_ZN11IPTC_Writer20UpdateMemoryDataSetsEv.part.0
_ZN11IPTC_Writer20UpdateMemoryDataSetsEv.part.0.cold
_ZN11IPTC_Writer9IsChangedEv
_ZN11IPTC_WriterD0Ev
_ZN11IPTC_WriterD1Ev
_ZN11IPTC_WriterD2Ev
_ZN11ListManager5StateC1ERKS0_
_ZN11ListManager5StateC1Ev
_ZN11ListManager5StateC2ERKS0_
_ZN11ListManager5StateC2ERKS0_.cold
_ZN11ListManager5StateC2Ev
_ZN11ListManager5StateC2Ev.cold
_ZN11ListManager5StateD1Ev
_ZN11ListManager5StateD2Ev.lto_priv.0
_ZN11ListManager8getStateEv
_ZN11ListManager8getStateEv.cold
_ZN11ListManager8popStateEv
_ZN11ListManagerD0Ev
_ZN11ListManagerD1Ev
_ZN11ListManagerD2Ev
_ZN11MWAWPictDB3D0Ev
_ZN11MWAWPictDB3D1Ev
_ZN11MWAWPictDB3D2Ev
_ZN11MWAWPictMacD0Ev
_ZN11MWAWPictMacD1Ev
_ZN11MWAWPictMacD2Ev
_ZN11MWAWSection10setColumnsEidN10librevenge8RVNGUnitEd
_ZN11MWAWSectionC1Ev
_ZN11MWAWSectionC2Ev.lto_priv.0
_ZN11MWAWSectionD0Ev
_ZN11MWAWSectionD1Ev
_ZN11MWAWSectionD2Ev
_ZN11MetadataSet6appendEP9IMetadata
_ZN11MetadataSetD1Ev
_ZN11MetadataSetD2Ev
_ZN11MsWksParser11checkHeaderEP10MWAWHeaderb
_ZN11MsWksParser11checkHeaderEP10MWAWHeaderb.cold
_ZN11MsWksParser5parseEPN10librevenge17RVNGTextInterfaceE
_ZN11MsWksParser5parseEPN10librevenge17RVNGTextInterfaceE.cold
_ZN11MsWksParser7newPageEib
_ZN11MsWksParser7newPageEib.cold
_ZN11MsWksParserC1ERKSt10shared_ptrI15MWAWInputStreamERKS0_I14MWAWRSRCParserEP10MWAWHeader
_ZN11MsWksParserC2ERKSt10shared_ptrI15MWAWInputStreamERKS0_I14MWAWRSRCParserEP10MWAWHeader
_ZN11MsWksParserC2ERKSt10shared_ptrI15MWAWInputStreamERKS0_I14MWAWRSRCParserEP10MWAWHeader.cold
_ZN11MsWksParserD0Ev
_ZN11MsWksParserD1Ev
_ZN11MsWksParserD2Ev
_ZN11MsWrdParser11checkHeaderEP10MWAWHeaderb
_ZN11MsWrdParser11checkHeaderEP10MWAWHeaderb.cold
_ZN11MsWrdParser11createZonesEv
_ZN11MsWrdParser11createZonesEv.cold
_ZN11MsWrdParser11readPictureER10MsWrdEntry.isra.0
_ZN11MsWrdParser11readPictureER10MsWrdEntry.isra.0.cold
_ZN11MsWrdParser11sendPictureEliN12MWAWPosition8AnchorToE
_ZN11MsWrdParser11sendPictureEliN12MWAWPosition8AnchorToE.cold
_ZN11MsWrdParser12readZoneListEv
_ZN11MsWrdParser12readZoneListEv.cold
_ZN11MsWrdParser14createDocumentEPN10librevenge17RVNGTextInterfaceE
_ZN11MsWrdParser14createDocumentEPN10librevenge17RVNGTextInterfaceE.cold
_ZN11MsWrdParser15readStringsZoneER10MsWrdEntryRSt6vectorINSt7__cxx1112basic_stringIcSt11char_traitsIcESaIcEEESaIS8_EE.constprop.0.isra.0
_ZN11MsWrdParser15readStringsZoneER10MsWrdEntryRSt6vectorINSt7__cxx1112basic_stringIcSt11char_traitsIcESaIcEEESaIS8_EE.constprop.0.isra.0.cold
_ZN11MsWrdParser4initEv
_ZN11MsWrdParser4initEv.cold
_ZN11MsWrdParser5parseEPN10librevenge17RVNGTextInterfaceE
_ZN11MsWrdParser5parseEPN10librevenge17RVNGTextInterfaceE.cold
_ZN11MsWrdParser9readEntryENSt7__cxx1112basic_stringIcSt11char_traitsIcESaIcEEEi
_ZN11MsWrdParser9readEntryENSt7__cxx1112basic_stringIcSt11char_traitsIcESaIcEEEi.cold
_ZN11MsWrdParserD0Ev
_ZN11MsWrdParserD1Ev
_ZN11MsWrdParserD2Ev
_ZN11MsWrdStruct13ParagraphInfo4readERSt10shared_ptrI15MWAWInputStreamEli
_ZN11MsWrdStruct4Font22updateFontToFinalStateEPKS0_
_ZN11MsWrdStruct4Font6insertERKS0_PS1_
_ZN11MsWrdStruct4FontC1ERKS0_
_ZN11MsWrdStruct4FontC1Ev
_ZN11MsWrdStruct4FontC2ERKS0_.lto_priv.0
_ZN11MsWrdStruct4FontC2ERKS0_.lto_priv.0.cold
_ZN11MsWrdStruct4FontC2Ev.lto_priv.0
_ZN11MsWrdStruct4FontC2Ev.lto_priv.0.cold
_ZN11MsWrdStruct4FontD1Ev
_ZN11MsWrdStruct4FontD2Ev.lto_priv.0
_ZN11MsWrdStruct4FontaSERKS0_
_ZN11MsWrdStruct5Table4CellC1ERKS1_
_ZN11MsWrdStruct5Table4CellC2ERKS1_.lto_priv.0
_ZN11MsWrdStruct5Table4CellC2ERKS1_.lto_priv.0.cold
_ZN11MsWrdStruct5Table7getCellEi
_ZN11MsWrdStruct5Table7getCellEi.cold
_ZN11MsWrdStruct7Section4readERSt10shared_ptrI15MWAWInputStreamEl
_ZN11MsWrdStruct7Section4readERSt10shared_ptrI15MWAWInputStreamEl.cold
_ZN11MsWrdStruct7Section6readV3ERSt10shared_ptrI15MWAWInputStreamEl
_ZN11MsWrdStruct7Section6readV3ERSt10shared_ptrI15MWAWInputStreamEl.cold
_ZN11MsWrdStruct9Paragraph6insertERKS0_b.constprop.0
_ZN11MsWrdStruct9Paragraph6insertERKS0_b.constprop.0.cold
_ZN11MsWrdStruct9ParagraphC1ERKS0_
_ZN11MsWrdStruct9ParagraphC1Ei
_ZN11MsWrdStruct9ParagraphC2ERKS0_.lto_priv.0
_ZN11MsWrdStruct9ParagraphC2ERKS0_.lto_priv.0.cold
_ZN11MsWrdStruct9ParagraphC2Ei.lto_priv.0
_ZN11MsWrdStruct9ParagraphC2Ei.lto_priv.0.cold
_ZN11MsWrdStruct9ParagraphD0Ev
_ZN11MsWrdStruct9ParagraphD1Ev
_ZN11MsWrdStruct9ParagraphD2Ev
_ZN11MsWrdStruct9ParagraphaSEOS0_.isra.0
_ZN11MsWrdStruct9ParagraphaSERKS0_.isra.0
_ZN11MsWrdStruct9getBorderEiRNSt7__cxx1112basic_stringIcSt11char_traitsIcESaIcEEE
_ZN11PNG_Support10ChunkStateD0Ev
_ZN11PNG_Support10ChunkStateD1Ev
_ZN11PNG_Support10ChunkStateD2Ev
_ZN11PNG_Support11WriteBufferEP6XMP_IORmjPKc
_ZN11PNG_Support7OpenPNGEP6XMP_IORNS_10ChunkStateE.constprop.0
_ZN11PNG_Support7OpenPNGEP6XMP_IORNS_10ChunkStateE.constprop.0.cold
_ZN11PNG_Support9ChunkDataD0Ev
_ZN11PNG_Support9ChunkDataD1Ev
_ZN11PNG_Support9ChunkDataD2Ev.lto_priv.0
_ZN11RagTimeText12readTextZoneER9MWAWEntryiRK9MWAWColor
_ZN11RagTimeText12readTextZoneER9MWAWEntryiRK9MWAWColor.cold
_ZN11RagTimeText13readFontNamesER9MWAWEntry.isra.0
_ZN11RagTimeText13readFontNamesER9MWAWEntry.isra.0.cold
_ZN11RagTimeText18readCharPropertiesER9MWAWEntry.isra.0
_ZN11RagTimeText18readCharPropertiesER9MWAWEntry.isra.0.cold
_ZN11RagTimeText4sendERKN19RagTimeTextInternal8TextZoneESt10shared_ptrI12MWAWListenerE
_ZN11RagTimeText4sendERKN19RagTimeTextInternal8TextZoneESt10shared_ptrI12MWAWListenerE.cold
_ZN11RagTimeTextD0Ev
_ZN11RagTimeTextD1Ev
_ZN11RagTimeTextD2Ev
_ZN11SVG_Adapter10RegisterPIENSt7__cxx1112basic_stringIcSt11char_traitsIcESaIcEEE
_ZN11SVG_Adapter10RegisterPIENSt7__cxx1112basic_stringIcSt11char_traitsIcESaIcEEE.cold
_ZN11SVG_Adapter11GetPIOffsetENSt7__cxx1112basic_stringIcSt11char_traitsIcESaIcEEEj
_ZN11SVG_Adapter11ParseBufferEPKvmb
_ZN11SVG_Adapter11ParseBufferEPKvmb.cold
_ZN11SVG_Adapter15RegisterElementENSt7__cxx1112basic_stringIcSt11char_traitsIcESaIcEEES5_
_ZN11SVG_Adapter15RegisterElementENSt7__cxx1112basic_stringIcSt11char_traitsIcESaIcEEES5_.cold
_ZN11SVG_Adapter16IsParsingRequireEv
_ZN11SVG_Adapter17GetElementOffsetsENSt7__cxx1112basic_stringIcSt11char_traitsIcESaIcEEE
_ZN11SVG_Adapter18ParseBufferNoThrowEPKvmb
_ZN11SVG_Adapter18ParseBufferNoThrowEPKvmb.cold
_ZN11SVG_AdapterC1Ev
_ZN11SVG_AdapterC2Ev
_ZN11SVG_AdapterC2Ev.cold
_ZN11SVG_AdapterD0Ev
_ZN11SVG_AdapterD1Ev
_ZN11SVG_AdapterD2Ev
_ZN11ScoopParser10readBitmapERK9MWAWEntryR18MWAWEmbeddedObjectb.constprop.0
_ZN11ScoopParser10readBitmapERK9MWAWEntryR18MWAWEmbeddedObjectb.constprop.0.cold
_ZN11ScoopParser11checkHeaderEP10MWAWHeaderb
_ZN11ScoopParser11checkHeaderEP10MWAWHeaderb.cold
_ZN11ScoopParser11createZonesEv
_ZN11ScoopParser11createZonesEv.cold
_ZN11ScoopParser13readParagraphER13MWAWParagraphb
_ZN11ScoopParser13readParagraphER13MWAWParagraphb.cold
_ZN11ScoopParser14createDocumentEPN10librevenge20RVNGDrawingInterfaceE
_ZN11ScoopParser14createDocumentEPN10librevenge20RVNGDrawingInterfaceE.cold
_ZN11ScoopParser14readShapesListERSt6vectorIN19ScoopParserInternal5ShapeESaIS2_EE
_ZN11ScoopParser14readShapesListERSt6vectorIN19ScoopParserInternal5ShapeESaIS2_EE.cold
_ZN11ScoopParser4sendERKN19ScoopParserInternal5ShapeERK8MWAWVec2IiE
_ZN11ScoopParser4sendERKN19ScoopParserInternal5ShapeERK8MWAWVec2IiE.cold
_ZN11ScoopParser5parseEPN10librevenge20RVNGDrawingInterfaceE
_ZN11ScoopParser5parseEPN10librevenge20RVNGDrawingInterfaceE.cold
_ZN11ScoopParser8readFontER8MWAWFont.isra.0
_ZN11ScoopParser8readFontER8MWAWFont.isra.0.cold
_ZN11ScoopParser8readTextER9MWAWEntryRKNSt7__cxx1112basic_stringIcSt11char_traitsIcESaIcEEE.isra.0
_ZN11ScoopParser8readTextER9MWAWEntryRKNSt7__cxx1112basic_stringIcSt11char_traitsIcESaIcEEE.isra.0.cold
_ZN11ScoopParser8sendTextERKN19ScoopParserInternal9ParagraphE.isra.0
_ZN11ScoopParser8sendTextERKN19ScoopParserInternal9ParagraphE.isra.0.cold
_ZN11ScoopParserD0Ev
_ZN11ScoopParserD1Ev
_ZN11ScoopParserD2Ev
_ZN11StyleParser11checkHeaderEP10MWAWHeaderb
_ZN11StyleParser11checkHeaderEP10MWAWHeaderb.cold
_ZN11StyleParser11createZonesEv
_ZN11StyleParser11createZonesEv.cold
_ZN11StyleParser11sendPictureERKN19StyleParserInternal7PictureE.isra.0
_ZN11StyleParser11sendPictureERKN19StyleParserInternal7PictureE.isra.0.cold
_ZN11StyleParser12readPicturesERK9MWAWEntry.isra.0
_ZN11StyleParser12readPicturesERK9MWAWEntry.isra.0.cold
_ZN11StyleParser16readTypeEntryMapEv
_ZN11StyleParser16readTypeEntryMapEv.cold
_ZN11StyleParser19readExtraPropertiesERK9MWAWEntry.isra.0
_ZN11StyleParser19readExtraPropertiesERK9MWAWEntry.isra.0.cold
_ZN11StyleParser5parseEPN10librevenge17RVNGTextInterfaceE
_ZN11StyleParser5parseEPN10librevenge17RVNGTextInterfaceE.cold
_ZN11StyleParser8readPLCsERK9MWAWEntryb.isra.0
_ZN11StyleParser8readPLCsERK9MWAWEntryb.isra.0.cold
_ZN11StyleParser8sendTextERK9MWAWEntryb
_ZN11StyleParser8sendTextERK9MWAWEntryb.cold
_ZN11StyleParser9readRulesERK9MWAWEntry.isra.0
_ZN11StyleParser9readRulesERK9MWAWEntry.isra.0.cold
_ZN11StyleParserC1ERKSt10shared_ptrI15MWAWInputStreamERKS0_I14MWAWRSRCParserEP10MWAWHeader
_ZN11StyleParserC2ERKSt10shared_ptrI15MWAWInputStreamERKS0_I14MWAWRSRCParserEP10MWAWHeader
_ZN11StyleParserC2ERKSt10shared_ptrI15MWAWInputStreamERKS0_I14MWAWRSRCParserEP10MWAWHeader.cold
_ZN11StyleParserD0Ev
_ZN11StyleParserD1Ev
_ZN11StyleParserD2Ev
_ZN11TextElementD0Ev
_ZN11TextElementD1Ev
_ZN11TextElementD2Ev
_ZN11WXMP_Result13SetErrMessageEPKc
_ZN11WXMP_ResultD1Ev
_ZN11WXMP_ResultD2Ev.lto_priv.0
_ZN11WingzParser11checkHeaderEP10MWAWHeaderb
_ZN11WingzParser11checkHeaderEP10MWAWHeaderb.cold
_ZN11WingzParser12findNextZoneEi
_ZN11WingzParser12findNextZoneEi.cold
_ZN11WingzParser13readPrintInfoEv
_ZN11WingzParser13readPrintInfoEv.cold
_ZN11WingzParser15readPreferencesEv
_ZN11WingzParser15readPreferencesEv.cold
_ZN11WingzParser15readSpreadsheetEv
_ZN11WingzParser15readSpreadsheetEv.cold
_ZN11WingzParser15sendSpreadsheetEv
_ZN11WingzParser15sendSpreadsheetEv.cold
_ZN11WingzParser20readSpreadsheetStyleEv
_ZN11WingzParser20readSpreadsheetStyleEv.cold
_ZN11WingzParser23readSpreadsheetCellListEv
_ZN11WingzParser23readSpreadsheetCellListEv.cold
_ZN11WingzParser5parseEPN10librevenge24RVNGSpreadsheetInterfaceE
_ZN11WingzParser5parseEPN10librevenge24RVNGSpreadsheetInterfaceE.cold
_ZN11WingzParser9readMacroEv
_ZN11WingzParser9readMacroEv.cold
_ZN11WingzParserC1ERKSt10shared_ptrI15MWAWInputStreamERKS0_I14MWAWRSRCParserEP10MWAWHeader
_ZN11WingzParserC2ERKSt10shared_ptrI15MWAWInputStreamERKS0_I14MWAWRSRCParserEP10MWAWHeader
_ZN11WingzParserC2ERKSt10shared_ptrI15MWAWInputStreamERKS0_I14MWAWRSRCParserEP10MWAWHeader.cold
_ZN11WingzParserD0Ev
_ZN11WingzParserD1Ev
_ZN11WingzParserD2Ev
_ZN11XMPFiles_IO10AbsorbTempEv
_ZN11XMPFiles_IO10AbsorbTempEv.cold
_ZN11XMPFiles_IO10DeleteTempEv
_ZN11XMPFiles_IO10DeleteTempEv.cold
_ZN11XMPFiles_IO10DeriveTempEv
_ZN11XMPFiles_IO10DeriveTempEv.cold
_ZN11XMPFiles_IO15New_XMPFiles_IOEPKcbP20GenericErrorCallbackP19XMP_ProgressTracker.constprop.0
_ZN11XMPFiles_IO15New_XMPFiles_IOEPKcbP20GenericErrorCallbackP19XMP_ProgressTracker.constprop.0.cold
_ZN11XMPFiles_IO4ReadEPvjb
_ZN11XMPFiles_IO4ReadEPvjb.cold
_ZN11XMPFiles_IO4SeekEl8SeekMode
_ZN11XMPFiles_IO4SeekEl8SeekMode.cold
_ZN11XMPFiles_IO5CloseEv
_ZN11XMPFiles_IO5CloseEv.cold
_ZN11XMPFiles_IO5WriteEPKvj
_ZN11XMPFiles_IO5WriteEPKvj.cold
_ZN11XMPFiles_IO6LengthEv
_ZN11XMPFiles_IO8TruncateEl
_ZN11XMPFiles_IO8TruncateEl.cold
_ZN11XMPFiles_IOC2EiPKcbP20GenericErrorCallbackP19XMP_ProgressTracker.constprop.0
_ZN11XMPFiles_IOC2EiPKcbP20GenericErrorCallbackP19XMP_ProgressTracker.constprop.0.cold
_ZN11XMPFiles_IOD0Ev
_ZN11XMPFiles_IOD1Ev
_ZN11XMPFiles_IOD2Ev
_ZN11XMPFiles_IOD2Ev.cold
_ZN11XMPIterator4NextEPPKcPjS2_S3_S2_S3_S3_
_ZN11XMPIterator4NextEPPKcPjS2_S3_S2_S3_S3_.cold
_ZN11XMPIterator4SkipEj
_ZN11XMPIterator4SkipEj.cold
_ZN11XMPIteratorC1ERK7XMPMetaPKcS4_j
_ZN11XMPIteratorC2ERK7XMPMetaPKcS4_j
_ZN11XMPIteratorC2ERK7XMPMetaPKcS4_j.cold
_ZN11XMPIteratorC2ERK7XMPMetaPKcS4_j.constprop.0
_ZN11XMPIteratorC2ERK7XMPMetaPKcS4_j.constprop.0.cold
_ZN11XMPIteratorD0Ev
_ZN11XMPIteratorD1Ev
_ZN11XMPIteratorD2Ev
_ZN11XMPIteratorD2Ev.cold
_ZN11_ChewingKey15get_table_indexEv
_ZN11_ChewingKey15is_valid_zhuyinEv
_ZN11_ChewingKey16get_yunmu_stringEv
_ZN11_ChewingKey17get_pinyin_stringEv
_ZN11_ChewingKey17get_zhuyin_stringEv
_ZN11_ChewingKey18get_shengmu_stringEv
_ZN11hfst_ospell10Transducer6lookupB5cxx11EPc
_ZN11hfst_ospell10TransducerC1EP8_IO_FILE
_ZN11hfst_ospell13ZHfstOspeller10read_zhfstERKNSt7__cxx1112basic_stringIcSt11char_traitsIcESaIcEEE
_ZN11hfst_ospell13ZHfstOspeller5spellERKNSt7__cxx1112basic_stringIcSt11char_traitsIcESaIcEEE
_ZN11hfst_ospell13ZHfstOspeller7suggestERKNSt7__cxx1112basic_stringIcSt11char_traitsIcESaIcEEE
_ZN11hfst_ospell13ZHfstOspellerC1Ev
_ZN11hfst_ospell13ZHfstOspellerD1Ev
_ZN12CLuceneError3setEiPKcb
_ZN12CLuceneError3setEiPKwb
_ZN12CLuceneError4whatEv
_ZN12CLuceneError5twhatEv
_ZN12CLuceneErrorC1ERKS_
_ZN12CLuceneErrorC1EiPKcb
_ZN12CLuceneErrorC1EiPKwb
_ZN12CLuceneErrorC1Ev
_ZN12CLuceneErrorC2ERKS_
_ZN12CLuceneErrorC2EiPKcb
_ZN12CLuceneErrorC2EiPKwb
_ZN12CLuceneErrorC2Ev
_ZN12CLuceneErrorD1Ev
_ZN12CLuceneErrorD2Ev
_ZN12Canvas5Graph10readShapesERN16Canvas5Structure6StreamEi
_ZN12Canvas5Graph10readShapesERN16Canvas5Structure6StreamEi.cold
_ZN12Canvas5Graph11sendSpecialESt10shared_ptrI12MWAWListenerERKN20Canvas5GraphInternal5ShapeERKNS3_9ShapeDataERKNS_10LocalStateE
_ZN12Canvas5Graph11sendSpecialESt10shared_ptrI12MWAWListenerERKN20Canvas5GraphInternal5ShapeERKNS3_9ShapeDataERKNS_10LocalStateE.cold
_ZN12Canvas5Graph12readMatricesESt10shared_ptrIN16Canvas5Structure6StreamEE
_ZN12Canvas5Graph12readMatricesESt10shared_ptrIN16Canvas5Structure6StreamEE.cold
_ZN12Canvas5Graph13sendCurveTextESt10shared_ptrI12MWAWListenerERKN20Canvas5GraphInternal5ShapeERKNS3_9ShapeDataERKNS_10LocalStateE.isra.0
_ZN12Canvas5Graph13sendCurveTextESt10shared_ptrI12MWAWListenerERKN20Canvas5GraphInternal5ShapeERKNS3_9ShapeDataERKNS_10LocalStateE.isra.0.cold
_ZN12Canvas5Graph13sendDimensionESt10shared_ptrI12MWAWListenerERKN20Canvas5GraphInternal5ShapeERKNS3_9ShapeDataERKNS_10LocalStateE
_ZN12Canvas5Graph13sendDimensionESt10shared_ptrI12MWAWListenerERKN20Canvas5GraphInternal5ShapeERKNS3_9ShapeDataERKNS_10LocalStateE.cold
_ZN12Canvas5Graph14sendDimension9ESt10shared_ptrI12MWAWListenerERKN20Canvas5GraphInternal5ShapeERKNS3_9ShapeDataERKNS_10LocalStateE.isra.0
_ZN12Canvas5Graph14sendDimension9ESt10shared_ptrI12MWAWListenerERKN20Canvas5GraphInternal5ShapeERKNS3_9ShapeDataERKNS_10LocalStateE.isra.0.cold
_ZN12Canvas5Graph15readSpecialDataESt10shared_ptrIN16Canvas5Structure6StreamEElRN20Canvas5GraphInternal9ShapeDataERNSt7__cxx1112basic_stringIcSt11char_traitsIcESaIcEEE
_ZN12Canvas5Graph15readSpecialDataESt10shared_ptrIN16Canvas5Structure6StreamEElRN20Canvas5GraphInternal9ShapeDataERNSt7__cxx1112basic_stringIcSt11char_traitsIcESaIcEEE.cold
_ZN12Canvas5Graph15readSpecialDataESt10shared_ptrIN16Canvas5Structure6StreamEEljRK8MWAWBox2IfERNSt7__cxx1112basic_stringIcSt11char_traitsIcESaIcEEE
_ZN12Canvas5Graph15readSpecialDataESt10shared_ptrIN16Canvas5Structure6StreamEEljRK8MWAWBox2IfERNSt7__cxx1112basic_stringIcSt11char_traitsIcESaIcEEE.cold
_ZN12Canvas5Graph18findShapeDataZonesESt10shared_ptrIN16Canvas5Structure6StreamEE
_ZN12Canvas5Graph18findShapeDataZonesESt10shared_ptrIN16Canvas5Structure6StreamEE.cold
_ZN12Canvas5Graph4sendERKN20Canvas5GraphInternal5ShapeERKNS_10LocalStateE.isra.0
_ZN12Canvas5Graph4sendERKN20Canvas5GraphInternal5ShapeERKNS_10LocalStateE.isra.0.cold
_ZN12Canvas5Graph4sendESt10shared_ptrI12MWAWListenerERK16MWAWGraphicShapeRK18MWAWTransformationRK16MWAWGraphicStyle.isra.0
_ZN12Canvas5Graph4sendESt10shared_ptrI12MWAWListenerERK16MWAWGraphicShapeRK18MWAWTransformationRK16MWAWGraphicStyle.isra.0.cold
_ZN12Canvas5Graph4sendESt10shared_ptrI12MWAWListenerERKN10librevenge10RVNGStringERK8MWAWVec2IfERK18MWAWTransformationRK8MWAWFontb
_ZN12Canvas5Graph4sendESt10shared_ptrI12MWAWListenerERKN10librevenge10RVNGStringERK8MWAWVec2IfERK18MWAWTransformationRK8MWAWFontb.cold
_ZN12Canvas5Graph9sendShapeEi.isra.0
_ZN12Canvas5Graph9sendShapeEi.isra.0.cold
_ZN12Canvas5Graph9sendShapeEiRKNS_10LocalStateE.isra.0
_ZN12Canvas5GraphD0Ev
_ZN12Canvas5GraphD1Ev
_ZN12Canvas5GraphD2Ev
_ZN12Canvas5Image10readImagesESt10shared_ptrIN16Canvas5Structure6StreamEE
_ZN12Canvas5Image10readImagesESt10shared_ptrIN16Canvas5Structure6StreamEE.cold
_ZN12Canvas5Image12readAGIFRsrcESt10shared_ptrIN16Canvas5Structure6StreamEE.isra.0
_ZN12Canvas5Image12readAGIFRsrcESt10shared_ptrIN16Canvas5Structure6StreamEE.isra.0.cold
_ZN12Canvas5Image12readQkTmRsrcERN16Canvas5Structure6StreamE.isra.0
_ZN12Canvas5Image12readQkTmRsrcERN16Canvas5Structure6StreamE.isra.0.cold
_ZN12Canvas5Image15readMacroIndentERN16Canvas5Structure6StreamERSt6vectorIjSaIjEERNSt7__cxx1112basic_stringIcSt11char_traitsIcESaIcEEE.constprop.0
_ZN12Canvas5Image15readMacroIndentERN16Canvas5Structure6StreamERSt6vectorIjSaIjEERNSt7__cxx1112basic_stringIcSt11char_traitsIcESaIcEEE.constprop.0.cold
_ZN12Canvas5Image8readVKFLESt10shared_ptrIN16Canvas5Structure6StreamEElRS0_IN20Canvas5ImageInternal9VKFLImageEE
_ZN12Canvas5Image8readVKFLESt10shared_ptrIN16Canvas5Structure6StreamEElRS0_IN20Canvas5ImageInternal9VKFLImageEE.cold
_ZN12Canvas5ImageD0Ev
_ZN12Canvas5ImageD1Ev
_ZN12Canvas5ImageD2Ev
_ZN12CanvasParser10readLayersEv
_ZN12CanvasParser10readLayersEv.cold
_ZN12CanvasParser10readSpraysEv
_ZN12CanvasParser10readSpraysEv.cold
_ZN12CanvasParser10readStringERN10librevenge10RVNGStringEib
_ZN12CanvasParser10readStringERN10librevenge10RVNGStringEib.cold
_ZN12CanvasParser10readStringESt10shared_ptrI15MWAWInputStreamERN10librevenge10RVNGStringEib
_ZN12CanvasParser10readStringESt10shared_ptrI15MWAWInputStreamERN10librevenge10RVNGStringEib.cold
_ZN12CanvasParser11checkHeaderEP10MWAWHeaderb
_ZN12CanvasParser11checkHeaderEP10MWAWHeaderb.cold
_ZN12CanvasParser11createZonesEv
_ZN12CanvasParser11createZonesEv.cold
_ZN12CanvasParser11readBrushesEv
_ZN12CanvasParser11readBrushesEv.cold
_ZN12CanvasParser16readUnknownZone1Ev
_ZN12CanvasParser16readUnknownZone1Ev.cold
_ZN12CanvasParser16readUnknownZone2Ev
_ZN12CanvasParser16readUnknownZone2Ev.cold
_ZN12CanvasParser16readUnknownZone3Ev
_ZN12CanvasParser16readUnknownZone3Ev.cold
_ZN12CanvasParser19readRSRCWindowsFileEv
_ZN12CanvasParser19readRSRCWindowsFileEv.cold
_ZN12CanvasParser5parseEPN10librevenge20RVNGDrawingInterfaceE
_ZN12CanvasParser5parseEPN10librevenge20RVNGDrawingInterfaceE.cold
_ZN12CanvasParser6decodeEl
_ZN12CanvasParser9readEndV3Ev
_ZN12CanvasParser9readEndV3Ev.cold
_ZN12CanvasParser9readViewsEv
_ZN12CanvasParser9readViewsEv.cold
_ZN12CanvasParserC1ERKSt10shared_ptrI15MWAWInputStreamERKS0_I14MWAWRSRCParserEP10MWAWHeader
_ZN12CanvasParserC2ERKSt10shared_ptrI15MWAWInputStreamERKS0_I14MWAWRSRCParserEP10MWAWHeader
_ZN12CanvasParserC2ERKSt10shared_ptrI15MWAWInputStreamERKS0_I14MWAWRSRCParserEP10MWAWHeader.cold
_ZN12CanvasParserD0Ev
_ZN12CanvasParserD1Ev
_ZN12CanvasParserD2Ev
_ZN12DocMkrParser11checkHeaderEP10MWAWHeaderb
_ZN12DocMkrParser11checkHeaderEP10MWAWHeaderb.cold
_ZN12DocMkrParser11createZonesEv
_ZN12DocMkrParser11createZonesEv.cold
_ZN12DocMkrParser4initEv
_ZN12DocMkrParser4initEv.cold
_ZN12DocMkrParser5parseEPN10librevenge17RVNGTextInterfaceE
_ZN12DocMkrParser5parseEPN10librevenge17RVNGTextInterfaceE.cold
_ZN12DocMkrParser7newPageEi
_ZN12DocMkrParser9rsrcInputEv
_ZN12DocMkrParserD0Ev
_ZN12DocMkrParserD1Ev
_ZN12DocMkrParserD2Ev
_ZN12ExpatAdapter11ParseBufferEPKvmb
_ZN12ExpatAdapter11ParseBufferEPKvmb.cold
_ZN12ExpatAdapterC1Eb
_ZN12ExpatAdapterC2Eb
_ZN12ExpatAdapterC2Eb.cold
_ZN12ExpatAdapterD0Ev
_ZN12ExpatAdapterD0Ev.cold
_ZN12ExpatAdapterD1Ev
_ZN12ExpatAdapterD2Ev
_ZN12ExpatAdapterD2Ev.cold
_ZN12FullWrtGraph11readGraphicESt10shared_ptrIN13FullWrtStruct5EntryEE
_ZN12FullWrtGraph11readGraphicESt10shared_ptrIN13FullWrtStruct5EntryEE.cold
_ZN12FullWrtGraph11readSideBarESt10shared_ptrIN13FullWrtStruct5EntryEERKNS1_10ZoneHeaderE
_ZN12FullWrtGraph11readSideBarESt10shared_ptrIN13FullWrtStruct5EntryEERKNS1_10ZoneHeaderE.cold
_ZN12FullWrtGraph11sendGraphicESt10shared_ptrIN13FullWrtStruct5EntryEE.isra.0
_ZN12FullWrtGraph11sendGraphicESt10shared_ptrIN13FullWrtStruct5EntryEE.isra.0.cold
_ZN12FullWrtGraph15readGraphicDataESt10shared_ptrIN13FullWrtStruct5EntryEERNS1_10ZoneHeaderE
_ZN12FullWrtGraph15readGraphicDataESt10shared_ptrIN13FullWrtStruct5EntryEERNS1_10ZoneHeaderE.cold
_ZN12FullWrtGraphD0Ev
_ZN12FullWrtGraphD1Ev
_ZN12FullWrtGraphD2Ev
_ZN12GraphicStyleD0Ev
_ZN12GraphicStyleD1Ev
_ZN12GraphicStyleD2Ev
_ZN12GreatWksText11createZonesEi.isra.0
_ZN12GreatWksText11createZonesEi.isra.0.cold
_ZN12GreatWksText11sendTextboxERK9MWAWEntrySt10shared_ptrI12MWAWListenerE
_ZN12GreatWksText11sendTextboxERK9MWAWEntrySt10shared_ptrI12MWAWListenerE.cold
_ZN12GreatWksText12sendMainTextEv
_ZN12GreatWksText12sendMainTextEv.cold
_ZN12GreatWksText13readFontNamesEv
_ZN12GreatWksText13readFontNamesEv.cold
_ZN12GreatWksText23canSendTextBoxAsGraphicERK9MWAWEntry
_ZN12GreatWksText23canSendTextBoxAsGraphicERK9MWAWEntry.cold
_ZN12GreatWksText8readZoneERN20GreatWksTextInternal4ZoneE
_ZN12GreatWksText8readZoneERN20GreatWksTextInternal4ZoneE.cold
_ZN12GreatWksText8sendZoneERKN20GreatWksTextInternal4ZoneESt10shared_ptrI12MWAWListenerE
_ZN12GreatWksText8sendZoneERKN20GreatWksTextInternal4ZoneESt10shared_ptrI12MWAWListenerE.cold
_ZN12GreatWksText9readTokenERN20GreatWksTextInternal5TokenERl
_ZN12GreatWksTextD0Ev
_ZN12GreatWksTextD1Ev
_ZN12GreatWksTextD2Ev
_ZN12IPTC_Manager13AppendDataSetEPhRKNS_11DataSetInfoE.isra.0
_ZN12IPTC_Manager19ParseMemoryDataSetsEPKvjb
_ZN12IPTC_Manager19ParseMemoryDataSetsEPKvjb.cold
_ZN12JazzSSParser11checkHeaderEP10MWAWHeaderb
_ZN12JazzSSParser11checkHeaderEP10MWAWHeaderb.cold
_ZN12JazzSSParser5parseEPN10librevenge24RVNGSpreadsheetInterfaceE
_ZN12JazzSSParser5parseEPN10librevenge24RVNGSpreadsheetInterfaceE.cold
_ZN12JazzSSParser8readCellE8MWAWVec2IiERN15MWAWCellContent18FormulaInstructionE
_ZN12JazzSSParser8readCellE8MWAWVec2IiERN15MWAWCellContent18FormulaInstructionE.cold
_ZN12JazzSSParser8readCellEil
_ZN12JazzSSParser8readCellEil.cold
_ZN12JazzSSParserD0Ev
_ZN12JazzSSParserD1Ev
_ZN12JazzSSParserD2Ev
_ZN12LittleEndian11getInstanceEv
_ZN12LittleEndianD0Ev
_ZN12LittleEndianD1Ev.lto_priv.0
_ZN12LittleEndianD2Ev.lto_priv.0
_ZN12MOOV_Manager14NewSubtreeSizeERKN20ISOBaseMedia_Manager7BoxNodeERKNSt7__cxx1112basic_stringIcSt11char_traitsIcESaIcEEE.isra.0
_ZN12MOOV_Manager14NewSubtreeSizeERKN20ISOBaseMedia_Manager7BoxNodeERKNSt7__cxx1112basic_stringIcSt11char_traitsIcESaIcEEE.isra.0.cold
_ZN12MOOV_Manager15ParseMemoryTreeEh
_ZN12MOOV_Manager15ParseMemoryTreeEh.cold
_ZN12MOOV_Manager16AppendNewSubtreeERKN20ISOBaseMedia_Manager7BoxNodeERKNSt7__cxx1112basic_stringIcSt11char_traitsIcESaIcEEEPhSC_
_ZN12MOOV_Manager16AppendNewSubtreeERKN20ISOBaseMedia_Manager7BoxNodeERKNSt7__cxx1112basic_stringIcSt11char_traitsIcESaIcEEEPhSC_.cold
_ZN12MOOV_Manager16ParseNestedBoxesEPN20ISOBaseMedia_Manager7BoxNodeERKNSt7__cxx1112basic_stringIcSt11char_traitsIcESaIcEEEb.isra.0
_ZN12MOOV_Manager16ParseNestedBoxesEPN20ISOBaseMedia_Manager7BoxNodeERKNSt7__cxx1112basic_stringIcSt11char_traitsIcESaIcEEEb.isra.0.cold
_ZN12MOOV_Manager6SetBoxEPKcPKvjPKh.constprop.0
_ZN12MOOV_Manager6SetBoxEPKcPKvjPKh.constprop.0.cold
_ZN12MOOV_ManagerD0Ev
_ZN12MOOV_ManagerD1Ev
_ZN12MOOV_ManagerD2Ev
_ZN12MWAWDocument10decodeTextERKN10librevenge14RVNGBinaryDataEPNS0_17RVNGTextInterfaceE
_ZN12MWAWDocument13decodeGraphicERKN10librevenge14RVNGBinaryDataEPNS0_20RVNGDrawingInterfaceE
_ZN12MWAWDocument13decodeGraphicERKN10librevenge14RVNGBinaryDataEPNS0_20RVNGDrawingInterfaceE.cold
_ZN12MWAWDocument17decodeSpreadsheetERKN10librevenge14RVNGBinaryDataEPNS0_24RVNGSpreadsheetInterfaceE
_ZN12MWAWDocument17decodeSpreadsheetERKN10librevenge14RVNGBinaryDataEPNS0_24RVNGSpreadsheetInterfaceE.cold
_ZN12MWAWDocument21isFileFormatSupportedEPN10librevenge15RVNGInputStreamERNS_4TypeERNS_4KindE
_ZN12MWAWDocument21isFileFormatSupportedEPN10librevenge15RVNGInputStreamERNS_4TypeERNS_4KindE.cold
_ZN12MWAWDocument5parseEPN10librevenge15RVNGInputStreamEPNS0_17RVNGTextInterfaceEPKc
_ZN12MWAWDocument5parseEPN10librevenge15RVNGInputStreamEPNS0_17RVNGTextInterfaceEPKc.cold
_ZN12MWAWDocument5parseEPN10librevenge15RVNGInputStreamEPNS0_20RVNGDrawingInterfaceEPKc
_ZN12MWAWDocument5parseEPN10librevenge15RVNGInputStreamEPNS0_20RVNGDrawingInterfaceEPKc.cold
_ZN12MWAWDocument5parseEPN10librevenge15RVNGInputStreamEPNS0_24RVNGSpreadsheetInterfaceEPKc
_ZN12MWAWDocument5parseEPN10librevenge15RVNGInputStreamEPNS0_24RVNGSpreadsheetInterfaceEPKc.cold
_ZN12MWAWDocument5parseEPN10librevenge15RVNGInputStreamEPNS0_25RVNGPresentationInterfaceEPKc
_ZN12MWAWDocument5parseEPN10librevenge15RVNGInputStreamEPNS0_25RVNGPresentationInterfaceEPKc.cold
_ZN12MWAWListener20insertTextBoxInShapeERK12MWAWPositionRKSt10shared_ptrI15MWAWSubDocumentERK16MWAWGraphicShapeRK16MWAWGraphicStyle
_ZN12MWAWPageSpan15setHeaderFooterERK16MWAWHeaderFooter
_ZN12MWAWPageSpan15setHeaderFooterERK16MWAWHeaderFooter.cold
_ZN12MWAWPageSpan18removeHeaderFooterEN16MWAWHeaderFooter4TypeENS0_10OccurrenceE
_ZN12MWAWPageSpan18removeHeaderFooterEN16MWAWHeaderFooter4TypeENS0_10OccurrenceE.cold
_ZN12MWAWPageSpan23getHeaderFooterPositionEN16MWAWHeaderFooter4TypeENS0_10OccurrenceE
_ZN12MWAWPageSpan23getHeaderFooterPositionEN16MWAWHeaderFooter4TypeENS0_10OccurrenceE.cold
_ZN12MWAWPageSpanC1ERKS_
_ZN12MWAWPageSpanC1Ev
_ZN12MWAWPageSpanC2ERKS_.lto_priv.0
_ZN12MWAWPageSpanC2ERKS_.lto_priv.0.cold
_ZN12MWAWPageSpanC2Ev
_ZN12MWAWPageSpanC2Ev.cold
_ZN12MWAWPageSpanD1Ev
_ZN12MWAWPageSpanD2Ev
_ZN12MWAWPageSpanaSERKS_.isra.0
_ZN12MWAWPictData10checkOrGetESt10shared_ptrI15MWAWInputStreamEiR8MWAWBox2IfEPPS_
_ZN12MWAWPictData10checkOrGetESt10shared_ptrI15MWAWInputStreamEiR8MWAWBox2IfEPPS_.cold
_ZN12MWAWPictData3getERKSt10shared_ptrI15MWAWInputStreamEi
_ZN12MWAWPictData3getERKSt10shared_ptrI15MWAWInputStreamEi.cold
_ZN12MWAWPictData5checkERKSt10shared_ptrI15MWAWInputStreamEiR8MWAWBox2IfE
_ZN12MWAWPictData5checkERKSt10shared_ptrI15MWAWInputStreamEiR8MWAWBox2IfE.cold
_ZN12MWAWPositionC1ERK8MWAWVec2IfES3_N10librevenge8RVNGUnitE
_ZN12MWAWPositionC1ERKS_
_ZN12MWAWPositionC2ERK8MWAWVec2IfES3_N10librevenge8RVNGUnitE.lto_priv.0
_ZN12MWAWPositionC2ERKS_.lto_priv.0
_ZN12MWAWPositionaSEOS_
_ZN12MWAWPositionaSERKS_
_ZN12MacDocParser11checkHeaderEP10MWAWHeaderb
_ZN12MacDocParser11checkHeaderEP10MWAWHeaderb.cold
_ZN12MacDocParser11createZonesEv
_ZN12MacDocParser11createZonesEv.cold
_ZN12MacDocParser11updateIndexEii
_ZN12MacDocParser12sendContentsEv
_ZN12MacDocParser12sendContentsEv.cold
_ZN12MacDocParser5parseEPN10librevenge17RVNGTextInterfaceE
_ZN12MacDocParser5parseEPN10librevenge17RVNGTextInterfaceE.cold
_ZN12MacDocParserC1ERKSt10shared_ptrI15MWAWInputStreamERKS0_I14MWAWRSRCParserEP10MWAWHeader
_ZN12MacDocParserC2ERKSt10shared_ptrI15MWAWInputStreamERKS0_I14MWAWRSRCParserEP10MWAWHeader
_ZN12MacDocParserC2ERKSt10shared_ptrI15MWAWInputStreamERKS0_I14MWAWRSRCParserEP10MWAWHeader.cold
_ZN12MacDocParserD0Ev
_ZN12MacDocParserD1Ev
_ZN12MacDocParserD2Ev
_ZN12MacWrtParser10sendWindowEi
_ZN12MacWrtParser10sendWindowEi.cold
_ZN12MacWrtParser11checkHeaderEP10MWAWHeaderb
_ZN12MacWrtParser11checkHeaderEP10MWAWHeaderb.cold
_ZN12MacWrtParser13readPrintInfoEv
_ZN12MacWrtParser13readPrintInfoEv.cold
_ZN12MacWrtParser15readLinesHeightERK9MWAWEntryRSt6vectorIiSaIiEES6_
_ZN12MacWrtParser15readLinesHeightERK9MWAWEntryRSt6vectorIiSaIiEES6_.cold
_ZN12MacWrtParser15readWindowsInfoEi
_ZN12MacWrtParser15readWindowsInfoEi.cold
_ZN12MacWrtParser5parseEPN10librevenge17RVNGTextInterfaceE
_ZN12MacWrtParser5parseEPN10librevenge17RVNGTextInterfaceE.cold
_ZN12MacWrtParser7newPageEi
_ZN12MacWrtParserC1ERKSt10shared_ptrI15MWAWInputStreamERKS0_I14MWAWRSRCParserEP10MWAWHeader
_ZN12MacWrtParserC2ERKSt10shared_ptrI15MWAWInputStreamERKS0_I14MWAWRSRCParserEP10MWAWHeader
_ZN12MacWrtParserC2ERKSt10shared_ptrI15MWAWInputStreamERKS0_I14MWAWRSRCParserEP10MWAWHeader.cold
_ZN12MacWrtParserD0Ev
_ZN12MacWrtParserD1Ev
_ZN12MacWrtParserD2Ev
_ZN12MaxWrtParser11checkHeaderEP10MWAWHeaderb
_ZN12MaxWrtParser11checkHeaderEP10MWAWHeaderb.cold
_ZN12MaxWrtParser11createZonesEv
_ZN12MaxWrtParser11createZonesEv.cold
_ZN12MaxWrtParser5parseEPN10librevenge17RVNGTextInterfaceE
_ZN12MaxWrtParser5parseEPN10librevenge17RVNGTextInterfaceE.cold
_ZN12MaxWrtParser8sendTextEv
_ZN12MaxWrtParser8sendTextEv.cold
_ZN12MaxWrtParserC1ERKSt10shared_ptrI15MWAWInputStreamERKS0_I14MWAWRSRCParserEP10MWAWHeader
_ZN12MaxWrtParserC2ERKSt10shared_ptrI15MWAWInputStreamERKS0_I14MWAWRSRCParserEP10MWAWHeader
_ZN12MaxWrtParserC2ERKSt10shared_ptrI15MWAWInputStreamERKS0_I14MWAWRSRCParserEP10MWAWHeader.cold
_ZN12MaxWrtParserD0Ev
_ZN12MaxWrtParserD1Ev
_ZN12MaxWrtParserD2Ev
_ZN12MsWrd1Parser11checkHeaderEP10MWAWHeaderb
_ZN12MsWrd1Parser11checkHeaderEP10MWAWHeaderb.cold
_ZN12MsWrd1Parser14createDocumentEPN10librevenge17RVNGTextInterfaceE
_ZN12MsWrd1Parser14createDocumentEPN10librevenge17RVNGTextInterfaceE.cold
_ZN12MsWrd1Parser19removeLastCharIfEOLER9MWAWEntry
_ZN12MsWrd1Parser19removeLastCharIfEOLER9MWAWEntry.cold
_ZN12MsWrd1Parser4initEv
_ZN12MsWrd1Parser4initEv.cold
_ZN12MsWrd1Parser5parseEPN10librevenge17RVNGTextInterfaceE
_ZN12MsWrd1Parser5parseEPN10librevenge17RVNGTextInterfaceE.cold
_ZN12MsWrd1Parser7newPageEi
_ZN12MsWrd1Parser7readPLCE8MWAWVec2IiEi
_ZN12MsWrd1Parser7readPLCE8MWAWVec2IiEi.cold
_ZN12MsWrd1Parser8sendTextERK9MWAWEntryb
_ZN12MsWrd1Parser8sendTextERK9MWAWEntryb.cold
_ZN12MsWrd1ParserD0Ev
_ZN12MsWrd1ParserD1Ev
_ZN12MsWrd1ParserD2Ev
_ZN12NisusWrtText11createZonesEv
_ZN12NisusWrtText11createZonesEv.cold
_ZN12NisusWrtText11findFilePosEN14NisusWrtStruct8ZoneTypeERKNS0_8PositionE.constprop.0
_ZN12NisusWrtText11findFilePosEN14NisusWrtStruct8ZoneTypeERKNS0_8PositionE.constprop.0.cold
_ZN12NisusWrtText14readParagraphsERK9MWAWEntryN14NisusWrtStruct8ZoneTypeE.isra.0
_ZN12NisusWrtText14readParagraphsERK9MWAWEntryN14NisusWrtStruct8ZoneTypeE.isra.0.cold
_ZN12NisusWrtText16computePositionsEv
_ZN12NisusWrtText16computePositionsEv.cold
_ZN12NisusWrtText8sendTextERK9MWAWEntryN14NisusWrtStruct8PositionE.constprop.0.isra.0
_ZN12NisusWrtText8sendTextERK9MWAWEntryN14NisusWrtStruct8PositionE.constprop.0.isra.0.cold
_ZN12NisusWrtText9readFontsERK9MWAWEntry.isra.0
_ZN12NisusWrtText9readFontsERK9MWAWEntry.isra.0.cold
_ZN12NisusWrtTextD0Ev
_ZN12NisusWrtTextD1Ev
_ZN12NisusWrtTextD2Ev
_ZN12OdcGenerator14openChartSerieERKN10librevenge16RVNGPropertyListE
_ZN12OdcGenerator14openChartSerieERKN10librevenge16RVNGPropertyListE.cold
_ZN12OdcGenerator15insertChartAxisERKN10librevenge16RVNGPropertyListE
_ZN12OdcGenerator15insertChartAxisERKN10librevenge16RVNGPropertyListE.cold
_ZN12OdcGenerator17openChartPlotAreaERKN10librevenge16RVNGPropertyListE
_ZN12OdcGenerator17openChartPlotAreaERKN10librevenge16RVNGPropertyListE.cold
_ZN12OdcGenerator18addDocumentHandlerEP18OdfDocumentHandler13OdfStreamType
_ZN12OdfGenerator10closeFrameEv
_ZN12OdfGenerator10closeFrameEv.cold
_ZN12OdfGenerator10closeGroupEv
_ZN12OdfGenerator10closeGroupEv.cold
_ZN12OdfGenerator10closeTableEv
_ZN12OdfGenerator10closeTableEv.cold
_ZN12OdfGenerator10getFrameIdEN10librevenge10RVNGStringE
_ZN12OdfGenerator10getFrameIdEN10librevenge10RVNGStringE.cold
_ZN12OdfGenerator10insertTextERKN10librevenge10RVNGStringE
_ZN12OdfGenerator10insertTextERKN10librevenge10RVNGStringE.cold
_ZN12OdfGenerator10popStorageEv.part.0
_ZN12OdfGenerator11drawEllipseERKN10librevenge16RVNGPropertyListE
_ZN12OdfGenerator11drawEllipseERKN10librevenge16RVNGPropertyListE.cold
_ZN12OdfGenerator11insertFieldERKN10librevenge16RVNGPropertyListE
_ZN12OdfGenerator11insertFieldERKN10librevenge16RVNGPropertyListE.cold
_ZN12OdfGenerator11insertSpaceEv
_ZN12OdfGenerator11insertSpaceEv.cold
_ZN12OdfGenerator11pushStorageERKSt10shared_ptrISt6vectorIS0_I15DocumentElementESaIS3_EEE.part.0
_ZN12OdfGenerator12openTableRowERKN10librevenge16RVNGPropertyListEb
_ZN12OdfGenerator12openTableRowERKN10librevenge16RVNGPropertyListEb.cold
_ZN12OdfGenerator13closeTableRowEv
_ZN12OdfGenerator13closeTableRowEv.cold
_ZN12OdfGenerator13drawRectangleERKN10librevenge16RVNGPropertyListE
_ZN12OdfGenerator13drawRectangleERKN10librevenge16RVNGPropertyListE.cold
_ZN12OdfGenerator13initStateWithERKS_
_ZN12OdfGenerator13initStateWithERKS_.cold
_ZN12OdfGenerator13openListLevelERKN10librevenge16RVNGPropertyListEb
_ZN12OdfGenerator13openListLevelERKN10librevenge16RVNGPropertyListEb.cold
_ZN12OdfGenerator13openParagraphERKN10librevenge16RVNGPropertyListE
_ZN12OdfGenerator13openParagraphERKN10librevenge16RVNGPropertyListE.cold
_ZN12OdfGenerator13openTableCellERKN10librevenge16RVNGPropertyListE
_ZN12OdfGenerator13openTableCellERKN10librevenge16RVNGPropertyListE.cold
_ZN12OdfGenerator14closeListLevelEv
_ZN12OdfGenerator14closeListLevelEv.cold
_ZN12OdfGenerator14closeParagraphEv
_ZN12OdfGenerator14closeParagraphEv.cold
_ZN12OdfGenerator14closeTableCellEv
_ZN12OdfGenerator14closeTableCellEv.cold
_ZN12OdfGenerator14insertEquationERKN10librevenge16RVNGPropertyListE
_ZN12OdfGenerator14insertEquationERKN10librevenge16RVNGPropertyListE.cold
_ZN12OdfGenerator15getDocumentTypeB5cxx11E13OdfStreamType
_ZN12OdfGenerator15insertLineBreakEb
_ZN12OdfGenerator15insertLineBreakEb.cold
_ZN12OdfGenerator15openListElementERKN10librevenge16RVNGPropertyListE
_ZN12OdfGenerator15openListElementERKN10librevenge16RVNGPropertyListE.cold
_ZN12OdfGenerator16createObjectFileERKN10librevenge10RVNGStringES3_b
_ZN12OdfGenerator16createObjectFileERKN10librevenge10RVNGStringES3_b.cold
_ZN12OdfGenerator16defineChartStyleERKN10librevenge16RVNGPropertyListE
_ZN12OdfGenerator16defineChartStyleERKN10librevenge16RVNGPropertyListE.cold
_ZN12OdfGenerator16getObjectContentERKN10librevenge10RVNGStringEP18OdfDocumentHandler
_ZN12OdfGenerator17drawPolySomethingERKN10librevenge16RVNGPropertyListEb
_ZN12OdfGenerator17drawPolySomethingERKN10librevenge16RVNGPropertyListEb.cold
_ZN12OdfGenerator18appendBodySettingsERKN10librevenge16RVNGPropertyListE
_ZN12OdfGenerator18appendBodySettingsERKN10librevenge16RVNGPropertyListE.cold
_ZN12OdfGenerator18defineEmbeddedFontERKN10librevenge16RVNGPropertyListE
_ZN12OdfGenerator18defineEmbeddedFontERKN10librevenge16RVNGPropertyListE.cold
_ZN12OdfGenerator18defineGraphicStyleERKN10librevenge16RVNGPropertyListE.part.0
_ZN12OdfGenerator18defineGraphicStyleERKN10librevenge16RVNGPropertyListE.part.0.cold
_ZN12OdfGenerator18insertBinaryObjectERKN10librevenge16RVNGPropertyListE
_ZN12OdfGenerator18insertBinaryObjectERKN10librevenge16RVNGPropertyListE.cold
_ZN12OdfGenerator19setDocumentMetaDataERKN10librevenge16RVNGPropertyListE
_ZN12OdfGenerator19setDocumentMetaDataERKN10librevenge16RVNGPropertyListE.cold
_ZN12OdfGenerator20defineCharacterStyleERKN10librevenge16RVNGPropertyListE.part.0
_ZN12OdfGenerator20defineParagraphStyleERKN10librevenge16RVNGPropertyListE.part.0
_ZN12OdfGenerator21appendFilesInManifestEP18OdfDocumentHandler
_ZN12OdfGenerator21appendFilesInManifestEP18OdfDocumentHandler.cold
_ZN12OdfGenerator21writeDocumentMetaDataEP18OdfDocumentHandler
_ZN12OdfGenerator21writeDocumentMetaDataEP18OdfDocumentHandler.cold
_ZN12OdfGenerator22insertCoveredTableCellERKN10librevenge16RVNGPropertyListE
_ZN12OdfGenerator22insertCoveredTableCellERKN10librevenge16RVNGPropertyListE.cold
_ZN12OdfGenerator24appendLayersMasterStylesEP18OdfDocumentHandler
_ZN12OdfGenerator24appendLayersMasterStylesEP18OdfDocumentHandler.cold
_ZN12OdfGenerator26getCurrentGraphicStyleNameERKN10librevenge16RVNGPropertyListE
_ZN12OdfGenerator26getCurrentGraphicStyleNameERKN10librevenge16RVNGPropertyListE.cold
_ZN12OdfGenerator8drawPathERKN10librevenge22RVNGPropertyListVectorERKNS0_16RVNGPropertyListE
_ZN12OdfGenerator8drawPathERKN10librevenge22RVNGPropertyListVectorERKNS0_16RVNGPropertyListE.cold
_ZN12OdfGenerator8openLinkERKN10librevenge16RVNGPropertyListE
_ZN12OdfGenerator8openLinkERKN10librevenge16RVNGPropertyListE.cold
_ZN12OdfGenerator8openSpanERKN10librevenge16RVNGPropertyListE
_ZN12OdfGenerator8openSpanERKN10librevenge16RVNGPropertyListE.cold
_ZN12OdfGenerator9closeLinkEv
_ZN12OdfGenerator9closeLinkEv.cold
_ZN12OdfGenerator9closeSpanEv
_ZN12OdfGenerator9closeSpanEv.cold
_ZN12OdfGenerator9insertTabEv
_ZN12OdfGenerator9insertTabEv.cold
_ZN12OdfGenerator9openFrameERKN10librevenge16RVNGPropertyListE
_ZN12OdfGenerator9openFrameERKN10librevenge16RVNGPropertyListE.cold
_ZN12OdfGenerator9openGroupERKN10librevenge16RVNGPropertyListE
_ZN12OdfGenerator9openGroupERKN10librevenge16RVNGPropertyListE.cold
_ZN12OdfGenerator9openTableERKN10librevenge16RVNGPropertyListE
_ZN12OdfGenerator9openTableERKN10librevenge16RVNGPropertyListE.cold
_ZN12OdfGeneratorC2Ev
_ZN12OdfGeneratorC2Ev.cold
_ZN12OdfGeneratorD2Ev
_ZN12OdgGenerator10closeGroupEv
_ZN12OdgGenerator10closeGroupEv.cold
_ZN12OdgGenerator10insertTextERKN10librevenge10RVNGStringE
_ZN12OdgGenerator10startLayerERKN10librevenge16RVNGPropertyListE
_ZN12OdgGenerator10startLayerERKN10librevenge16RVNGPropertyListE.cold
_ZN12OdgGenerator11drawEllipseERKN10librevenge16RVNGPropertyListE
_ZN12OdgGenerator11drawPolygonERKN10librevenge16RVNGPropertyListE
_ZN12OdgGenerator11endDocumentEv
_ZN12OdgGenerator11insertFieldERKN10librevenge16RVNGPropertyListE
_ZN12OdgGenerator11insertSpaceEv
_ZN12OdgGenerator12drawPolylineERKN10librevenge16RVNGPropertyListE
_ZN12OdgGenerator12openTableRowERKN10librevenge16RVNGPropertyListE
_ZN12OdgGenerator13closeTableRowEv
_ZN12OdgGenerator13drawConnectorERKN10librevenge16RVNGPropertyListE
_ZN12OdgGenerator13drawRectangleERKN10librevenge16RVNGPropertyListE
_ZN12OdgGenerator13endMasterPageEv
_ZN12OdgGenerator13endTextObjectEv
_ZN12OdgGenerator13endTextObjectEv.cold
_ZN12OdgGenerator13initStateWithERK12OdfGenerator
_ZN12OdgGenerator13openParagraphERKN10librevenge16RVNGPropertyListE
_ZN12OdgGenerator13openParagraphERKN10librevenge16RVNGPropertyListE.cold
_ZN12OdgGenerator13openTableCellERKN10librevenge16RVNGPropertyListE
_ZN12OdgGenerator13openTableCellERKN10librevenge16RVNGPropertyListE.cold
_ZN12OdgGenerator13startDocumentERKN10librevenge16RVNGPropertyListE
_ZN12OdgGenerator14closeParagraphEv
_ZN12OdgGenerator14closeTableCellEv
_ZN12OdgGenerator14endTableObjectEv
_ZN12OdgGenerator14endTableObjectEv.cold
_ZN12OdgGenerator15insertLineBreakEv
_ZN12OdgGenerator15openListElementERKN10librevenge16RVNGPropertyListE
_ZN12OdgGenerator15startMasterPageERKN10librevenge16RVNGPropertyListE
_ZN12OdgGenerator15startMasterPageERKN10librevenge16RVNGPropertyListE.cold
_ZN12OdgGenerator15startTextObjectERKN10librevenge16RVNGPropertyListE
_ZN12OdgGenerator15startTextObjectERKN10librevenge16RVNGPropertyListE.cold
_ZN12OdgGenerator16closeListElementEv
_ZN12OdgGenerator16getObjectContentERKN10librevenge10RVNGStringEP18OdfDocumentHandler
_ZN12OdgGenerator16startTableObjectERKN10librevenge16RVNGPropertyListE
_ZN12OdgGenerator16startTableObjectERKN10librevenge16RVNGPropertyListE.cold
_ZN12OdgGenerator17drawGraphicObjectERKN10librevenge16RVNGPropertyListE
_ZN12OdgGenerator17drawGraphicObjectERKN10librevenge16RVNGPropertyListE.cold
_ZN12OdgGenerator18addDocumentHandlerEP18OdfDocumentHandler13OdfStreamType
_ZN12OdgGenerator18defineEmbeddedFontERKN10librevenge16RVNGPropertyListE
_ZN12OdgGenerator19endEmbeddedGraphicsEv
_ZN12OdgGenerator19setDocumentMetaDataERKN10librevenge16RVNGPropertyListE
_ZN12OdgGenerator20defineCharacterStyleERKN10librevenge16RVNGPropertyListE
_ZN12OdgGenerator20defineParagraphStyleERKN10librevenge16RVNGPropertyListE
_ZN12OdgGenerator20openOrderedListLevelERKN10librevenge16RVNGPropertyListE
_ZN12OdgGenerator21closeOrderedListLevelEv
_ZN12OdgGenerator21startEmbeddedGraphicsERKN10librevenge16RVNGPropertyListE
_ZN12OdgGenerator22insertCoveredTableCellERKN10librevenge16RVNGPropertyListE
_ZN12OdgGenerator22openUnorderedListLevelERKN10librevenge16RVNGPropertyListE
_ZN12OdgGenerator23closeUnorderedListLevelEv
_ZN12OdgGenerator28registerEmbeddedImageHandlerERKN10librevenge10RVNGStringEPFbRKNS0_14RVNGBinaryDataERS4_E
_ZN12OdgGenerator29registerEmbeddedObjectHandlerERKN10librevenge10RVNGStringEPFbRKNS0_14RVNGBinaryDataEP18OdfDocumentHandler13OdfStreamTypeE
_ZN12OdgGenerator7endPageEv
_ZN12OdgGenerator7endPageEv.cold
_ZN12OdgGenerator8drawPathERKN10librevenge16RVNGPropertyListE
_ZN12OdgGenerator8endLayerEv
_ZN12OdgGenerator8endLayerEv.cold
_ZN12OdgGenerator8openLinkERKN10librevenge16RVNGPropertyListE
_ZN12OdgGenerator8openSpanERKN10librevenge16RVNGPropertyListE
_ZN12OdgGenerator8setStyleERKN10librevenge16RVNGPropertyListE
_ZN12OdgGenerator9closeLinkEv
_ZN12OdgGenerator9closeSpanEv
_ZN12OdgGenerator9insertTabEv
_ZN12OdgGenerator9openGroupERKN10librevenge16RVNGPropertyListE
_ZN12OdgGenerator9openGroupERKN10librevenge16RVNGPropertyListE.cold
_ZN12OdgGenerator9startPageERKN10librevenge16RVNGPropertyListE
_ZN12OdgGenerator9startPageERKN10librevenge16RVNGPropertyListE.cold
_ZN12OdgGeneratorC1Ev
_ZN12OdgGeneratorC2Ev
_ZN12OdgGeneratorC2Ev.cold
_ZN12OdgGeneratorD0Ev
_ZN12OdgGeneratorD1Ev
_ZN12OdgGeneratorD2Ev
_ZN12OdpGenerator10closeChartEv
_ZN12OdpGenerator10closeGroupEv
_ZN12OdpGenerator10endCommentEv
_ZN12OdpGenerator10endCommentEv.cold
_ZN12OdpGenerator10insertTextERKN10librevenge10RVNGStringE
_ZN12OdpGenerator10startLayerERKN10librevenge16RVNGPropertyListE
_ZN12OdpGenerator10startNotesERKN10librevenge16RVNGPropertyListE
_ZN12OdpGenerator10startNotesERKN10librevenge16RVNGPropertyListE.cold
_ZN12OdpGenerator10startSlideERKN10librevenge16RVNGPropertyListE
_ZN12OdpGenerator10startSlideERKN10librevenge16RVNGPropertyListE.cold
_ZN12OdpGenerator11drawEllipseERKN10librevenge16RVNGPropertyListE
_ZN12OdpGenerator11drawPolygonERKN10librevenge16RVNGPropertyListE
_ZN12OdpGenerator11endDocumentEv
_ZN12OdpGenerator11insertFieldERKN10librevenge16RVNGPropertyListE
_ZN12OdpGenerator11insertSpaceEv
_ZN12OdpGenerator12drawPolylineERKN10librevenge16RVNGPropertyListE
_ZN12OdpGenerator12insertEffectERKN10librevenge16RVNGPropertyListE
_ZN12OdpGenerator12openTableRowERKN10librevenge16RVNGPropertyListE
_ZN12OdpGenerator12startCommentERKN10librevenge16RVNGPropertyListE
_ZN12OdpGenerator12startCommentERKN10librevenge16RVNGPropertyListE.cold
_ZN12OdpGenerator13closeTableRowEv
_ZN12OdpGenerator13drawConnectorERKN10librevenge16RVNGPropertyListE
_ZN12OdpGenerator13drawRectangleERKN10librevenge16RVNGPropertyListE
_ZN12OdpGenerator13endTextObjectEv
_ZN12OdpGenerator13endTextObjectEv.cold
_ZN12OdpGenerator13initStateWithERK12OdfGenerator
_ZN12OdpGenerator13openParagraphERKN10librevenge16RVNGPropertyListE
_ZN12OdpGenerator13openTableCellERKN10librevenge16RVNGPropertyListE
_ZN12OdpGenerator13openTableCellERKN10librevenge16RVNGPropertyListE.cold
_ZN12OdpGenerator13startDocumentERKN10librevenge16RVNGPropertyListE
_ZN12OdpGenerator14closeParagraphEv
_ZN12OdpGenerator14closeTableCellEv
_ZN12OdpGenerator14endMasterSlideEv
_ZN12OdpGenerator14endTableObjectEv
_ZN12OdpGenerator14endTableObjectEv.cold
_ZN12OdpGenerator15insertAnimationERKN10librevenge16RVNGPropertyListE
_ZN12OdpGenerator15insertChartAxisERKN10librevenge16RVNGPropertyListE
_ZN12OdpGenerator15insertLineBreakEv
_ZN12OdpGenerator15openChartSeriesERKN10librevenge16RVNGPropertyListE
_ZN12OdpGenerator15openListElementERKN10librevenge16RVNGPropertyListE
_ZN12OdpGenerator15startTextObjectERKN10librevenge16RVNGPropertyListE
_ZN12OdpGenerator15startTextObjectERKN10librevenge16RVNGPropertyListE.cold
_ZN12OdpGenerator16closeChartSeriesEv
_ZN12OdpGenerator16closeListElementEv
_ZN12OdpGenerator16defineChartStyleERKN10librevenge16RVNGPropertyListE
_ZN12OdpGenerator16getObjectContentERKN10librevenge10RVNGStringEP18OdfDocumentHandler
_ZN12OdpGenerator16startMasterSlideERKN10librevenge16RVNGPropertyListE
_ZN12OdpGenerator16startMasterSlideERKN10librevenge16RVNGPropertyListE.cold
_ZN12OdpGenerator16startTableObjectERKN10librevenge16RVNGPropertyListE
_ZN12OdpGenerator16startTableObjectERKN10librevenge16RVNGPropertyListE.cold
_ZN12OdpGenerator17drawGraphicObjectERKN10librevenge16RVNGPropertyListE
_ZN12OdpGenerator17drawGraphicObjectERKN10librevenge16RVNGPropertyListE.cold
_ZN12OdpGenerator17openChartPlotAreaERKN10librevenge16RVNGPropertyListE
_ZN12OdpGenerator18addDocumentHandlerEP18OdfDocumentHandler13OdfStreamType
_ZN12OdpGenerator18closeChartPlotAreaEv
_ZN12OdpGenerator18defineEmbeddedFontERKN10librevenge16RVNGPropertyListE
_ZN12OdpGenerator18openAnimationGroupERKN10librevenge16RVNGPropertyListE
_ZN12OdpGenerator18setSlideTransitionERKN10librevenge16RVNGPropertyListE
_ZN12OdpGenerator19closeAnimationGroupEv
_ZN12OdpGenerator19endEmbeddedGraphicsEv
_ZN12OdpGenerator19openChartTextObjectERKN10librevenge16RVNGPropertyListE
_ZN12OdpGenerator19setDocumentMetaDataERKN10librevenge16RVNGPropertyListE
_ZN12OdpGenerator20closeChartTextObjectEv
_ZN12OdpGenerator20defineCharacterStyleERKN10librevenge16RVNGPropertyListE
_ZN12OdpGenerator20defineParagraphStyleERKN10librevenge16RVNGPropertyListE
_ZN12OdpGenerator20insertColorAnimationERKN10librevenge16RVNGPropertyListE
_ZN12OdpGenerator20openOrderedListLevelERKN10librevenge16RVNGPropertyListE
_ZN12OdpGenerator21closeOrderedListLevelEv
_ZN12OdpGenerator21insertMotionAnimationERKN10librevenge16RVNGPropertyListE
_ZN12OdpGenerator21openAnimationSequenceERKN10librevenge16RVNGPropertyListE
_ZN12OdpGenerator21startEmbeddedGraphicsERKN10librevenge16RVNGPropertyListE
_ZN12OdpGenerator22closeAnimationSequenceEv
_ZN12OdpGenerator22insertCoveredTableCellERKN10librevenge16RVNGPropertyListE
_ZN12OdpGenerator22openAnimationIterationERKN10librevenge16RVNGPropertyListE
_ZN12OdpGenerator22openUnorderedListLevelERKN10librevenge16RVNGPropertyListE
_ZN12OdpGenerator23closeAnimationIterationEv
_ZN12OdpGenerator23closeUnorderedListLevelEv
_ZN12OdpGenerator28registerEmbeddedImageHandlerERKN10librevenge10RVNGStringEPFbRKNS0_14RVNGBinaryDataERS4_E
_ZN12OdpGenerator29registerEmbeddedObjectHandlerERKN10librevenge10RVNGStringEPFbRKNS0_14RVNGBinaryDataEP18OdfDocumentHandler13OdfStreamTypeE
_ZN12OdpGenerator8drawPathERKN10librevenge16RVNGPropertyListE
_ZN12OdpGenerator8endLayerEv
_ZN12OdpGenerator8endNotesEv
_ZN12OdpGenerator8endNotesEv.cold
_ZN12OdpGenerator8endSlideEv
_ZN12OdpGenerator8endSlideEv.cold
_ZN12OdpGenerator8openLinkERKN10librevenge16RVNGPropertyListE
_ZN12OdpGenerator8openSpanERKN10librevenge16RVNGPropertyListE
_ZN12OdpGenerator8setStyleERKN10librevenge16RVNGPropertyListE
_ZN12OdpGenerator9closeLinkEv
_ZN12OdpGenerator9closeSpanEv
_ZN12OdpGenerator9insertTabEv
_ZN12OdpGenerator9openChartERKN10librevenge16RVNGPropertyListE
_ZN12OdpGenerator9openGroupERKN10librevenge16RVNGPropertyListE
_ZN12OdpGeneratorC1Ev
_ZN12OdpGeneratorC2Ev
_ZN12OdpGeneratorC2Ev.cold
_ZN12OdpGeneratorD0Ev
_ZN12OdpGeneratorD1Ev
_ZN12OdpGeneratorD2Ev
_ZN12OdsGenerator10closeChartEv
_ZN12OdsGenerator10closeChartEv.cold
_ZN12OdsGenerator10closeFrameEv
_ZN12OdsGenerator10closeGroupEv
_ZN12OdsGenerator10closeSheetEv
_ZN12OdsGenerator10closeSheetEv.cold
_ZN12OdsGenerator10closeTableEv
_ZN12OdsGenerator10closeTableEv.cold
_ZN12OdsGenerator10insertTextERKN10librevenge10RVNGStringE
_ZN12OdsGenerator10openFooterERKN10librevenge16RVNGPropertyListE
_ZN12OdsGenerator10openFooterERKN10librevenge16RVNGPropertyListE.cold
_ZN12OdsGenerator10openHeaderERKN10librevenge16RVNGPropertyListE
_ZN12OdsGenerator10openHeaderERKN10librevenge16RVNGPropertyListE.cold
_ZN12OdsGenerator11closeFooterEv
_ZN12OdsGenerator11closeFooterEv.part.0
_ZN12OdsGenerator11closeHeaderEv
_ZN12OdsGenerator11closeHeaderEv.part.0
_ZN12OdsGenerator11drawEllipseERKN10librevenge16RVNGPropertyListE
_ZN12OdsGenerator11drawPolygonERKN10librevenge16RVNGPropertyListE
_ZN12OdsGenerator11endDocumentEv
_ZN12OdsGenerator11insertFieldERKN10librevenge16RVNGPropertyListE
_ZN12OdsGenerator11insertFieldERKN10librevenge16RVNGPropertyListE.cold
_ZN12OdsGenerator11insertSpaceEv
_ZN12OdsGenerator11openCommentERKN10librevenge16RVNGPropertyListE
_ZN12OdsGenerator11openCommentERKN10librevenge16RVNGPropertyListE.cold
_ZN12OdsGenerator11openSectionERKN10librevenge16RVNGPropertyListE
_ZN12OdsGenerator11openTextBoxERKN10librevenge16RVNGPropertyListE
_ZN12OdsGenerator11openTextBoxERKN10librevenge16RVNGPropertyListE.cold
_ZN12OdsGenerator12closeCommentEv
_ZN12OdsGenerator12closeCommentEv.cold
_ZN12OdsGenerator12closeSectionEv
_ZN12OdsGenerator12closeTextBoxEv
_ZN12OdsGenerator12closeTextBoxEv.cold
_ZN12OdsGenerator12drawPolylineERKN10librevenge16RVNGPropertyListE
_ZN12OdsGenerator12openFootnoteERKN10librevenge16RVNGPropertyListE
_ZN12OdsGenerator12openPageSpanERKN10librevenge16RVNGPropertyListE
_ZN12OdsGenerator12openSheetRowERKN10librevenge16RVNGPropertyListE
_ZN12OdsGenerator12openSheetRowERKN10librevenge16RVNGPropertyListE.cold
_ZN12OdsGenerator12openTableRowERKN10librevenge16RVNGPropertyListE
_ZN12OdsGenerator13closeFootnoteEv
_ZN12OdsGenerator13closePageSpanEv
_ZN12OdsGenerator13closeSheetRowEv
_ZN12OdsGenerator13closeSheetRowEv.cold
_ZN12OdsGenerator13closeTableRowEv
_ZN12OdsGenerator13drawConnectorERKN10librevenge16RVNGPropertyListE
_ZN12OdsGenerator13drawRectangleERKN10librevenge16RVNGPropertyListE
_ZN12OdsGenerator13initStateWithERK12OdfGenerator
_ZN12OdsGenerator13openParagraphERKN10librevenge16RVNGPropertyListE
_ZN12OdsGenerator13openParagraphERKN10librevenge16RVNGPropertyListE.cold
_ZN12OdsGenerator13openSheetCellERKN10librevenge16RVNGPropertyListE
_ZN12OdsGenerator13openSheetCellERKN10librevenge16RVNGPropertyListE.cold
_ZN12OdsGenerator13openTableCellERKN10librevenge16RVNGPropertyListE
_ZN12OdsGenerator13startDocumentERKN10librevenge16RVNGPropertyListE
_ZN12OdsGenerator14closeParagraphEv
_ZN12OdsGenerator14closeSheetCellEv
_ZN12OdsGenerator14closeSheetCellEv.cold
_ZN12OdsGenerator14closeTableCellEv
_ZN12OdsGenerator14insertEquationERKN10librevenge16RVNGPropertyListE
_ZN12OdsGenerator14openChartSerieERKN10librevenge16RVNGPropertyListE
_ZN12OdsGenerator15closeChartSerieEv
_ZN12OdsGenerator15closeChartSerieEv.cold
_ZN12OdsGenerator15definePageStyleERKN10librevenge16RVNGPropertyListE
_ZN12OdsGenerator15insertChartAxisERKN10librevenge16RVNGPropertyListE
_ZN12OdsGenerator15insertLineBreakEv
_ZN12OdsGenerator15openListElementERKN10librevenge16RVNGPropertyListE
_ZN12OdsGenerator16closeListElementEv
_ZN12OdsGenerator16defineChartStyleERKN10librevenge16RVNGPropertyListE
_ZN12OdsGenerator16getObjectContentERKN10librevenge10RVNGStringEP18OdfDocumentHandler
_ZN12OdsGenerator17openChartPlotAreaERKN10librevenge16RVNGPropertyListE
_ZN12OdsGenerator18addDocumentHandlerEP18OdfDocumentHandler13OdfStreamType
_ZN12OdsGenerator18closeChartPlotAreaEv
_ZN12OdsGenerator18closeChartPlotAreaEv.cold
_ZN12OdsGenerator18defineEmbeddedFontERKN10librevenge16RVNGPropertyListE
_ZN12OdsGenerator18defineGraphicStyleERKN10librevenge16RVNGPropertyListE
_ZN12OdsGenerator18defineSectionStyleERKN10librevenge16RVNGPropertyListE
_ZN12OdsGenerator18insertBinaryObjectERKN10librevenge16RVNGPropertyListE
_ZN12OdsGenerator19openChartTextObjectERKN10librevenge16RVNGPropertyListE
_ZN12OdsGenerator19openChartTextObjectERKN10librevenge16RVNGPropertyListE.cold
_ZN12OdsGenerator19setDocumentMetaDataERKN10librevenge16RVNGPropertyListE
_ZN12OdsGenerator20closeChartTextObjectEv
_ZN12OdsGenerator20closeChartTextObjectEv.cold
_ZN12OdsGenerator20defineCharacterStyleERKN10librevenge16RVNGPropertyListE
_ZN12OdsGenerator20defineParagraphStyleERKN10librevenge16RVNGPropertyListE
_ZN12OdsGenerator20openOrderedListLevelERKN10librevenge16RVNGPropertyListE
_ZN12OdsGenerator21closeOrderedListLevelEv
_ZN12OdsGenerator22insertCoveredTableCellERKN10librevenge16RVNGPropertyListE
_ZN12OdsGenerator22openUnorderedListLevelERKN10librevenge16RVNGPropertyListE
_ZN12OdsGenerator23closeUnorderedListLevelEv
_ZN12OdsGenerator25defineSheetNumberingStyleERKN10librevenge16RVNGPropertyListE
_ZN12OdsGenerator25defineSheetNumberingStyleERKN10librevenge16RVNGPropertyListE.cold
_ZN12OdsGenerator28registerEmbeddedImageHandlerERKN10librevenge10RVNGStringEPFbRKNS0_14RVNGBinaryDataERS4_E
_ZN12OdsGenerator29registerEmbeddedObjectHandlerERKN10librevenge10RVNGStringEPFbRKNS0_14RVNGBinaryDataEP18OdfDocumentHandler13OdfStreamTypeE
_ZN12OdsGenerator8drawPathERKN10librevenge16RVNGPropertyListE
_ZN12OdsGenerator8openLinkERKN10librevenge16RVNGPropertyListE
_ZN12OdsGenerator8openSpanERKN10librevenge16RVNGPropertyListE
_ZN12OdsGenerator9closeLinkEv
_ZN12OdsGenerator9closeSpanEv
_ZN12OdsGenerator9insertTabEv
_ZN12OdsGenerator9openChartERKN10librevenge16RVNGPropertyListE
_ZN12OdsGenerator9openChartERKN10librevenge16RVNGPropertyListE.cold
_ZN12OdsGenerator9openFrameERKN10librevenge16RVNGPropertyListE
_ZN12OdsGenerator9openFrameERKN10librevenge16RVNGPropertyListE.cold
_ZN12OdsGenerator9openGroupERKN10librevenge16RVNGPropertyListE
_ZN12OdsGenerator9openSheetERKN10librevenge16RVNGPropertyListE
_ZN12OdsGenerator9openSheetERKN10librevenge16RVNGPropertyListE.cold
_ZN12OdsGenerator9openTableERKN10librevenge16RVNGPropertyListE
_ZN12OdsGenerator9openTableERKN10librevenge16RVNGPropertyListE.cold
_ZN12OdsGeneratorC1Ev
_ZN12OdsGeneratorC2Ev
_ZN12OdsGeneratorC2Ev.cold
_ZN12OdsGeneratorD0Ev
_ZN12OdsGeneratorD1Ev
_ZN12OdsGeneratorD2Ev
_ZN12OdtGenerator10closeFrameEv
_ZN12OdtGenerator10closeFrameEv.localalias.lto_priv.0
_ZN12OdtGenerator10closeGroupEv
_ZN12OdtGenerator10closeGroupEv.localalias.lto_priv.0
_ZN12OdtGenerator10closeTableEv
_ZN12OdtGenerator10closeTableEv.localalias.lto_priv.0
_ZN12OdtGenerator10insertTextERKN10librevenge10RVNGStringE
_ZN12OdtGenerator10insertTextERKN10librevenge10RVNGStringE.localalias.lto_priv.0
_ZN12OdtGenerator10openFooterERKN10librevenge16RVNGPropertyListE
_ZN12OdtGenerator10openFooterERKN10librevenge16RVNGPropertyListE.cold
_ZN12OdtGenerator10openHeaderERKN10librevenge16RVNGPropertyListE
_ZN12OdtGenerator10openHeaderERKN10librevenge16RVNGPropertyListE.cold
_ZN12OdtGenerator11closeFooterEv
_ZN12OdtGenerator11closeHeaderEv
_ZN12OdtGenerator11drawEllipseERKN10librevenge16RVNGPropertyListE
_ZN12OdtGenerator11drawEllipseERKN10librevenge16RVNGPropertyListE.localalias.lto_priv.0
_ZN12OdtGenerator11drawPolygonERKN10librevenge16RVNGPropertyListE
_ZN12OdtGenerator11drawPolygonERKN10librevenge16RVNGPropertyListE.localalias.lto_priv.0
_ZN12OdtGenerator11endDocumentEv
_ZN12OdtGenerator11insertFieldERKN10librevenge16RVNGPropertyListE
_ZN12OdtGenerator11insertFieldERKN10librevenge16RVNGPropertyListE.localalias.lto_priv.0
_ZN12OdtGenerator11insertSpaceEv
_ZN12OdtGenerator11insertSpaceEv.localalias.lto_priv.0
_ZN12OdtGenerator11openCommentERKN10librevenge16RVNGPropertyListE
_ZN12OdtGenerator11openCommentERKN10librevenge16RVNGPropertyListE.cold
_ZN12OdtGenerator11openEndnoteERKN10librevenge16RVNGPropertyListE
_ZN12OdtGenerator11openEndnoteERKN10librevenge16RVNGPropertyListE.cold
_ZN12OdtGenerator11openSectionERKN10librevenge16RVNGPropertyListE
_ZN12OdtGenerator11openSectionERKN10librevenge16RVNGPropertyListE.cold
_ZN12OdtGenerator11openTextBoxERKN10librevenge16RVNGPropertyListE
_ZN12OdtGenerator11openTextBoxERKN10librevenge16RVNGPropertyListE.cold
_ZN12OdtGenerator12closeCommentEv
_ZN12OdtGenerator12closeCommentEv.cold
_ZN12OdtGenerator12closeEndnoteEv
_ZN12OdtGenerator12closeEndnoteEv.cold
_ZN12OdtGenerator12closeSectionEv
_ZN12OdtGenerator12closeSectionEv.cold
_ZN12OdtGenerator12closeTextBoxEv
_ZN12OdtGenerator12closeTextBoxEv.cold
_ZN12OdtGenerator12drawPolylineERKN10librevenge16RVNGPropertyListE
_ZN12OdtGenerator12drawPolylineERKN10librevenge16RVNGPropertyListE.localalias.lto_priv.0
_ZN12OdtGenerator12openFootnoteERKN10librevenge16RVNGPropertyListE
_ZN12OdtGenerator12openFootnoteERKN10librevenge16RVNGPropertyListE.cold
_ZN12OdtGenerator12openPageSpanERKN10librevenge16RVNGPropertyListE
_ZN12OdtGenerator12openTableRowERKN10librevenge16RVNGPropertyListE
_ZN12OdtGenerator12openTableRowERKN10librevenge16RVNGPropertyListE.localalias.lto_priv.0
_ZN12OdtGenerator13closeFootnoteEv
_ZN12OdtGenerator13closeFootnoteEv.cold
_ZN12OdtGenerator13closePageSpanEv
_ZN12OdtGenerator13closeTableRowEv
_ZN12OdtGenerator13closeTableRowEv.localalias.lto_priv.0
_ZN12OdtGenerator13drawConnectorERKN10librevenge16RVNGPropertyListE
_ZN12OdtGenerator13drawRectangleERKN10librevenge16RVNGPropertyListE
_ZN12OdtGenerator13drawRectangleERKN10librevenge16RVNGPropertyListE.localalias.lto_priv.0
_ZN12OdtGenerator13initStateWithERK12OdfGenerator
_ZN12OdtGenerator13openParagraphERKN10librevenge16RVNGPropertyListE
_ZN12OdtGenerator13openParagraphERKN10librevenge16RVNGPropertyListE.cold
_ZN12OdtGenerator13openTableCellERKN10librevenge16RVNGPropertyListE
_ZN12OdtGenerator13openTableCellERKN10librevenge16RVNGPropertyListE.localalias.lto_priv.0
_ZN12OdtGenerator13startDocumentERKN10librevenge16RVNGPropertyListE
_ZN12OdtGenerator14closeParagraphEv
_ZN12OdtGenerator14closeParagraphEv.localalias.lto_priv.0
_ZN12OdtGenerator14closeTableCellEv
_ZN12OdtGenerator14closeTableCellEv.localalias.lto_priv.0
_ZN12OdtGenerator14insertEquationERKN10librevenge16RVNGPropertyListE
_ZN12OdtGenerator14insertEquationERKN10librevenge16RVNGPropertyListE.localalias.lto_priv.0
_ZN12OdtGenerator15definePageStyleERKN10librevenge16RVNGPropertyListE
_ZN12OdtGenerator15insertLineBreakEv
_ZN12OdtGenerator15insertLineBreakEv.localalias.lto_priv.0
_ZN12OdtGenerator15openListElementERKN10librevenge16RVNGPropertyListE
_ZN12OdtGenerator15openListElementERKN10librevenge16RVNGPropertyListE.cold
_ZN12OdtGenerator16closeListElementEv
_ZN12OdtGenerator16closeListElementEv.localalias.lto_priv.0
_ZN12OdtGenerator16getObjectContentERKN10librevenge10RVNGStringEP18OdfDocumentHandler
_ZN12OdtGenerator18addDocumentHandlerEP18OdfDocumentHandler13OdfStreamType
_ZN12OdtGenerator18defineEmbeddedFontERKN10librevenge16RVNGPropertyListE
_ZN12OdtGenerator18defineGraphicStyleERKN10librevenge16RVNGPropertyListE
_ZN12OdtGenerator18defineGraphicStyleERKN10librevenge16RVNGPropertyListE.localalias.lto_priv.0
_ZN12OdtGenerator18defineSectionStyleERKN10librevenge16RVNGPropertyListE
_ZN12OdtGenerator18insertBinaryObjectERKN10librevenge16RVNGPropertyListE
_ZN12OdtGenerator18insertBinaryObjectERKN10librevenge16RVNGPropertyListE.localalias.lto_priv.0
_ZN12OdtGenerator19setDocumentMetaDataERKN10librevenge16RVNGPropertyListE
_ZN12OdtGenerator20defineCharacterStyleERKN10librevenge16RVNGPropertyListE
_ZN12OdtGenerator20defineCharacterStyleERKN10librevenge16RVNGPropertyListE.localalias.lto_priv.0
_ZN12OdtGenerator20defineParagraphStyleERKN10librevenge16RVNGPropertyListE
_ZN12OdtGenerator20defineParagraphStyleERKN10librevenge16RVNGPropertyListE.localalias.lto_priv.0
_ZN12OdtGenerator20openOrderedListLevelERKN10librevenge16RVNGPropertyListE
_ZN12OdtGenerator20openOrderedListLevelERKN10librevenge16RVNGPropertyListE.localalias.lto_priv.0
_ZN12OdtGenerator21closeOrderedListLevelEv
_ZN12OdtGenerator21closeOrderedListLevelEv.localalias.lto_priv.0
_ZN12OdtGenerator22insertCoveredTableCellERKN10librevenge16RVNGPropertyListE
_ZN12OdtGenerator22insertCoveredTableCellERKN10librevenge16RVNGPropertyListE.localalias.lto_priv.0
_ZN12OdtGenerator22openUnorderedListLevelERKN10librevenge16RVNGPropertyListE
_ZN12OdtGenerator22openUnorderedListLevelERKN10librevenge16RVNGPropertyListE.localalias.lto_priv.0
_ZN12OdtGenerator23closeUnorderedListLevelEv
_ZN12OdtGenerator23closeUnorderedListLevelEv.localalias.lto_priv.0
_ZN12OdtGenerator28registerEmbeddedImageHandlerERKN10librevenge10RVNGStringEPFbRKNS0_14RVNGBinaryDataERS4_E
_ZN12OdtGenerator29registerEmbeddedObjectHandlerERKN10librevenge10RVNGStringEPFbRKNS0_14RVNGBinaryDataEP18OdfDocumentHandler13OdfStreamTypeE
_ZN12OdtGenerator8drawPathERKN10librevenge16RVNGPropertyListE
_ZN12OdtGenerator8drawPathERKN10librevenge16RVNGPropertyListE.localalias.lto_priv.0
_ZN12OdtGenerator8openLinkERKN10librevenge16RVNGPropertyListE
_ZN12OdtGenerator8openLinkERKN10librevenge16RVNGPropertyListE.localalias.lto_priv.0
_ZN12OdtGenerator8openSpanERKN10librevenge16RVNGPropertyListE
_ZN12OdtGenerator8openSpanERKN10librevenge16RVNGPropertyListE.localalias.lto_priv.0
_ZN12OdtGenerator9closeLinkEv
_ZN12OdtGenerator9closeLinkEv.localalias.lto_priv.0
_ZN12OdtGenerator9closeSpanEv
_ZN12OdtGenerator9closeSpanEv.localalias.lto_priv.0
_ZN12OdtGenerator9insertTabEv
_ZN12OdtGenerator9insertTabEv.localalias.lto_priv.0
_ZN12OdtGenerator9openFrameERKN10librevenge16RVNGPropertyListE
_ZN12OdtGenerator9openFrameERKN10librevenge16RVNGPropertyListE.cold
_ZN12OdtGenerator9openGroupERKN10librevenge16RVNGPropertyListE
_ZN12OdtGenerator9openGroupERKN10librevenge16RVNGPropertyListE.localalias.lto_priv.0
_ZN12OdtGenerator9openTableERKN10librevenge16RVNGPropertyListE
_ZN12OdtGenerator9openTableERKN10librevenge16RVNGPropertyListE.cold
_ZN12OdtGeneratorC1Ev
_ZN12OdtGeneratorC2Ev
_ZN12OdtGeneratorC2Ev.cold
_ZN12OdtGeneratorD0Ev
_ZN12OdtGeneratorD1Ev
_ZN12OdtGeneratorD2Ev
_ZN12RagTime5Text13readLinkZonesERN20RagTime5TextInternal11ClusterTextERKN22RagTime5ClusterManager4LinkEi.isra.0
_ZN12RagTime5Text13readLinkZonesERN20RagTime5TextInternal11ClusterTextERKN22RagTime5ClusterManager4LinkEi.isra.0.cold
_ZN12RagTime5Text15readTextClusterER12RagTime5Zonei
_ZN12RagTime5Text15readTextClusterER12RagTime5Zonei.cold
_ZN12RagTime5Text4sendERN20RagTime5TextInternal11ClusterTextER12RagTime5ZoneSt10shared_ptrI12MWAWListenerEmmbd
_ZN12RagTime5Text4sendERN20RagTime5TextInternal11ClusterTextER12RagTime5ZoneSt10shared_ptrI12MWAWListenerEmmbd.cold
_ZN12RagTime5Text4sendERN20RagTime5TextInternal11ClusterTextESt10shared_ptrI12MWAWListenerEiid
_ZN12RagTime5Text4sendERN20RagTime5TextInternal11ClusterTextESt10shared_ptrI12MWAWListenerEiid.cold
_ZN12RagTime5TextD0Ev
_ZN12RagTime5TextD1Ev
_ZN12RagTime5TextD2Ev
_ZN12RagTime5Zone15createAsciiFileEv
_ZN12RagTime5Zone15createAsciiFileEv.cold
_ZN12RagTime5Zone19addErrorInDebugFileERKNSt7__cxx1112basic_stringIcSt11char_traitsIcESaIcEEE.isra.0
_ZN12RagTime5Zone5asciiEv
_ZN12RagTime5ZoneD0Ev
_ZN12RagTime5ZoneD1Ev
_ZN12RagTime5ZoneD2Ev
_ZN12SectionStyleD0Ev
_ZN12SectionStyleD1Ev
_ZN12SectionStyleD2Ev
_ZN12SheetManager14convertFormulaERKN10librevenge22RVNGPropertyListVectorE
_ZN12SheetManager14convertFormulaERKN10librevenge22RVNGPropertyListVectorE.cold
_ZN12SheetManager16convertCellRangeERKN10librevenge16RVNGPropertyListE
_ZN12SheetManager16convertCellRangeERKN10librevenge16RVNGPropertyListE.cold
_ZN12SheetManager17convertCellsRangeERKN10librevenge16RVNGPropertyListE
_ZN12SheetManager17convertCellsRangeERKN10librevenge16RVNGPropertyListE.cold
_ZN12SheetManager28convertRowOrColumnCellsRangeERKN10librevenge16RVNGPropertyListE
_ZN12SheetManager28convertRowOrColumnCellsRangeERKN10librevenge16RVNGPropertyListE.cold
_ZN12SheetManagerD0Ev
_ZN12SheetManagerD1Ev
_ZN12SheetManagerD2Ev
_ZN12TArrayObjectIN8IFF_RIFF12CartMetadata15StoredCartTimerEED0Ev
_ZN12TArrayObjectIN8IFF_RIFF12CartMetadata15StoredCartTimerEED1Ev
_ZN12TArrayObjectIN8IFF_RIFF12CartMetadata15StoredCartTimerEED2Ev
_ZN12TArrayObjectIN8IFF_RIFF12iXMLMetadata13TrackListInfoEE8setArrayEPKS2_j
_ZN12TArrayObjectIN8IFF_RIFF12iXMLMetadata13TrackListInfoEED0Ev
_ZN12TArrayObjectIN8IFF_RIFF12iXMLMetadata13TrackListInfoEED1Ev
_ZN12TArrayObjectIN8IFF_RIFF12iXMLMetadata13TrackListInfoEED2Ev
_ZN12TArrayObjectIhED0Ev
_ZN12TArrayObjectIhED1Ev
_ZN12TArrayObjectIhED2Ev
_ZN12TIFF_Manager11SetTag_LongEhtj
_ZN12TIFF_Manager12NotifyClientEhR9XMP_Error
_ZN12TIFF_Manager12NotifyClientEhR9XMP_Error.cold
_ZN12TIFF_Manager12NotifyClientEhR9XMP_Error.part.0
_ZN12TIFF_Manager12SetTag_ShortEhtt
_ZN12TIFF_Manager15CheckTIFFHeaderEPKhj
_ZN12TIFF_Manager15CheckTIFFHeaderEPKhj.cold
_ZN12TIFF_Manager15SetTag_RationalEhtjj
_ZN12TIFF_Manager16SetErrorCallbackEP20GenericErrorCallback
_ZN12TValueObjectINSt7__cxx1112basic_stringIcSt11char_traitsIcESaIcEEEED0Ev
_ZN12TValueObjectINSt7__cxx1112basic_stringIcSt11char_traitsIcESaIcEEEED1Ev
_ZN12TValueObjectINSt7__cxx1112basic_stringIcSt11char_traitsIcESaIcEEEED2Ev
_ZN12TValueObjectIbED0Ev
_ZN12TValueObjectIbED1Ev.lto_priv.0
_ZN12TValueObjectIbED2Ev.lto_priv.0
_ZN12TValueObjectIiED0Ev
_ZN12TValueObjectIiED1Ev
_ZN12TValueObjectIiED2Ev
_ZN12TValueObjectIjED0Ev
_ZN12TValueObjectIjED1Ev.lto_priv.0
_ZN12TValueObjectIjED2Ev.lto_priv.0
_ZN12TValueObjectImED0Ev
_ZN12TValueObjectImED1Ev
_ZN12TValueObjectImED2Ev
_ZN12TValueObjectItED0Ev
_ZN12TValueObjectItED1Ev
_ZN12TValueObjectItED2Ev
_ZN12TXMPIteratorINSt7__cxx1112basic_stringIcSt11char_traitsIcESaIcEEEE4NextEPS5_S7_S7_Pj
_ZN12TXMPIteratorINSt7__cxx1112basic_stringIcSt11char_traitsIcESaIcEEEE4NextEPS5_S7_S7_Pj.cold
_ZN12TXMPIteratorINSt7__cxx1112basic_stringIcSt11char_traitsIcESaIcEEEED0Ev
_ZN12TXMPIteratorINSt7__cxx1112basic_stringIcSt11char_traitsIcESaIcEEEED1Ev
_ZN12TXMPIteratorINSt7__cxx1112basic_stringIcSt11char_traitsIcESaIcEEEED1Ev.lto_priv.0
_ZN12TXMPIteratorINSt7__cxx1112basic_stringIcSt11char_traitsIcESaIcEEEED2Ev
_ZN12TXMPIteratorINSt7__cxx1112basic_stringIcSt11char_traitsIcESaIcEEEED2Ev.lto_priv.0
_ZN12TXMPIteratorINSt7__cxx1112basic_stringIcSt11char_traitsIcESaIcEEEED2Ev.lto_priv.0.cold
_ZN12TableManagerD0Ev
_ZN12TableManagerD1Ev
_ZN12TableManagerD2Ev
_ZN12WriteNowText11createZonesEv
_ZN12WriteNowText11createZonesEv.cold
_ZN12WriteNowText13readParagraphER15MWAWInputStreamRN20WriteNowTextInternal9ParagraphE
_ZN12WriteNowText13readParagraphER15MWAWInputStreamRN20WriteNowTextInternal9ParagraphE.cold
_ZN12WriteNowText4sendERK13WriteNowEntry
_ZN12WriteNowText4sendERK13WriteNowEntry.cold
_ZN12WriteNowText4sendERSt6vectorIN20WriteNowTextInternal11ContentZoneESaIS2_EERS0_ISt10shared_ptrINS1_12ContentZonesEESaIS8_EERNS1_9ParagraphE
_ZN12WriteNowText4sendERSt6vectorIN20WriteNowTextInternal11ContentZoneESaIS2_EERS0_ISt10shared_ptrINS1_12ContentZonesEESaIS8_EERNS1_9ParagraphE.cold
_ZN12WriteNowText8readFontER15MWAWInputStreambRN20WriteNowTextInternal4FontE
_ZN12WriteNowText8readFontER15MWAWInputStreambRN20WriteNowTextInternal4FontE.cold
_ZN12WriteNowText8sendZoneEi
_ZN12WriteNowText8sendZoneEi.cold
_ZN12WriteNowTextD0Ev
_ZN12WriteNowTextD1Ev
_ZN12WriteNowTextD2Ev
_ZN12_GLOBAL__N_110BlockQuote9proc_lineERNS_8IteratorE
_ZN12_GLOBAL__N_110BlockQuoteD0Ev
_ZN12_GLOBAL__N_110BlockQuoteD1Ev
_ZN12_GLOBAL__N_110BlockQuoteD2Ev
_ZN12_GLOBAL__N_110DDTPFilter5resetEv
_ZN12_GLOBAL__N_110DDTPFilter5setupEPN7acommon6ConfigE
_ZN12_GLOBAL__N_110DDTPFilter7processERPN7acommon10FilterCharES4_
_ZN12_GLOBAL__N_110DDTPFilterD0Ev
_ZN12_GLOBAL__N_110DDTPFilterD1Ev
_ZN12_GLOBAL__N_110DDTPFilterD2Ev
_ZN12_GLOBAL__N_110InlineCode5closeERNS_8IteratorE
_ZN12_GLOBAL__N_110InlineCodeD0Ev
_ZN12_GLOBAL__N_110InlineCodeD1Ev
_ZN12_GLOBAL__N_110InlineCodeD2Ev
_ZN12_GLOBAL__N_110IsEntirelyIPFbcEEEbRKNSt7__cxx1112basic_stringIcSt11char_traitsIcESaIcEEET_.isra.0
_ZN12_GLOBAL__N_110LoaderTiffC1EiRKN5Exiv25ImageEi
_ZN12_GLOBAL__N_110LoaderTiffC2EiRKN5Exiv25ImageEi
_ZN12_GLOBAL__N_110LoaderTiffC2EiRKN5Exiv25ImageEi.cold
_ZN12_GLOBAL__N_110LoaderTiffD0Ev
_ZN12_GLOBAL__N_110LoaderTiffD1Ev
_ZN12_GLOBAL__N_110LoaderTiffD2Ev
_ZN12_GLOBAL__N_110SgmlFilter5resetEv
_ZN12_GLOBAL__N_110SgmlFilter5setupEPN7acommon6ConfigE
_ZN12_GLOBAL__N_110SgmlFilter7processERPN7acommon10FilterCharES4_
_ZN12_GLOBAL__N_110SgmlFilterD0Ev
_ZN12_GLOBAL__N_110SgmlFilterD1Ev
_ZN12_GLOBAL__N_110SgmlFilterD2Ev
_ZN12_GLOBAL__N_110lookup_advEPN8aspeller9WordEntryE
_ZN12_GLOBAL__N_110startsWithERKNSt7__cxx1112basic_stringIcSt11char_traitsIcESaIcEEES7_.isra.0
_ZN12_GLOBAL__N_111EmailFilter10QuoteChars3addERKN7acommon10ParmStringE
_ZN12_GLOBAL__N_111EmailFilter10QuoteChars5clearEv
_ZN12_GLOBAL__N_111EmailFilter10QuoteChars6removeERKN7acommon10ParmStringE
_ZN12_GLOBAL__N_111EmailFilter10QuoteCharsD0Ev
_ZN12_GLOBAL__N_111EmailFilter10QuoteCharsD1Ev
_ZN12_GLOBAL__N_111EmailFilter10QuoteCharsD2Ev
_ZN12_GLOBAL__N_111EmailFilter5resetEv
_ZN12_GLOBAL__N_111EmailFilter5setupEPN7acommon6ConfigE
_ZN12_GLOBAL__N_111EmailFilter7processERPN7acommon10FilterCharES4_
_ZN12_GLOBAL__N_111EmailFilterD0Ev
_ZN12_GLOBAL__N_111EmailFilterD1Ev
_ZN12_GLOBAL__N_111EmailFilterD2Ev
_ZN12_GLOBAL__N_111HtmlComment5closeERNS_8IteratorE
_ZN12_GLOBAL__N_111HtmlCommentD0Ev
_ZN12_GLOBAL__N_111HtmlCommentD1Ev
_ZN12_GLOBAL__N_111HtmlCommentD2Ev
_ZN12_GLOBAL__N_111NroffFilter5resetEv
_ZN12_GLOBAL__N_111NroffFilter5setupEPN7acommon6ConfigE
_ZN12_GLOBAL__N_111NroffFilter7processERPN7acommon10FilterCharES4_
_ZN12_GLOBAL__N_111NroffFilterD0Ev
_ZN12_GLOBAL__N_111NroffFilterD1Ev
_ZN12_GLOBAL__N_111NroffFilterD2Ev
_ZN12_GLOBAL__N_111SgmlDecoder5resetEv
_ZN12_GLOBAL__N_111SgmlDecoder5setupEPN7acommon6ConfigE
_ZN12_GLOBAL__N_111SgmlDecoder7processERPN7acommon10FilterCharES4_
_ZN12_GLOBAL__N_111SgmlDecoderD0Ev
_ZN12_GLOBAL__N_111SgmlDecoderD1Ev
_ZN12_GLOBAL__N_111SgmlDecoderD2Ev
_ZN12_GLOBAL__N_111SuggestImpl11suggestionsEPKc
_ZN12_GLOBAL__N_111SuggestImpl5setupEN7acommon6StringE.lto_priv.0
_ZN12_GLOBAL__N_111SuggestImpl7suggestEPKc
_ZN12_GLOBAL__N_111SuggestImpl8set_modeEN7acommon10ParmStringE.lto_priv.0
_ZN12_GLOBAL__N_111SuggestImplD0Ev
_ZN12_GLOBAL__N_111SuggestImplD1Ev
_ZN12_GLOBAL__N_111SuggestImplD2Ev
_ZN12_GLOBAL__N_111eval_commonERKN4Glib7ustringEPKSt3mapIS1_S1_St4lessIS1_ESaISt4pairIS2_S1_EEEPN5xmlpp15XPathResultTypeEP8_xmlNode
_ZN12_GLOBAL__N_111eval_commonERKN4Glib7ustringEPKSt3mapIS1_S1_St4lessIS1_ESaISt4pairIS2_S1_EEEPN5xmlpp15XPathResultTypeEP8_xmlNode.cold
_ZN12_GLOBAL__N_112LoaderNative14readDimensionsEv
_ZN12_GLOBAL__N_112LoaderNative14readDimensionsEv.cold
_ZN12_GLOBAL__N_112LoaderNativeD0Ev
_ZN12_GLOBAL__N_112LoaderNativeD1Ev
_ZN12_GLOBAL__N_112LoaderNativeD2Ev
_ZN12_GLOBAL__N_112RawHtmlBlock9proc_lineERNS_8IteratorE
_ZN12_GLOBAL__N_112RawHtmlBlockD0Ev
_ZN12_GLOBAL__N_112RawHtmlBlockD1Ev
_ZN12_GLOBAL__N_112RawHtmlBlockD2Ev
_ZN12_GLOBAL__N_112ReadOnlyDict18SoundslikeElements4nextEi
_ZN12_GLOBAL__N_112ReadOnlyDict18SoundslikeElementsD0Ev.lto_priv.0
_ZN12_GLOBAL__N_112ReadOnlyDict18SoundslikeElementsD1Ev.lto_priv.0
_ZN12_GLOBAL__N_112ReadOnlyDict18SoundslikeElementsD2Ev.lto_priv.0
_ZN12_GLOBAL__N_112ReadOnlyDict4loadEN7acommon10ParmStringERNS1_6ConfigEPN8aspeller8DictListEPNS5_11SpellerImplE
_ZN12_GLOBAL__N_112ReadOnlyDict8Elements4nextEv
_ZN12_GLOBAL__N_112ReadOnlyDict8Elements6assignEPKN7acommon11EnumerationIPN8aspeller9WordEntryEEE
_ZN12_GLOBAL__N_112ReadOnlyDict8ElementsD0Ev.lto_priv.0
_ZN12_GLOBAL__N_112ReadOnlyDict8ElementsD1Ev.lto_priv.0
_ZN12_GLOBAL__N_112ReadOnlyDict8ElementsD2Ev.lto_priv.0
_ZN12_GLOBAL__N_112ReadOnlyDictD0Ev
_ZN12_GLOBAL__N_112ReadOnlyDictD1Ev
_ZN12_GLOBAL__N_112ReadOnlyDictD2Ev
_ZN12_GLOBAL__N_112WritableBase11synchronizeEv
_ZN12_GLOBAL__N_112WritableBase13save_noupdateEv
_ZN12_GLOBAL__N_112WritableBase13set_lang_hookERN7acommon6ConfigE
_ZN12_GLOBAL__N_112WritableBase17set_file_encodingEN7acommon10ParmStringERNS1_6ConfigE
_ZN12_GLOBAL__N_112WritableBase21update_file_date_infoERN7acommon7FStreamE
_ZN12_GLOBAL__N_112WritableBase4loadEN7acommon10ParmStringERNS1_6ConfigEPN8aspeller8DictListEPNS5_11SpellerImplE
_ZN12_GLOBAL__N_112WritableBase4saveEb
_ZN12_GLOBAL__N_112WritableBase5clearEv
_ZN12_GLOBAL__N_112WritableBase5mergeEN7acommon10ParmStringE
_ZN12_GLOBAL__N_112WritableBase5save2ERN7acommon7FStreamENS1_10ParmStringE.constprop.0
_ZN12_GLOBAL__N_112WritableBase7save_asEN7acommon10ParmStringE
_ZN12_GLOBAL__N_112WritableBaseC2EN8aspeller10Dictionary9BasicTypeEPKcS5_S5_RKN7acommon6ConfigE
_ZN12_GLOBAL__N_112WritableDict3addEN7acommon10ParmStringES2_
_ZN12_GLOBAL__N_112WritableDict4saveERN7acommon7FStreamENS1_10ParmStringE
_ZN12_GLOBAL__N_112WritableDict5mergeERN7acommon7FStreamENS1_10ParmStringEPNS1_6ConfigE
_ZN12_GLOBAL__N_112WritableDictD0Ev
_ZN12_GLOBAL__N_112WritableDictD1Ev
_ZN12_GLOBAL__N_112WritableDictD2Ev
_ZN12_GLOBAL__N_112XMLValidator11startDTD_cbEPvPKcS3_S3_i.lto_priv.0
_ZN12_GLOBAL__N_112XMLValidator13endElement_cbEPvPKc.lto_priv.0
_ZN12_GLOBAL__N_112XMLValidator15endNamespace_cbEPvPKc.lto_priv.0
_ZN12_GLOBAL__N_112XMLValidator15startElement_cbEPvPKcPS3_.lto_priv.0
_ZN12_GLOBAL__N_112XMLValidator17startNamespace_cbEPvPKcS3_.lto_priv.0
_ZN12_GLOBAL__N_112XMLValidator8setErrorEPKc.lto_priv.0
_ZN12_GLOBAL__N_112XMLValidator8setErrorEPKc.lto_priv.0.cold
_ZN12_GLOBAL__N_112adj_score_ltERKNS_14ScoreWordSoundES2_.lto_priv.0
_ZN12_GLOBAL__N_112getExifModelEPN5Exiv28Internal13TiffComponentE
_ZN12_GLOBAL__N_112getTextValueERNSt7__cxx1112basic_stringIcSt11char_traitsIcESaIcEEERKN9__gnu_cxx17__normal_iteratorIPN5Exiv28XmpdatumESt6vectorISA_SaISA_EEEE.constprop.0
_ZN12_GLOBAL__N_112getTextValueERNSt7__cxx1112basic_stringIcSt11char_traitsIcESaIcEEERKN9__gnu_cxx17__normal_iteratorIPN5Exiv28XmpdatumESt6vectorISA_SaISA_EEEE.constprop.0.cold
_ZN12_GLOBAL__N_112printVersionERSoRKNSt7__cxx1112basic_stringIcSt11char_traitsIcESaIcEEE
_ZN12_GLOBAL__N_112readPrevLineERNSt7__cxx1112basic_stringIcSt11char_traitsIcESaIcEEEPKhmm.lto_priv.0
_ZN12_GLOBAL__N_113CleanElements4nextEi
_ZN12_GLOBAL__N_113CleanElementsD0Ev
_ZN12_GLOBAL__N_113CleanElementsD1Ev
_ZN12_GLOBAL__N_113CleanElementsD2Ev
_ZN12_GLOBAL__N_113ContextFilter5resetEv
_ZN12_GLOBAL__N_113ContextFilter5setupEPN7acommon6ConfigE
_ZN12_GLOBAL__N_113ContextFilter7processERPN7acommon10FilterCharES4_
_ZN12_GLOBAL__N_113ContextFilterD0Ev
_ZN12_GLOBAL__N_113ContextFilterD1Ev
_ZN12_GLOBAL__N_113ContextFilterD2Ev
_ZN12_GLOBAL__N_113DebctrlFilter5resetEv
_ZN12_GLOBAL__N_113DebctrlFilter5setupEPN7acommon6ConfigE
_ZN12_GLOBAL__N_113DebctrlFilter7processERPN7acommon10FilterCharES4_
_ZN12_GLOBAL__N_113DebctrlFilterD0Ev
_ZN12_GLOBAL__N_113DebctrlFilterD1Ev
_ZN12_GLOBAL__N_113DebctrlFilterD2Ev
_ZN12_GLOBAL__N_113JpegThumbnailD0Ev
_ZN12_GLOBAL__N_113JpegThumbnailD1Ev
_ZN12_GLOBAL__N_113JpegThumbnailD2Ev
_ZN12_GLOBAL__N_113LoaderXmpJpeg14readDimensionsEv
_ZN12_GLOBAL__N_113LoaderXmpJpegC2EiRKN5Exiv25ImageEi.isra.0
_ZN12_GLOBAL__N_113LoaderXmpJpegC2EiRKN5Exiv25ImageEi.isra.0.cold
_ZN12_GLOBAL__N_113LoaderXmpJpegD0Ev
_ZN12_GLOBAL__N_113LoaderXmpJpegD0Ev.cold
_ZN12_GLOBAL__N_113LoaderXmpJpegD1Ev
_ZN12_GLOBAL__N_113LoaderXmpJpegD2Ev
_ZN12_GLOBAL__N_113MultiDictImpl4loadEN7acommon10ParmStringERNS1_6ConfigEPN8aspeller8DictListEPNS5_11SpellerImplE
_ZN12_GLOBAL__N_113MultiDictImplD0Ev
_ZN12_GLOBAL__N_113MultiDictImplD1Ev
_ZN12_GLOBAL__N_113MultiDictImplD2Ev
_ZN12_GLOBAL__N_113TexInfoFilter5resetEv
_ZN12_GLOBAL__N_113TexInfoFilter5setupEPN7acommon6ConfigE
_ZN12_GLOBAL__N_113TexInfoFilter7processERPN7acommon10FilterCharES4_
_ZN12_GLOBAL__N_113TexInfoFilterD0Ev
_ZN12_GLOBAL__N_113TexInfoFilterD1Ev
_ZN12_GLOBAL__N_113TexInfoFilterD2Ev
_ZN12_GLOBAL__N_113TiffThumbnailD0Ev
_ZN12_GLOBAL__N_113TiffThumbnailD1Ev
_ZN12_GLOBAL__N_113TiffThumbnailD2Ev
_ZN12_GLOBAL__N_113findMetadatumERKN5Exiv28ExifDataEPPKci
_ZN12_GLOBAL__N_113findMetadatumERKN5Exiv28ExifDataEPPKci.cold
_ZN12_GLOBAL__N_113find_wrappersEP8_xmlNodeRSt3mapIPN5xmlpp4NodeE14xmlElementTypeSt4lessIS5_ESaISt4pairIKS5_S6_EEE
_ZN12_GLOBAL__N_114LoaderExifJpeg14readDimensionsEv
_ZN12_GLOBAL__N_114LoaderExifJpeg14readDimensionsEv.cold
_ZN12_GLOBAL__N_114LoaderExifJpegD0Ev
_ZN12_GLOBAL__N_114LoaderExifJpegD1Ev
_ZN12_GLOBAL__N_114LoaderExifJpegD2Ev
_ZN12_GLOBAL__N_114MarkdownFilter11start_blockERNS_8IteratorE
_ZN12_GLOBAL__N_114MarkdownFilter5resetEv
_ZN12_GLOBAL__N_114MarkdownFilter5setupEPN7acommon6ConfigE
_ZN12_GLOBAL__N_114MarkdownFilter7processERPN7acommon10FilterCharES4_
_ZN12_GLOBAL__N_114MarkdownFilterD0Ev
_ZN12_GLOBAL__N_114MarkdownFilterD1Ev
_ZN12_GLOBAL__N_114MarkdownFilterD2Ev
_ZN12_GLOBAL__N_114dummy_slot_rep5cloneEPv
_ZN12_GLOBAL__N_114dummy_slot_rep7destroyEv
_ZN12_GLOBAL__N_114dummy_slot_repD0Ev
_ZN12_GLOBAL__N_114dummy_slot_repD1Ev
_ZN12_GLOBAL__N_114dummy_slot_repD2Ev
_ZN12_GLOBAL__N_114makePreciseStrEd
_ZN12_GLOBAL__N_114makePreciseStrEd.cold
_ZN12_GLOBAL__N_114write_n_escapeERN7acommon7FStreamEPKc
_ZN12_GLOBAL__N_115FencedCodeBlock9proc_lineERNS_8IteratorE
_ZN12_GLOBAL__N_115FencedCodeBlockD0Ev
_ZN12_GLOBAL__N_115FencedCodeBlockD1Ev
_ZN12_GLOBAL__N_115FencedCodeBlockD2Ev
_ZN12_GLOBAL__N_115SingleLineBlock9proc_lineERNS_8IteratorE
_ZN12_GLOBAL__N_115SingleLineBlockD0Ev
_ZN12_GLOBAL__N_115SingleLineBlockD1Ev
_ZN12_GLOBAL__N_115SingleLineBlockD2Ev
_ZN12_GLOBAL__N_115SuggestionsImpl13get_distancesERN7acommon6VectorIdEE
_ZN12_GLOBAL__N_115SuggestionsImpl21get_normalized_scoresERN7acommon6VectorIdEE
_ZN12_GLOBAL__N_115SuggestionsImpl9get_wordsEPN7acommon7ConvertERNS1_6VectorINS1_6StringEEE
_ZN12_GLOBAL__N_115SuggestionsImplD0Ev
_ZN12_GLOBAL__N_115SuggestionsImplD1Ev
_ZN12_GLOBAL__N_115SuggestionsImplD2Ev
_ZN12_GLOBAL__N_115computeRoundingERdS0_ddddS0_S0_S0_S0_S0_Rb.constprop.0
_ZN12_GLOBAL__N_115parse_tag_closeERNS_8IteratorE
_ZN12_GLOBAL__N_116WritableReplDict4saveERN7acommon7FStreamENS1_10ParmStringE
_ZN12_GLOBAL__N_116WritableReplDict5mergeERN7acommon7FStreamENS1_10ParmStringEPNS1_6ConfigE
_ZN12_GLOBAL__N_116WritableReplDict8add_replEN7acommon10ParmStringES2_S2_
_ZN12_GLOBAL__N_116WritableReplDictD0Ev
_ZN12_GLOBAL__N_116WritableReplDictD1Ev
_ZN12_GLOBAL__N_116WritableReplDictD2Ev
_ZN12_GLOBAL__N_116add_child_commonERKN4Glib7ustringEP8_xmlNodeS5_
_ZN12_GLOBAL__N_116add_child_commonERKN4Glib7ustringEP8_xmlNodeS5_.cold
_ZN12_GLOBAL__N_116createLoaderTiffEiRKN5Exiv25ImageEi
_ZN12_GLOBAL__N_116createLoaderTiffEiRKN5Exiv25ImageEi.cold
_ZN12_GLOBAL__N_117IndentedCodeBlock9proc_lineERNS_8IteratorE
_ZN12_GLOBAL__N_117IndentedCodeBlockD0Ev
_ZN12_GLOBAL__N_117IndentedCodeBlockD1Ev
_ZN12_GLOBAL__N_117IndentedCodeBlockD2Ev
_ZN12_GLOBAL__N_117LinkRefDefinition9proc_lineERNS_8IteratorE
_ZN12_GLOBAL__N_117LinkRefDefinitionD0Ev
_ZN12_GLOBAL__N_117LinkRefDefinitionD1Ev
_ZN12_GLOBAL__N_117LinkRefDefinitionD2Ev
_ZN12_GLOBAL__N_118LoaderExifDataJpeg14readDimensionsEv
_ZN12_GLOBAL__N_118LoaderExifDataJpeg14readDimensionsEv.cold
_ZN12_GLOBAL__N_118LoaderExifDataJpegD0Ev
_ZN12_GLOBAL__N_118LoaderExifDataJpegD0Ev.cold
_ZN12_GLOBAL__N_118LoaderExifDataJpegD1Ev
_ZN12_GLOBAL__N_118LoaderExifDataJpegD2Ev
_ZN12_GLOBAL__N_118SoundslikeElements4nextEi
_ZN12_GLOBAL__N_118SoundslikeElementsD0Ev
_ZN12_GLOBAL__N_118SoundslikeElementsD1Ev
_ZN12_GLOBAL__N_118SoundslikeElementsD2Ev
_ZN12_GLOBAL__N_118SuggestionListImplD0Ev
_ZN12_GLOBAL__N_118SuggestionListImplD1Ev
_ZN12_GLOBAL__N_118SuggestionListImplD2Ev
_ZN12_GLOBAL__N_118createLoaderNativeEiRKN5Exiv25ImageEi
_ZN12_GLOBAL__N_118createLoaderNativeEiRKN5Exiv25ImageEi.cold
_ZN12_GLOBAL__N_118getline_n_unescapeERN7acommon7FStreamERNS0_6StringEc.constprop.0
_ZN12_GLOBAL__N_119createLoaderXmpJpegEiRKN5Exiv25ImageEi
_ZN12_GLOBAL__N_119createLoaderXmpJpegEiRKN5Exiv25ImageEi.cold
_ZN12_GLOBAL__N_120cmpPreviewPropertiesERKN5Exiv217PreviewPropertiesES3_.lto_priv.0
_ZN12_GLOBAL__N_120createLoaderExifJpegEiRKN5Exiv25ImageEi
_ZN12_GLOBAL__N_120createLoaderExifJpegEiRKN5Exiv25ImageEi.cold
_ZN12_GLOBAL__N_120readWriteEpsMetadataERN5Exiv27BasicIoERNSt7__cxx1112basic_stringIcSt11char_traitsIcESaIcEEERSt6vectorINS0_13NativePreviewESaISB_EEb
_ZN12_GLOBAL__N_120readWriteEpsMetadataERN5Exiv27BasicIoERNSt7__cxx1112basic_stringIcSt11char_traitsIcESaIcEEERSt6vectorINS0_13NativePreviewESaISB_EEb.cold
_ZN12_GLOBAL__N_121destroy_notify_struct6notifyEPv
_ZN12_GLOBAL__N_121eval_common_to_stringERKN4Glib7ustringEPKSt3mapIS1_S1_St4lessIS1_ESaISt4pairIS2_S1_EEEPN5xmlpp15XPathResultTypeEP8_xmlNode
_ZN12_GLOBAL__N_121eval_common_to_stringERKN4Glib7ustringEPKSt3mapIS1_S1_St4lessIS1_ESaISt4pairIS2_S1_EEEPN5xmlpp15XPathResultTypeEP8_xmlNode.cold
_ZN12_GLOBAL__N_121remove_found_wrappersEP8_xmlNodeRSt3mapIPN5xmlpp4NodeE14xmlElementTypeSt4lessIS5_ESaISt4pairIKS5_S6_EEE
_ZN12_GLOBAL__N_124createLoaderExifDataJpegEiRKN5Exiv25ImageEi
_ZN12_GLOBAL__N_124createLoaderExifDataJpegEiRKN5Exiv25ImageEi.cold
_ZN12_GLOBAL__N_125convertStringCharsetIconvERNSt7__cxx1112basic_stringIcSt11char_traitsIcESaIcEEEPKcS8_
_ZN12_GLOBAL__N_125convertStringCharsetIconvERNSt7__cxx1112basic_stringIcSt11char_traitsIcESaIcEEEPKcS8_.cold
_ZN12_GLOBAL__N_125getRelationshipsForTargetEPKc.lto_priv.0
_ZN12_GLOBAL__N_125getRelationshipsForTargetEPKc.lto_priv.0.cold
_ZN12_GLOBAL__N_129_static_log4cplus_initializerD1Ev.lto_priv.0
_ZN12_GLOBAL__N_129_static_log4cplus_initializerD2Ev.lto_priv.0
_ZN12_GLOBAL__N_14Link15parse_url_labelERNS_8IteratorEc
_ZN12_GLOBAL__N_14Link5closeERNS_8IteratorE
_ZN12_GLOBAL__N_14LinkD0Ev
_ZN12_GLOBAL__N_14LinkD1Ev
_ZN12_GLOBAL__N_14LinkD2Ev
_ZN12_GLOBAL__N_16Loader14readDimensionsEv
_ZN12_GLOBAL__N_16Loader6createEiRKN5Exiv25ImageE
_ZN12_GLOBAL__N_16Loader6createEiRKN5Exiv25ImageE.cold
_ZN12_GLOBAL__N_16createEPN7acommon17StringEnumerationERKN8aspeller8LanguageERNS0_6ConfigE.lto_priv.0
_ZN12_GLOBAL__N_17DocRoot9proc_lineERNS_8IteratorE
_ZN12_GLOBAL__N_17DocRootD0Ev
_ZN12_GLOBAL__N_17DocRootD1Ev
_ZN12_GLOBAL__N_17DocRootD2Ev
_ZN12_GLOBAL__N_17HtmlTag4openERKNS_8IteratorERS1_
_ZN12_GLOBAL__N_17HtmlTag5closeERKNS_8IteratorERS1_
_ZN12_GLOBAL__N_17HtmlTag5closeERKNS_8IteratorERS1_.cold
_ZN12_GLOBAL__N_17HtmlTag5closeERNS_8IteratorE
_ZN12_GLOBAL__N_17HtmlTagD0Ev
_ZN12_GLOBAL__N_17HtmlTagD1Ev
_ZN12_GLOBAL__N_17HtmlTagD2Ev
_ZN12_GLOBAL__N_17IsLowerEc
_ZN12_GLOBAL__N_17IsUpperEc
_ZN12_GLOBAL__N_17Working10check_wordEPcS1_PN7acommon9CheckInfoEj.lto_priv.0
_ZN12_GLOBAL__N_17Working10score_listEv
_ZN12_GLOBAL__N_17Working10try_word_cEPcS1_RKNS0_9ScoreInfoE.constprop.0
_ZN12_GLOBAL__N_17Working10try_word_nEN7acommon10ParmStringERKNS0_9ScoreInfoE.constprop.0
_ZN12_GLOBAL__N_17Working11suggestionsEv
_ZN12_GLOBAL__N_17Working12add_nearmissEPcjjRKNS0_9ScoreInfoE.part.0.lto_priv.0
_ZN12_GLOBAL__N_17Working12check_word_sEN7acommon10ParmStringEPNS1_9CheckInfoE.constprop.0
_ZN12_GLOBAL__N_17Working13try_scan_rootEv
_ZN12_GLOBAL__N_17Working14add_nearmiss_wEN9__gnu_cxx17__normal_iteratorIPKPKN8aspeller10DictionaryESt6vectorIS6_SaIS6_EEEERKNS3_9WordEntryERKNS0_9ScoreInfoE.lto_priv.0
_ZN12_GLOBAL__N_17Working14try_camel_wordERN7acommon6StringENS_11SpecialEditE
_ZN12_GLOBAL__N_17Working14try_camel_wordERN7acommon6StringENS_11SpecialEditE.cold
_ZN12_GLOBAL__N_17Working15fine_tune_scoreEi
_ZN12_GLOBAL__N_17Working15fine_tune_scoreEi.cold
_ZN12_GLOBAL__N_17Working8fix_wordERN7acommon8ObjStackERKNS1_10ParmStringE.constprop.0
_ZN12_GLOBAL__N_17Working8try_scanEv
_ZN12_GLOBAL__N_17Working9add_soundEN9__gnu_cxx17__normal_iteratorIPKPKN8aspeller10DictionaryESt6vectorIS6_SaIS6_EEEEPNS3_9WordEntryEPKci
_ZN12_GLOBAL__N_17Working9form_wordERN7acommon9CheckInfoE.lto_priv.0
_ZN12_GLOBAL__N_17WorkingC1EPN8aspeller11SpellerImplEPKNS1_8LanguageERKN7acommon6StringEPKNS1_12SuggestParmsE
_ZN12_GLOBAL__N_17WorkingC2EPN8aspeller11SpellerImplEPKNS1_8LanguageERKN7acommon6StringEPKNS1_12SuggestParmsE
_ZN12_GLOBAL__N_17compareEPKcRKN5Exiv27DataBufEm
_ZN12_GLOBAL__N_17compareEPKcRKN5Exiv27DataBufEm.part.0
_ZN12_GLOBAL__N_17fillGapERN5Exiv28Internal9IoWrapperEjj
_ZN12_GLOBAL__N_17fillGapERN5Exiv28Internal9IoWrapperEjj.cold
_ZN12_GLOBAL__N_17findXmpERmS0_PKhmmb.lto_priv.0
_ZN12_GLOBAL__N_17findXmpERmS0_PKhmmb.lto_priv.0.cold
_ZN12_GLOBAL__N_17posTempERN5Exiv27BasicIoE.lto_priv.0
_ZN12_GLOBAL__N_17posTempERN5Exiv27BasicIoE.lto_priv.0.cold
_ZN12_GLOBAL__N_18Iterator9eat_spaceEv
_ZN12_GLOBAL__N_18ListItem9proc_lineERNS_8IteratorE
_ZN12_GLOBAL__N_18ListItemD0Ev
_ZN12_GLOBAL__N_18ListItemD1Ev
_ZN12_GLOBAL__N_18ListItemD2Ev
_ZN12_GLOBAL__N_18readLineERNSt7__cxx1112basic_stringIcSt11char_traitsIcESaIcEEEPKhmm.lto_priv.0
_ZN12_GLOBAL__N_19HtmlBlock9proc_lineERNS_8IteratorE
_ZN12_GLOBAL__N_19HtmlBlockD0Ev
_ZN12_GLOBAL__N_19HtmlBlockD1Ev
_ZN12_GLOBAL__N_19HtmlBlockD2Ev
_ZN12_GLOBAL__N_19TexFilter5resetEv
_ZN12_GLOBAL__N_19TexFilter5setupEPN7acommon6ConfigE
_ZN12_GLOBAL__N_19TexFilter7processERPN7acommon10FilterCharES4_
_ZN12_GLOBAL__N_19TexFilter8Commands3addERKN7acommon10ParmStringE
_ZN12_GLOBAL__N_19TexFilter8Commands6removeERKN7acommon10ParmStringE
_ZN12_GLOBAL__N_19TexFilter8CommandsD0Ev
_ZN12_GLOBAL__N_19TexFilter8CommandsD1Ev
_ZN12_GLOBAL__N_19TexFilter8CommandsD2Ev
_ZN12_GLOBAL__N_19TexFilterD0Ev
_ZN12_GLOBAL__N_19TexFilterD1Ev
_ZN12_GLOBAL__N_19TexFilterD2Ev
_ZN12_GLOBAL__N_19Thumbnail6createERKN5Exiv28ExifDataE
_ZN12_GLOBAL__N_19Thumbnail6createERKN5Exiv28ExifDataE.cold
_ZN12_GLOBAL__N_19UrlFilter5resetEv.lto_priv.0
_ZN12_GLOBAL__N_19UrlFilter5setupEPN7acommon6ConfigE.lto_priv.0
_ZN12_GLOBAL__N_19UrlFilter7processERPN7acommon10FilterCharES4_
_ZN12_GLOBAL__N_19UrlFilterD0Ev
_ZN12_GLOBAL__N_19UrlFilterD1Ev
_ZN12_GLOBAL__N_19UrlFilterD2Ev
_ZN12_GLOBAL__N_19decodeHexEPKhl
_ZN12_GLOBAL__N_19writeTempERN5Exiv27BasicIoEPKhm.lto_priv.0
_ZN12_GLOBAL__N_19writeTempERN5Exiv27BasicIoEPKhm.lto_priv.0.cold
_ZN12_GLOBAL__N_1L12advance_fileERN7acommon7FStreamEi
_ZN12_GLOBAL__N_1L14appendElementsEP8_xmlNodeRSt6vectorISt10shared_ptrI15DocumentElementESaIS5_EEb.lto_priv.0
_ZN12_GLOBAL__N_1L14appendElementsEP8_xmlNodeRSt6vectorISt10shared_ptrI15DocumentElementESaIS5_EEb.lto_priv.0.cold
_ZN12_GLOBAL__N_1L15soundslike_nextEPN8aspeller9WordEntryE
_ZN12_GLOBAL__N_1L16clean_lookup_advEPN8aspeller9WordEntryE
_ZN12_GLOBAL__N_1L18isOpcVisioDocumentEPN10librevenge15RVNGInputStreamE
_ZN12_GLOBAL__N_1L18isOpcVisioDocumentEPN10librevenge15RVNGInputStreamE.cold
_ZN12_GLOBAL__N_1L18isXmlVisioDocumentEPN10librevenge15RVNGInputStreamE
_ZN12_GLOBAL__N_1L18isXmlVisioDocumentEPN10librevenge15RVNGInputStreamE.cold
_ZN12_GLOBAL__N_1L21isBinaryVisioDocumentEPN10librevenge15RVNGInputStreamE
_ZN12_GLOBAL__N_1L21isBinaryVisioDocumentEPN10librevenge15RVNGInputStreamE.cold
_ZN12_GLOBAL__N_1L21parseOpcVisioDocumentEPN10librevenge15RVNGInputStreamEPNS0_20RVNGDrawingInterfaceEb
_ZN12_GLOBAL__N_1L21parseOpcVisioDocumentEPN10librevenge15RVNGInputStreamEPNS0_20RVNGDrawingInterfaceEb.cold
_ZN12_GLOBAL__N_1L21parseXmlVisioDocumentEPN10librevenge15RVNGInputStreamEPNS0_20RVNGDrawingInterfaceEb
_ZN12_GLOBAL__N_1L21parseXmlVisioDocumentEPN10librevenge15RVNGInputStreamEPNS0_20RVNGDrawingInterfaceEb.cold
_ZN12_GLOBAL__N_1L22getTargetBaseDirectoryEPKc.lto_priv.0
_ZN12_GLOBAL__N_1L22getTargetBaseDirectoryEPKc.lto_priv.0.cold
_ZN12_GLOBAL__N_1L24parseBinaryVisioDocumentEPN10librevenge15RVNGInputStreamEPNS0_20RVNGDrawingInterfaceEb
_ZN12_GLOBAL__N_1L24parseBinaryVisioDocumentEPN10librevenge15RVNGInputStreamEPNS0_20RVNGDrawingInterfaceEb.cold
_ZN12_GLOBAL__N_1L33Table_signal_row_deleted_callbackEP9_AtkTableiiPv
_ZN12_GLOBAL__N_1L33Text_signal_text_changed_callbackEP8_AtkTextiiPv.lto_priv.0
_ZN12_GLOBAL__N_1L33Text_signal_text_changed_callbackEP8_AtkTextiiPv.lto_priv.0.cold
_ZN12_GLOBAL__N_1L34Object_signal_focus_event_callbackEP10_AtkObjectiPv
_ZN12_GLOBAL__N_1L34Object_signal_focus_event_callbackEP10_AtkObjectiPv.cold
_ZN12_GLOBAL__N_1L34Table_signal_row_inserted_callbackEP9_AtkTableiiPv
_ZN12_GLOBAL__N_1L34Table_signal_row_inserted_callbackEP9_AtkTableiiPv.cold
_ZN12_GLOBAL__N_1L35Object_signal_state_change_callbackEP10_AtkObjectPKciPv
_ZN12_GLOBAL__N_1L35Object_signal_state_change_callbackEP10_AtkObjectPKciPv.cold
_ZN12_GLOBAL__N_1L36Table_signal_column_deleted_callbackEP9_AtkTableiiPv
_ZN12_GLOBAL__N_1L37Table_signal_column_inserted_callbackEP9_AtkTableiiPv
_ZN12_GLOBAL__N_1L37Text_signal_text_caret_moved_callbackEP8_AtkTextiPv.lto_priv.0
_ZN12_GLOBAL__N_1L37Text_signal_text_caret_moved_callbackEP8_AtkTextiPv.lto_priv.0.cold
_ZN12_GLOBAL__N_1L38Object_signal_property_change_callbackEP10_AtkObjectP18_AtkPropertyValuesPv
_ZN12_GLOBAL__N_1L38Object_signal_property_change_callbackEP10_AtkObjectP18_AtkPropertyValuesPv.cold
_ZN12_GLOBAL__N_1L39Hypertext_signal_link_selected_callbackEP13_AtkHypertextiPv
_ZN12_GLOBAL__N_1L39Hypertext_signal_link_selected_callbackEP13_AtkHypertextiPv.cold
_ZN12_GLOBAL__N_1L39Object_signal_children_changed_callbackEP10_AtkObjectjPvS2_
_ZN12_GLOBAL__N_1L39Object_signal_children_changed_callbackEP10_AtkObjectjPvS2_.cold
_ZN12_GLOBAL__N_1L48Object_signal_active_descendant_changed_callbackEP10_AtkObjectPPvS2_
_ZN12_GLOBAL__N_1L9repl_nextEPN8aspeller9WordEntryE
_ZN12libpagemaker10PMDEllipseD0Ev
_ZN12libpagemaker10PMDEllipseD1Ev.lto_priv.0
_ZN12libpagemaker10PMDEllipseD2Ev.lto_priv.0
_ZN12libpagemaker10PMDPolygonD0Ev
_ZN12libpagemaker10PMDPolygonD1Ev
_ZN12libpagemaker10PMDPolygonD2Ev
_ZN12libpagemaker10PMDTextBoxD0Ev
_ZN12libpagemaker10PMDTextBoxD1Ev
_ZN12libpagemaker10PMDTextBoxD2Ev.lto_priv.0
_ZN12libpagemaker10PMDocument11isSupportedEPN10librevenge15RVNGInputStreamE
_ZN12libpagemaker10PMDocument11isSupportedEPN10librevenge15RVNGInputStreamE.cold
_ZN12libpagemaker10PMDocument5parseEPN10librevenge15RVNGInputStreamEPNS1_20RVNGDrawingInterfaceE
_ZN12libpagemaker10PMDocument5parseEPN10librevenge15RVNGInputStreamEPNS1_20RVNGDrawingInterfaceE.cold
_ZN12libpagemaker10readNBytesERKPN10librevenge15RVNGInputStreamEm.part.0
_ZN12libpagemaker11OutputShapeD1Ev
_ZN12libpagemaker11OutputShapeD2Ev
_ZN12libpagemaker12PMDCollector14addShapeToPageEjRKSt10shared_ptrINS_10PMDLineSetEE
_ZN12libpagemaker12PMDCollectorD1Ev
_ZN12libpagemaker12PMDCollectorD2Ev
_ZN12libpagemaker12PMDRectangleD0Ev
_ZN12libpagemaker12PMDRectangleD1Ev.lto_priv.0
_ZN12libpagemaker12PMDRectangleD2Ev.lto_priv.0
_ZN12libpagemaker12_GLOBAL__N_111checkStreamERKPN10librevenge15RVNGInputStreamE.part.0
_ZN12libpagemaker12_GLOBAL__N_111writeBorderERN10librevenge16RVNGPropertyListEPKcRKNS_19PMDStrokePropertiesERKSt6vectorINS_8PMDColorESaISA_EE
_ZN12libpagemaker12_GLOBAL__N_111writeBorderERN10librevenge16RVNGPropertyListEPKcRKNS_19PMDStrokePropertiesERKSt6vectorINS_8PMDColorESaISA_EE.cold
_ZN12libpagemaker12_GLOBAL__N_119SeekFailedExceptionD0Ev
_ZN12libpagemaker12_GLOBAL__N_119SeekFailedExceptionD1Ev
_ZN12libpagemaker12_GLOBAL__N_119SeekFailedExceptionD2Ev
_ZN12libpagemaker12_GLOBAL__N_18readRuleEPN10librevenge15RVNGInputStreamEb
_ZN12libpagemaker12_GLOBAL__N_19flushTextERNSt7__cxx1112basic_stringIcSt11char_traitsIcESaIcEEEPN10librevenge20RVNGDrawingInterfaceE
_ZN12libpagemaker12_GLOBAL__N_19flushTextERNSt7__cxx1112basic_stringIcSt11char_traitsIcESaIcEEEPN10librevenge20RVNGDrawingInterfaceE.cold
_ZN12libpagemaker12seekRelativeERKPN10librevenge15RVNGInputStreamEl.part.0
_ZN12libpagemaker12seekToRecordEPN10librevenge15RVNGInputStreamERKNS_18PMDRecordContainerEj
_ZN12libpagemaker12seekToRecordEPN10librevenge15RVNGInputStreamERKNS_18PMDRecordContainerEj.cold
_ZN12libpagemaker14newOutputShapeERKSt10shared_ptrIKNS_10PMDLineSetEERKNS_5PointIdEE
_ZN12libpagemaker14newOutputShapeERKSt10shared_ptrIKNS_10PMDLineSetEERKNS_5PointIdEE.cold
_ZN12libpagemaker17PMDParseExceptionD0Ev
_ZN12libpagemaker17PMDParseExceptionD1Ev
_ZN12libpagemaker17PMDParseExceptionD2Ev
_ZN12libpagemaker20EndOfStreamExceptionD0Ev
_ZN12libpagemaker20EndOfStreamExceptionD1Ev
_ZN12libpagemaker20EndOfStreamExceptionD2Ev
_ZN12libpagemaker23RecordNotFoundExceptionC1Et
_ZN12libpagemaker23RecordNotFoundExceptionC2Et.lto_priv.0
_ZN12libpagemaker23RecordNotFoundExceptionC2Ett.constprop.0
_ZN12libpagemaker23RecordNotFoundExceptionD0Ev
_ZN12libpagemaker23RecordNotFoundExceptionD1Ev.lto_priv.0
_ZN12libpagemaker23RecordNotFoundExceptionD2Ev.lto_priv.0
_ZN12libpagemaker26UnknownRecordSizeExceptionC1Et
_ZN12libpagemaker26UnknownRecordSizeExceptionC2Et
_ZN12libpagemaker26UnknownRecordSizeExceptionD0Ev
_ZN12libpagemaker26UnknownRecordSizeExceptionD1Ev
_ZN12libpagemaker26UnknownRecordSizeExceptionD2Ev
_ZN12libpagemaker4seekERKPN10librevenge15RVNGInputStreamEm.isra.0
_ZN12libpagemaker4seekERKPN10librevenge15RVNGInputStreamEm.isra.0.cold
_ZN12libpagemaker4seekERKPN10librevenge15RVNGInputStreamEm.part.0
_ZN12libpagemaker4skipERKPN10librevenge15RVNGInputStreamEm
_ZN12libpagemaker4skipERKPN10librevenge15RVNGInputStreamEm.cold
_ZN12libpagemaker6readU8ERKPN10librevenge15RVNGInputStreamEb.isra.0
_ZN12libpagemaker6readU8ERKPN10librevenge15RVNGInputStreamEb.isra.0.cold
_ZN12libpagemaker6readU8ERKPN10librevenge15RVNGInputStreamEb.part.0
_ZN12libpagemaker7PMDLineD0Ev
_ZN12libpagemaker7PMDLineD1Ev.lto_priv.0
_ZN12libpagemaker7PMDLineD2Ev.lto_priv.0
_ZN12libpagemaker7readU16ERKPN10librevenge15RVNGInputStreamEb
_ZN12libpagemaker7readU16ERKPN10librevenge15RVNGInputStreamEb.cold
_ZN12libpagemaker7readU32ERKPN10librevenge15RVNGInputStreamEb
_ZN12libpagemaker7readU32ERKPN10librevenge15RVNGInputStreamEb.cold
_ZN12libpagemaker9PMDBitmapD0Ev
_ZN12libpagemaker9PMDBitmapD1Ev
_ZN12libpagemaker9PMDBitmapD2Ev
_ZN12libpagemaker9PMDParser11parseHeaderEPjPt
_ZN12libpagemaker9PMDParser11parseHeaderEPjPt.cold
_ZN12libpagemaker9PMDParser12parseTextBoxERKNS_18PMDRecordContainerEjj
_ZN12libpagemaker9PMDParser12parseTextBoxERKNS_18PMDRecordContainerEjj.cold
_ZN12libpagemaker9PMDParser14RecordIterator9incrementEv
_ZN12libpagemaker9PMDParser14RecordIteratorC1ERKSt6vectorINS_18PMDRecordContainerESaIS3_EERKSt3mapItS2_IjSaIjEESt4lessItESaISt4pairIKtSA_EEEt
_ZN12libpagemaker9PMDParser14RecordIteratorC2ERKSt6vectorINS_18PMDRecordContainerESaIS3_EERKSt3mapItS2_IjSaIjEESt4lessItESaISt4pairIKtSA_EEEt
_ZN12libpagemaker9PMDParser19readTableOfContentsERNS0_8ToCStateEjjbt
_ZN13BeagleWksText10countPagesEv
_ZN13BeagleWksText10countPagesEv.cold
_ZN13BeagleWksText13readParagraphER13MWAWParagraphlb
_ZN13BeagleWksText13readParagraphER13MWAWParagraphlb.cold
_ZN13BeagleWksText8readFontERN21BeagleWksTextInternal4FontEl
_ZN13BeagleWksText8sendTextERK9MWAWEntry
_ZN13BeagleWksText8sendTextERK9MWAWEntry.cold
_ZN13BeagleWksTextD0Ev
_ZN13BeagleWksTextD1Ev
_ZN13BeagleWksTextD2Ev
_ZN13Canvas5Parser10readArray9ESt10shared_ptrIN16Canvas5Structure6StreamEERKNSt7__cxx1112basic_stringIcSt11char_traitsIcESaIcEEERKSt8functionIFvS3_RKNS_4ItemESB_EE
_ZN13Canvas5Parser10readArray9ESt10shared_ptrIN16Canvas5Structure6StreamEERKNSt7__cxx1112basic_stringIcSt11char_traitsIcESaIcEEERKSt8functionIFvS3_RKNS_4ItemESB_EE.cold
_ZN13Canvas5Parser10readLayersESt10shared_ptrIN16Canvas5Structure6StreamEE
_ZN13Canvas5Parser10readLayersESt10shared_ptrIN16Canvas5Structure6StreamEE.cold
_ZN13Canvas5Parser10readSlidesESt10shared_ptrIN16Canvas5Structure6StreamEE
_ZN13Canvas5Parser10readSlidesESt10shared_ptrIN16Canvas5Structure6StreamEE.cold
_ZN13Canvas5Parser10readStringERN16Canvas5Structure6StreamERN10librevenge10RVNGStringEib.constprop.0
_ZN13Canvas5Parser10readStringERN16Canvas5Structure6StreamERN10librevenge10RVNGStringEib.constprop.0.cold
_ZN13Canvas5Parser11checkHeaderEP10MWAWHeaderb
_ZN13Canvas5Parser11checkHeaderEP10MWAWHeaderb.cold
_ZN13Canvas5Parser11readDefinedERN16Canvas5Structure6StreamERSt6vectorIbSaIbEERKNSt7__cxx1112basic_stringIcSt11char_traitsIcESaIcEEE.isra.0
_ZN13Canvas5Parser11readDefinedERN16Canvas5Structure6StreamERSt6vectorIbSaIbEERKNSt7__cxx1112basic_stringIcSt11char_traitsIcESaIcEEE.isra.0.cold
_ZN13Canvas5Parser12readIndexMapESt10shared_ptrIN16Canvas5Structure6StreamEERKNSt7__cxx1112basic_stringIcSt11char_traitsIcESaIcEEERKSt8functionIFvS3_RKNS_4ItemESB_EE.isra.0
_ZN13Canvas5Parser12readIndexMapESt10shared_ptrIN16Canvas5Structure6StreamEERKNSt7__cxx1112basic_stringIcSt11char_traitsIcESaIcEEERKSt8functionIFvS3_RKNS_4ItemESB_EE.isra.0.cold
_ZN13Canvas5Parser13readFileRSRCsESt10shared_ptrIN16Canvas5Structure6StreamEE
_ZN13Canvas5Parser13readFileRSRCsESt10shared_ptrIN16Canvas5Structure6StreamEE.cold
_ZN13Canvas5Parser13readMainBlockESt10shared_ptrIN16Canvas5Structure6StreamEE
_ZN13Canvas5Parser13readMainBlockESt10shared_ptrIN16Canvas5Structure6StreamEE.cold
_ZN13Canvas5Parser14createDocumentEPN10librevenge20RVNGDrawingInterfaceE
_ZN13Canvas5Parser14createDocumentEPN10librevenge20RVNGDrawingInterfaceE.cold
_ZN13Canvas5Parser14readDataHeaderERN16Canvas5Structure6StreamEiRi.isra.0
_ZN13Canvas5Parser14readDataHeaderERN16Canvas5Structure6StreamEiRi.isra.0.cold
_ZN13Canvas5Parser14readMainBlock9ESt10shared_ptrIN16Canvas5Structure6StreamEE
_ZN13Canvas5Parser14readMainBlock9ESt10shared_ptrIN16Canvas5Structure6StreamEE.cold
_ZN13Canvas5Parser15defDataFunctionESt10shared_ptrIN16Canvas5Structure6StreamEERKNS_4ItemERKNSt7__cxx1112basic_stringIcSt11char_traitsIcESaIcEEE
_ZN13Canvas5Parser18readExtendedHeaderESt10shared_ptrIN16Canvas5Structure6StreamEEiRKNSt7__cxx1112basic_stringIcSt11char_traitsIcESaIcEEERKSt8functionIFvS3_RKNS_4ItemESB_EE.isra.0
_ZN13Canvas5Parser18readExtendedHeaderESt10shared_ptrIN16Canvas5Structure6StreamEEiRKNSt7__cxx1112basic_stringIcSt11char_traitsIcESaIcEEERKSt8functionIFvS3_RKNS_4ItemESB_EE.isra.0.cold
_ZN13Canvas5Parser18stringDataFunctionESt10shared_ptrIN16Canvas5Structure6StreamEERKNS_4ItemERKNSt7__cxx1112basic_stringIcSt11char_traitsIcESaIcEEE
_ZN13Canvas5Parser18stringDataFunctionESt10shared_ptrIN16Canvas5Structure6StreamEERKNS_4ItemERKNSt7__cxx1112basic_stringIcSt11char_traitsIcESaIcEEE.cold
_ZN13Canvas5Parser20readDocumentSettingsESt10shared_ptrIN16Canvas5Structure6StreamEE
_ZN13Canvas5Parser20readDocumentSettingsESt10shared_ptrIN16Canvas5Structure6StreamEE.cold
_ZN13Canvas5Parser4sendERKN21Canvas5ParserInternal5LayerE.isra.0
_ZN13Canvas5Parser4sendERKN21Canvas5ParserInternal5LayerE.isra.0.cold
_ZN13Canvas5Parser5parseEPN10librevenge20RVNGDrawingInterfaceE
_ZN13Canvas5Parser5parseEPN10librevenge20RVNGDrawingInterfaceE.cold
_ZN13Canvas5Parser7getTAG9ERN16Canvas5Structure6StreamERNSt7__cxx1112basic_stringIcSt11char_traitsIcESaIcEEERi.constprop.0
_ZN13Canvas5Parser7getTAG9ERN16Canvas5Structure6StreamERNSt7__cxx1112basic_stringIcSt11char_traitsIcESaIcEEERi.constprop.0.cold
_ZN13Canvas5Parser8readUsedERN16Canvas5Structure6StreamERKNSt7__cxx1112basic_stringIcSt11char_traitsIcESaIcEEE.isra.0
_ZN13Canvas5Parser8readUsedERN16Canvas5Structure6StreamERKNSt7__cxx1112basic_stringIcSt11char_traitsIcESaIcEEE.isra.0.cold
_ZN13Canvas5Parser9checkTAG9ERN16Canvas5Structure6StreamERKNSt7__cxx1112basic_stringIcSt11char_traitsIcESaIcEEEi
_ZN13Canvas5Parser9checkTAG9ERN16Canvas5Structure6StreamERKNSt7__cxx1112basic_stringIcSt11char_traitsIcESaIcEEEi.cold
_ZN13Canvas5ParserC1ERKSt10shared_ptrI15MWAWInputStreamERKS0_I14MWAWRSRCParserEP10MWAWHeader
_ZN13Canvas5ParserC2ERKSt10shared_ptrI15MWAWInputStreamERKS0_I14MWAWRSRCParserEP10MWAWHeader
_ZN13Canvas5ParserC2ERKSt10shared_ptrI15MWAWInputStreamERKS0_I14MWAWRSRCParserEP10MWAWHeader.cold
_ZN13Canvas5ParserD0Ev
_ZN13Canvas5ParserD1Ev
_ZN13Canvas5ParserD2Ev
_ZN13ClarisWksText10readTokensERK9MWAWEntryRN21ClarisWksTextInternal4ZoneE
_ZN13ClarisWksText10readTokensERK9MWAWEntryRN21ClarisWksTextInternal4ZoneE.cold
_ZN13ClarisWksText13readParagraphEi
_ZN13ClarisWksText13readParagraphEi.cold
_ZN13ClarisWksText14readParagraphsERK9MWAWEntryRN21ClarisWksTextInternal4ZoneE
_ZN13ClarisWksText14readParagraphsERK9MWAWEntryRN21ClarisWksTextInternal4ZoneE.cold
_ZN13ClarisWksText15readTextSectionERN21ClarisWksTextInternal4ZoneE
_ZN13ClarisWksText15readTextSectionERN21ClarisWksTextInternal4ZoneE.cold
_ZN13ClarisWksText16readTextZoneSizeERK9MWAWEntryRN21ClarisWksTextInternal4ZoneE
_ZN13ClarisWksText16readTextZoneSizeERK9MWAWEntryRN21ClarisWksTextInternal4ZoneE.cold
_ZN13ClarisWksText8sendTextERKN21ClarisWksTextInternal4ZoneESt10shared_ptrI12MWAWListenerE.isra.0
_ZN13ClarisWksText8sendTextERKN21ClarisWksTextInternal4ZoneESt10shared_ptrI12MWAWListenerE.isra.0.cold
_ZN13ClarisWksText9readFontsERK9MWAWEntryRN21ClarisWksTextInternal4ZoneE
_ZN13ClarisWksText9readFontsERK9MWAWEntryRN21ClarisWksTextInternal4ZoneE.cold
_ZN13ClarisWksTextD0Ev
_ZN13ClarisWksTextD1Ev
_ZN13ClarisWksTextD2Ev
_ZN13FullWrtParser11checkHeaderEP10MWAWHeaderb
_ZN13FullWrtParser11checkHeaderEP10MWAWHeaderb.cold
_ZN13FullWrtParser11createZonesEv
_ZN13FullWrtParser11createZonesEv.cold
_ZN13FullWrtParser11sendGraphicEi
_ZN13FullWrtParser11sendGraphicEi.cold
_ZN13FullWrtParser13readPrintInfoESt10shared_ptrIN13FullWrtStruct5EntryEE
_ZN13FullWrtParser13readPrintInfoESt10shared_ptrIN13FullWrtStruct5EntryEE.cold
_ZN13FullWrtParser14readEndDocInfoESt10shared_ptrIN13FullWrtStruct5EntryEE
_ZN13FullWrtParser14readEndDocInfoESt10shared_ptrIN13FullWrtStruct5EntryEE.cold
_ZN13FullWrtParser15createFileZonesEv.isra.0
_ZN13FullWrtParser15createFileZonesEv.isra.0.cold
_ZN13FullWrtParser15readFileZonePosESt10shared_ptrIN13FullWrtStruct5EntryEE.isra.0
_ZN13FullWrtParser15readFileZonePosESt10shared_ptrIN13FullWrtStruct5EntryEE.isra.0.cold
_ZN13FullWrtParser18readGenericDocDataESt10shared_ptrIN13FullWrtStruct5EntryEERNS1_10ZoneHeaderE
_ZN13FullWrtParser18readGenericDocDataESt10shared_ptrIN13FullWrtStruct5EntryEERNS1_10ZoneHeaderE.cold
_ZN13FullWrtParser4initEv
_ZN13FullWrtParser4initEv.cold
_ZN13FullWrtParser5parseEPN10librevenge17RVNGTextInterfaceE
_ZN13FullWrtParser5parseEPN10librevenge17RVNGTextInterfaceE.cold
_ZN13FullWrtParser7newPageEi
_ZN13FullWrtParser8sendTextEiN7libmwaw15SubDocumentTypeEN8MWAWNote4TypeE
_ZN13FullWrtParser8sendTextEiN7libmwaw15SubDocumentTypeEN8MWAWNote4TypeE.cold
_ZN13FullWrtParserD0Ev
_ZN13FullWrtParserD1Ev
_ZN13FullWrtParserD2Ev
_ZN13FullWrtStruct10ZoneHeader4readESt10shared_ptrINS_5EntryEE
_ZN13FullWrtStruct10ZoneHeader4readESt10shared_ptrINS_5EntryEE.cold
_ZN13FullWrtStruct10ZoneHeaderD0Ev
_ZN13FullWrtStruct10ZoneHeaderD1Ev
_ZN13FullWrtStruct10ZoneHeaderD2Ev
_ZN13FullWrtStruct5EntryC1ERKSt10shared_ptrI15MWAWInputStreamE
_ZN13FullWrtStruct5EntryC2ERKSt10shared_ptrI15MWAWInputStreamE
_ZN13FullWrtStruct5EntryC2ERKSt10shared_ptrI15MWAWInputStreamE.cold
_ZN13FullWrtStruct5EntryD0Ev
_ZN13FullWrtStruct5EntryD1Ev
_ZN13FullWrtStruct5EntryD2Ev
_ZN13FullWrtStruct6BorderC1Ev
_ZN13FullWrtStruct6BorderC2Ev.lto_priv.0
_ZN13FullWrtStruct6BorderD1Ev
_ZN13FullWrtStruct6BorderD2Ev.lto_priv.0
_ZN13FullWrtStruct6BorderaSERKS0_.isra.0
_ZN13FullWrtStruct8getColorEiR9MWAWColor
_ZN13GreatWksGraph10checkGraphERN21GreatWksGraphInternal4ZoneEiRSt3setIiSt4lessIiESaIiEE.isra.0
_ZN13GreatWksGraph10checkGraphERN21GreatWksGraphInternal4ZoneEiRSt3setIiSt4lessIiESaIiEE.isra.0.cold
_ZN13GreatWksGraph11sendPictureERK9MWAWEntryRK12MWAWPosition.isra.0
_ZN13GreatWksGraph11sendPictureERK9MWAWEntryRK12MWAWPosition.isra.0.cold
_ZN13GreatWksGraph11sendTextboxERKN21GreatWksGraphInternal9FrameTextERKNS0_4ZoneERK12MWAWPosition.isra.0
_ZN13GreatWksGraph11sendTextboxERKN21GreatWksGraphInternal9FrameTextERKNS0_4ZoneERK12MWAWPosition.isra.0.cold
_ZN13GreatWksGraph12isPageFramesEv
_ZN13GreatWksGraph13isGraphicZoneEv
_ZN13GreatWksGraph13isGraphicZoneEv.cold
_ZN13GreatWksGraph14readLineFormatERNSt7__cxx1112basic_stringIcSt11char_traitsIcESaIcEEE.isra.0
_ZN13GreatWksGraph14readPageFramesEv
_ZN13GreatWksGraph14readPageFramesEv.cold
_ZN13GreatWksGraph14sendGroupChildERKN21GreatWksGraphInternal10FrameGroupERKNS0_4ZoneERK12MWAWPosition
_ZN13GreatWksGraph14sendGroupChildERKN21GreatWksGraphInternal10FrameGroupERKNS0_4ZoneERK12MWAWPosition.cold
_ZN13GreatWksGraph15readGraphicZoneEv
_ZN13GreatWksGraph15readGraphicZoneEv.cold
_ZN13GreatWksGraph16canCreateGraphicERKN21GreatWksGraphInternal10FrameGroupERKNS0_4ZoneE
_ZN13GreatWksGraph16canCreateGraphicERKN21GreatWksGraphInternal10FrameGroupERKNS0_4ZoneE.cold
_ZN13GreatWksGraph16sendPageGraphicsEv
_ZN13GreatWksGraph16sendPageGraphicsEv.cold
_ZN13GreatWksGraph18readFrameExtraDataERN21GreatWksGraphInternal5FrameEil.isra.0
_ZN13GreatWksGraph18readFrameExtraDataERN21GreatWksGraphInternal5FrameEil.isra.0.cold
_ZN13GreatWksGraph20sendTextboxAsGraphicERK8MWAWBox2IfERKN21GreatWksGraphInternal9FrameTextERK16MWAWGraphicStyleSt10shared_ptrI12MWAWListenerE
_ZN13GreatWksGraph20sendTextboxAsGraphicERK8MWAWBox2IfERKN21GreatWksGraphInternal9FrameTextERK16MWAWGraphicStyleSt10shared_ptrI12MWAWListenerE.cold
_ZN13GreatWksGraph21readFrameExtraDataRecERN21GreatWksGraphInternal4ZoneEiRSt3setIiSt4lessIiESaIiEEl
_ZN13GreatWksGraph21readFrameExtraDataRecERN21GreatWksGraphInternal4ZoneEiRSt3setIiSt4lessIiESaIiEEl.cold
_ZN13GreatWksGraph9readStyleER16MWAWGraphicStyle.isra.0
_ZN13GreatWksGraph9readStyleER16MWAWGraphicStyle.isra.0.cold
_ZN13GreatWksGraph9sendFrameESt10shared_ptrIN21GreatWksGraphInternal5FrameEERKNS1_4ZoneE.isra.0
_ZN13GreatWksGraph9sendFrameESt10shared_ptrIN21GreatWksGraphInternal5FrameEERKNS1_4ZoneE.isra.0.cold
_ZN13GreatWksGraph9sendGroupERKN21GreatWksGraphInternal10FrameGroupERKNS0_4ZoneERSt10shared_ptrI19MWAWGraphicListenerE
_ZN13GreatWksGraph9sendGroupERKN21GreatWksGraphInternal10FrameGroupERKNS0_4ZoneERSt10shared_ptrI19MWAWGraphicListenerE.cold
_ZN13GreatWksGraphD0Ev
_ZN13GreatWksGraphD1Ev
_ZN13GreatWksGraphD2Ev
_ZN13MWAWListLevelC1Ev
_ZN13MWAWListLevelC2Ev.lto_priv.0
_ZN13MWAWListLevelC2Ev.lto_priv.0.cold
_ZN13MWAWListLevelD1Ev
_ZN13MWAWListLevelD2Ev.lto_priv.0
_ZN13MWAWListLevelaSERKS_.isra.0
_ZN13MWAWOLEParser11readCompObjESt10shared_ptrI15MWAWInputStreamERKNSt7__cxx1112basic_stringIcSt11char_traitsIcESaIcEEERN7libmwaw9DebugFileE.isra.0
_ZN13MWAWOLEParser11readCompObjESt10shared_ptrI15MWAWInputStreamERKNSt7__cxx1112basic_stringIcSt11char_traitsIcESaIcEEERN7libmwaw9DebugFileE.isra.0.cold
_ZN13MWAWOLEParser13isOle10NativeESt10shared_ptrI15MWAWInputStreamERKNSt7__cxx1112basic_stringIcSt11char_traitsIcESaIcEEE.isra.0
_ZN13MWAWOLEParser5parseESt10shared_ptrI15MWAWInputStreamE
_ZN13MWAWOLEParser5parseESt10shared_ptrI15MWAWInputStreamE.cold
_ZN13MWAWOLEParser9isOlePresESt10shared_ptrI15MWAWInputStreamERKNSt7__cxx1112basic_stringIcSt11char_traitsIcESaIcEEE.isra.0
_ZN13MWAWOLEParserC1ERKNSt7__cxx1112basic_stringIcSt11char_traitsIcESaIcEEERKSt10shared_ptrI17MWAWFontConverterEi
_ZN13MWAWOLEParserC2ERKNSt7__cxx1112basic_stringIcSt11char_traitsIcESaIcEEERKSt10shared_ptrI17MWAWFontConverterEi
_ZN13MWAWOLEParserC2ERKNSt7__cxx1112basic_stringIcSt11char_traitsIcESaIcEEERKSt10shared_ptrI17MWAWFontConverterEi.cold
_ZN13MWAWOLEParserD1Ev
_ZN13MWAWOLEParserD2Ev
_ZN13MWAWParagraph13resizeBordersEm
_ZN13MWAWParagraph13resizeBordersEm.cold
_ZN13MWAWParagraphC1ERKS_
_ZN13MWAWParagraphC1Ev
_ZN13MWAWParagraphC2ERKS_.lto_priv.0
_ZN13MWAWParagraphC2ERKS_.lto_priv.0.cold
_ZN13MWAWParagraphC2Ev
_ZN13MWAWParagraphC2Ev.cold
_ZN13MWAWParagraphD0Ev
_ZN13MWAWParagraphD1Ev
_ZN13MWAWParagraphD2Ev
_ZN13MWAWParagraphaSEOS_.isra.0
_ZN13MWAWParagraphaSERKS_.isra.0
_ZN13MacDrawParser10readObjectEv
_ZN13MacDrawParser10readObjectEv.cold
_ZN13MacDrawParser11checkHeaderEP10MWAWHeaderb
_ZN13MacDrawParser11checkHeaderEP10MWAWHeaderb.cold
_ZN13MacDrawParser13readPrintInfoEv
_ZN13MacDrawParser13readPrintInfoEv.cold
_ZN13MacDrawParser4sendERKN21MacDrawParserInternal5ShapeE
_ZN13MacDrawParser4sendERKN21MacDrawParserInternal5ShapeE.cold
_ZN13MacDrawParser5parseEPN10librevenge20RVNGDrawingInterfaceE
_ZN13MacDrawParser5parseEPN10librevenge20RVNGDrawingInterfaceE.cold
_ZN13MacDrawParserC1ERKSt10shared_ptrI15MWAWInputStreamERKS0_I14MWAWRSRCParserEP10MWAWHeader
_ZN13MacDrawParserC2ERKSt10shared_ptrI15MWAWInputStreamERKS0_I14MWAWRSRCParserEP10MWAWHeader
_ZN13MacDrawParserC2ERKSt10shared_ptrI15MWAWInputStreamERKS0_I14MWAWRSRCParserEP10MWAWHeader.cold
_ZN13MacDrawParserD0Ev
_ZN13MacDrawParserD1Ev
_ZN13MacDrawParserD2Ev
_ZN13MindWrtParser11checkHeaderEP10MWAWHeaderb
_ZN13MindWrtParser11checkHeaderEP10MWAWHeaderb.cold
_ZN13MindWrtParser11createZonesEv
_ZN13MindWrtParser11createZonesEv.cold
_ZN13MindWrtParser16sendHeaderFooterEb
_ZN13MindWrtParser16sendHeaderFooterEb.cold
_ZN13MindWrtParser22sendHeaderFooterFieldsEb
_ZN13MindWrtParser22sendHeaderFooterFieldsEb.cold
_ZN13MindWrtParser5parseEPN10librevenge17RVNGTextInterfaceE
_ZN13MindWrtParser5parseEPN10librevenge17RVNGTextInterfaceE.cold
_ZN13MindWrtParser7newPageEi
_ZN13MindWrtParser8sendTextERKNSt7__cxx1112basic_stringIcSt11char_traitsIcESaIcEEERKSt6vectorI8MWAWFontSaIS9_EERKS8_IiSaIiEE
_ZN13MindWrtParser8sendZoneEi
_ZN13MindWrtParser8sendZoneEi.cold
_ZN13MindWrtParser9readFontsERK9MWAWEntryRSt6vectorI8MWAWFontSaIS4_EERS3_IiSaIiEE.constprop.0
_ZN13MindWrtParser9readFontsERK9MWAWEntryRSt6vectorI8MWAWFontSaIS4_EERS3_IiSaIiEE.constprop.0.cold
_ZN13MindWrtParserC1ERKSt10shared_ptrI15MWAWInputStreamERKS0_I14MWAWRSRCParserEP10MWAWHeader
_ZN13MindWrtParserC2ERKSt10shared_ptrI15MWAWInputStreamERKS0_I14MWAWRSRCParserEP10MWAWHeader
_ZN13MindWrtParserC2ERKSt10shared_ptrI15MWAWInputStreamERKS0_I14MWAWRSRCParserEP10MWAWHeader.cold
_ZN13MindWrtParserD0Ev
_ZN13MindWrtParserD1Ev
_ZN13MindWrtParserD2Ev
_ZN13MsWksDBParser11checkHeaderEP10MWAWHeaderb
_ZN13MsWksDBParser11checkHeaderEP10MWAWHeaderb.cold
_ZN13MsWksDBParser11createZonesEv
_ZN13MsWksDBParser11createZonesEv.cold
_ZN13MsWksDBParser11readColSizeERSt6vectorIiSaIiEE
_ZN13MsWksDBParser11readColSizeERSt6vectorIiSaIiEE.cold
_ZN13MsWksDBParser11readFiltersEv
_ZN13MsWksDBParser11readFiltersEv.cold
_ZN13MsWksDBParser11readFormulaEv
_ZN13MsWksDBParser11readFormulaEv.cold
_ZN13MsWksDBParser11readRecordsEb
_ZN13MsWksDBParser11readRecordsEb.cold
_ZN13MsWksDBParser12sendDatabaseEv
_ZN13MsWksDBParser12sendDatabaseEv.cold
_ZN13MsWksDBParser14readFieldTypesEv
_ZN13MsWksDBParser14readFieldTypesEv.cold
_ZN13MsWksDBParser16readFieldTypesV2Ev
_ZN13MsWksDBParser16readFieldTypesV2Ev.cold
_ZN13MsWksDBParser17readDefaultValuesEv
_ZN13MsWksDBParser17readDefaultValuesEv.cold
_ZN13MsWksDBParser17readSerialFormulaEv
_ZN13MsWksDBParser17readSerialFormulaEv.cold
_ZN13MsWksDBParser5parseEPN10librevenge24RVNGSpreadsheetInterfaceE
_ZN13MsWksDBParser5parseEPN10librevenge24RVNGSpreadsheetInterfaceE.cold
_ZN13MsWksDBParser9readFormsEv
_ZN13MsWksDBParser9readFormsEv.cold
_ZN13MsWksDBParserD0Ev
_ZN13MsWksDBParserD1Ev
_ZN13MsWksDBParserD2Ev
_ZN13MsWksDRParser11checkHeaderEP10MWAWHeaderb
_ZN13MsWksDRParser11createZonesEv
_ZN13MsWksDRParser11createZonesEv.cold
_ZN13MsWksDRParser5parseEPN10librevenge20RVNGDrawingInterfaceE
_ZN13MsWksDRParser5parseEPN10librevenge20RVNGDrawingInterfaceE.cold
_ZN13MsWksDRParser7newPageEib
_ZN13MsWksDRParser7newPageEib.cold
_ZN13MsWksDRParserD0Ev
_ZN13MsWksDRParserD1Ev
_ZN13MsWksDRParserD2Ev
_ZN13MsWksDocument11readFormulaElR15MWAWCellContentRNSt7__cxx1112basic_stringIcSt11char_traitsIcESaIcEEE.isra.0
_ZN13MsWksDocument11readFormulaElR15MWAWCellContentRNSt7__cxx1112basic_stringIcSt11char_traitsIcESaIcEEE.isra.0.cold
_ZN13MsWksDocument11sendTextboxERK9MWAWEntryRKNSt7__cxx1112basic_stringIcSt11char_traitsIcESaIcEEE
_ZN13MsWksDocument11sendTextboxERK9MWAWEntryRKNSt7__cxx1112basic_stringIcSt11char_traitsIcESaIcEEE.cold
_ZN13MsWksDocument12checkHeader3EP10MWAWHeaderb
_ZN13MsWksDocument12checkHeader3EP10MWAWHeaderb.cold
_ZN13MsWksDocument12readDBNumberElRdRbRNSt7__cxx1112basic_stringIcSt11char_traitsIcESaIcEEE
_ZN13MsWksDocument12readDBNumberElRdRbRNSt7__cxx1112basic_stringIcSt11char_traitsIcESaIcEEE.cold
_ZN13MsWksDocument12readDBStringElRNSt7__cxx1112basic_stringIcSt11char_traitsIcESaIcEEE
_ZN13MsWksDocument12readDBStringElRNSt7__cxx1112basic_stringIcSt11char_traitsIcESaIcEEE.cold
_ZN13MsWksDocument12sendFootnoteEi
_ZN13MsWksDocument12sendFootnoteEi.cold
_ZN13MsWksDocument14createOLEZonesESt10shared_ptrI15MWAWInputStreamE.isra.0
_ZN13MsWksDocument14createOLEZonesESt10shared_ptrI15MWAWInputStreamE.isra.0.cold
_ZN13MsWksDocument14getTextParser3Ev
_ZN13MsWksDocument14getTextParser3Ev.cold
_ZN13MsWksDocument14getTextParser4Ev
_ZN13MsWksDocument14getTextParser4Ev.cold
_ZN13MsWksDocument15getPageSpanListERSt6vectorI12MWAWPageSpanSaIS1_EERi.constprop.0
_ZN13MsWksDocument15getPageSpanListERSt6vectorI12MWAWPageSpanSaIS1_EERi.constprop.0.cold
_ZN13MsWksDocument16readDocumentInfoEl
_ZN13MsWksDocument16readDocumentInfoEl.cold
_ZN13MsWksDocument17readCellInFormulaERN15MWAWCellContent18FormulaInstructionEb
_ZN13MsWksDocument17readCellInFormulaERN15MWAWCellContent18FormulaInstructionEb.cold
_ZN13MsWksDocument21readGroupHeaderFooterEbi.constprop.0
_ZN13MsWksDocument21readGroupHeaderFooterEbi.constprop.0.cold
_ZN13MsWksDocument7newPageEib
_ZN13MsWksDocument7sendOLEEiRK12MWAWPositionRK16MWAWGraphicStyle
_ZN13MsWksDocument7sendOLEEiRK12MWAWPositionRK16MWAWGraphicStyle.cold
_ZN13MsWksDocument8getColorEiR9MWAWColori.constprop.0
_ZN13MsWksDocument8readZoneERNS_4ZoneE
_ZN13MsWksDocument8readZoneERNS_4ZoneE.cold
_ZN13MsWksDocument8sendZoneEi
_ZN13MsWksDocumentC1ERKSt10shared_ptrI15MWAWInputStreamER10MWAWParser
_ZN13MsWksDocumentC2ERKSt10shared_ptrI15MWAWInputStreamER10MWAWParser
_ZN13MsWksDocumentC2ERKSt10shared_ptrI15MWAWInputStreamER10MWAWParser.cold
_ZN13MsWksDocumentD0Ev
_ZN13MsWksDocumentD1Ev
_ZN13MsWksDocumentD2Ev
_ZN13MsWksSSParser11checkHeaderEP10MWAWHeaderb
_ZN13MsWksSSParser11checkHeaderEP10MWAWHeaderb.cold
_ZN13MsWksSSParser11createZonesEv
_ZN13MsWksSSParser11createZonesEv.cold
_ZN13MsWksSSParser15sendSpreadsheetEv
_ZN13MsWksSSParser15sendSpreadsheetEv.cold
_ZN13MsWksSSParser5parseEPN10librevenge24RVNGSpreadsheetInterfaceE
_ZN13MsWksSSParser5parseEPN10librevenge24RVNGSpreadsheetInterfaceE.cold
_ZN13MsWksSSParser8sendNoteEi
_ZN13MsWksSSParser8sendNoteEi.cold
_ZN13MsWksSSParserD0Ev
_ZN13MsWksSSParserD1Ev
_ZN13MsWksSSParserD2Ev
_ZN13NisusWrtGraph11sendPictureEib12MWAWPosition
_ZN13NisusWrtGraph11sendPictureEib12MWAWPosition.cold
_ZN13NisusWrtGraphD0Ev
_ZN13NisusWrtGraphD1Ev
_ZN13NisusWrtGraphD2Ev
_ZN13RagTime5Chart16readChartClusterER12RagTime5Zonei
_ZN13RagTime5Chart16readChartClusterER12RagTime5Zonei.cold
_ZN13RagTime5ChartD0Ev
_ZN13RagTime5ChartD1Ev
_ZN13RagTime5ChartD2Ev
_ZN13RagTime5Graph15readPictureDataER12RagTime5ZoneRN10librevenge14RVNGBinaryDataERNSt7__cxx1112basic_stringIcSt11char_traitsIcESaIcEEE.constprop.0
_ZN13RagTime5Graph15readPictureDataER12RagTime5ZoneRN10librevenge14RVNGBinaryDataERNSt7__cxx1112basic_stringIcSt11char_traitsIcESaIcEEE.constprop.0.cold
_ZN13RagTime5Graph15readPictureListER12RagTime5Zone.isra.0
_ZN13RagTime5Graph15readPictureListER12RagTime5Zone.isra.0.cold
_ZN13RagTime5Graph16readGraphicShapeERN21RagTime5GraphInternal14ClusterGraphicER12RagTime5ZoneliRKN10librevenge10RVNGStringE.isra.0
_ZN13RagTime5Graph16readGraphicShapeERN21RagTime5GraphInternal14ClusterGraphicER12RagTime5ZoneliRKN10librevenge10RVNGStringE.isra.0.cold
_ZN13RagTime5Graph16readGraphicTypesERKN22RagTime5ClusterManager4LinkE
_ZN13RagTime5Graph16readGraphicTypesERKN22RagTime5ClusterManager4LinkE.cold
_ZN13RagTime5Graph17readButtonClusterER12RagTime5Zonei
_ZN13RagTime5Graph17readButtonClusterER12RagTime5Zonei.cold
_ZN13RagTime5Graph18readGraphicClusterER12RagTime5Zonei
_ZN13RagTime5Graph18readGraphicClusterER12RagTime5Zonei.cold
_ZN13RagTime5Graph18readPictureClusterER12RagTime5Zonei
_ZN13RagTime5Graph18readPictureClusterER12RagTime5Zonei.cold
_ZN13RagTime5Graph20readColorPatternZoneERN22RagTime5ClusterManager7ClusterE
_ZN13RagTime5Graph20readColorPatternZoneERN22RagTime5ClusterManager7ClusterE.cold
_ZN13RagTime5Graph20sendButtonZoneAsTextESt10shared_ptrI12MWAWListenerEi
_ZN13RagTime5Graph4sendERKN21RagTime5GraphInternal5ShapeERKNS0_14ClusterGraphicESt10shared_ptrI12MWAWListenerERK12MWAWPosition.isra.0
_ZN13RagTime5Graph4sendERKN21RagTime5GraphInternal5ShapeERKNS0_14ClusterGraphicESt10shared_ptrI12MWAWListenerERK12MWAWPosition.isra.0.cold
_ZN13RagTime5Graph4sendERN21RagTime5GraphInternal13ClusterButtonESt10shared_ptrI12MWAWListenerERK12MWAWPositionRK16MWAWGraphicStyle
_ZN13RagTime5Graph4sendERN21RagTime5GraphInternal13ClusterButtonESt10shared_ptrI12MWAWListenerERK12MWAWPositionRK16MWAWGraphicStyle.cold
_ZN13RagTime5Graph4sendERN21RagTime5GraphInternal14ClusterPictureESt10shared_ptrI12MWAWListenerERK12MWAWPosition
_ZN13RagTime5Graph4sendERN21RagTime5GraphInternal14ClusterPictureESt10shared_ptrI12MWAWListenerERK12MWAWPosition.cold
_ZN13RagTime5GraphD0Ev
_ZN13RagTime5GraphD1Ev
_ZN13RagTime5GraphD2Ev
_ZN13RagTimeParser11checkHeaderEP10MWAWHeaderb
_ZN13RagTimeParser11checkHeaderEP10MWAWHeaderb.cold
_ZN13RagTimeParser11createZonesEv
_ZN13RagTimeParser11createZonesEv.cold
_ZN13RagTimeParser13findDataZonesEv
_ZN13RagTimeParser13findDataZonesEv.cold
_ZN13RagTimeParser13readPrintInfoER9MWAWEntryb.isra.0
_ZN13RagTimeParser13readPrintInfoER9MWAWEntryb.isra.0.cold
_ZN13RagTimeParser14readPictZoneV2ER9MWAWEntry.isra.0
_ZN13RagTimeParser14readPictZoneV2ER9MWAWEntry.isra.0.cold
_ZN13RagTimeParser16readMacroFormatsER9MWAWEntry.isra.0
_ZN13RagTimeParser16readMacroFormatsER9MWAWEntry.isra.0.cold
_ZN13RagTimeParser18readDataZoneHeaderEil
_ZN13RagTimeParser18readDataZoneHeaderEil.cold
_ZN13RagTimeParser4initEv
_ZN13RagTimeParser4initEv.cold
_ZN13RagTimeParser4sendEi.isra.0
_ZN13RagTimeParser4sendEi.isra.0.cold
_ZN13RagTimeParser5parseEPN10librevenge17RVNGTextInterfaceE
_ZN13RagTimeParser5parseEPN10librevenge17RVNGTextInterfaceE.cold
_ZN13RagTimeParser8sendTextEiSt10shared_ptrI12MWAWListenerE
_ZN13RagTimeParser8sendTextEiSt10shared_ptrI12MWAWListenerE.cold
_ZN13RagTimeParser9readLinksER9MWAWEntry.isra.0
_ZN13RagTimeParser9readLinksER9MWAWEntry.isra.0.cold
_ZN13RagTimeParser9readZone6ER9MWAWEntry.isra.0
_ZN13RagTimeParser9readZone6ER9MWAWEntry.isra.0.cold
_ZN13RagTimeParserD0Ev
_ZN13RagTimeParserD1Ev
_ZN13RagTimeParserD2Ev
_ZN13RagTimeStruct12ResourceList4readESt10shared_ptrI15MWAWInputStreamER9MWAWEntry
_ZN13SheetRowStyleD0Ev
_ZN13SheetRowStyleD1Ev
_ZN13SheetRowStyleD2Ev
_ZN13SndfileHandleC1EPKciiii
_ZN13SndfileHandleC2EPKciiii
_ZN13SndfileHandleD1Ev
_ZN13SndfileHandleD2Ev
_ZN13TableRowStyleD0Ev
_ZN13TableRowStyleD1Ev
_ZN13TableRowStyleD2Ev
_ZN13WriteNowEntryD0Ev
_ZN13WriteNowEntryD1Ev
_ZN13WriteNowEntryD2Ev
_ZN13XDCAM_Support17GetLegacyMetadataEP8TXMPMetaINSt7__cxx1112basic_stringIcSt11char_traitsIcESaIcEEEEP8XML_NodePKcbRS6_
_ZN13XDCAM_Support17GetLegacyMetadataEP8TXMPMetaINSt7__cxx1112basic_stringIcSt11char_traitsIcESaIcEEEEP8XML_NodePKcbRS6_.cold
_ZN13XDCAM_Support17SetLegacyMetadataEP8XML_NodeP8TXMPMetaINSt7__cxx1112basic_stringIcSt11char_traitsIcESaIcEEEEPKc
_ZN13XDCAM_Support17SetLegacyMetadataEP8XML_NodeP8TXMPMetaINSt7__cxx1112basic_stringIcSt11char_traitsIcESaIcEEEEPKc.cold
_ZN13XDCAM_Support25GetMediaProLegacyMetadataEP8TXMPMetaINSt7__cxx1112basic_stringIcSt11char_traitsIcESaIcEEEERKS6_SA_b
_ZN13XDCAM_Support25GetMediaProLegacyMetadataEP8TXMPMetaINSt7__cxx1112basic_stringIcSt11char_traitsIcESaIcEEEERKS6_SA_b.cold
_ZN13XMP_AutoMutex7ReleaseEv
_ZN13XMP_AutoMutex7ReleaseEv.part.0
_ZN13XMP_AutoMutexC2EP15pthread_mutex_t.part.0
_ZN13XMP_AutoMutexD1Ev
_ZN13XMP_AutoMutexD2Ev.lto_priv.0
_ZN14ClarisDrawText10readTokensERK9MWAWEntryRN22ClarisDrawTextInternal4DSETE
_ZN14ClarisDrawText10readTokensERK9MWAWEntryRN22ClarisDrawTextInternal4DSETE.cold
_ZN14ClarisDrawText13readParagraphEi
_ZN14ClarisDrawText13readParagraphEi.cold
_ZN14ClarisDrawText14readParagraphsERK9MWAWEntryRN22ClarisDrawTextInternal4DSETE
_ZN14ClarisDrawText14readParagraphsERK9MWAWEntryRN22ClarisDrawTextInternal4DSETE.cold
_ZN14ClarisDrawText14readParagraphsEv
_ZN14ClarisDrawText14readParagraphsEv.cold
_ZN14ClarisDrawText16readTextZoneSizeERK9MWAWEntryRN22ClarisDrawTextInternal4DSETE
_ZN14ClarisDrawText16readTextZoneSizeERK9MWAWEntryRN22ClarisDrawTextInternal4DSETE.cold
_ZN14ClarisDrawText8readFontEiRiR8MWAWFont.isra.0
_ZN14ClarisDrawText8readFontEiRiR8MWAWFont.isra.0.cold
_ZN14ClarisDrawTextD0Ev
_ZN14ClarisDrawTextD1Ev
_ZN14ClarisDrawTextD2Ev
_ZN14ClarisWksGraph10sendBitmapEiSt10shared_ptrI12MWAWListenerERK12MWAWPosition
_ZN14ClarisWksGraph10sendBitmapEiSt10shared_ptrI12MWAWListenerERK12MWAWPosition.cold
_ZN14ClarisWksGraph11sendPictureERN22ClarisWksGraphInternal8ZonePictE12MWAWPosition.isra.0
_ZN14ClarisWksGraph11sendPictureERN22ClarisWksGraphInternal8ZonePictE12MWAWPosition.isra.0.cold
_ZN14ClarisWksGraph12readGroupDefERK9MWAWEntry
_ZN14ClarisWksGraph12readGroupDefERK9MWAWEntry.cold
_ZN14ClarisWksGraph12readPictDataESt10shared_ptrIN22ClarisWksGraphInternal4ZoneEE
_ZN14ClarisWksGraph12readPictDataESt10shared_ptrIN22ClarisWksGraphInternal4ZoneEE.cold
_ZN14ClarisWksGraph13readGroupZoneERKN15ClarisWksStruct4DSETERK9MWAWEntryRb
_ZN14ClarisWksGraph13readGroupZoneERKN15ClarisWksStruct4DSETERK9MWAWEntryRb.cold
_ZN14ClarisWksGraph13readQTimeDataESt10shared_ptrIN22ClarisWksGraphInternal4ZoneEE
_ZN14ClarisWksGraph13readQTimeDataESt10shared_ptrIN22ClarisWksGraphInternal4ZoneEE.cold
_ZN14ClarisWksGraph13sendPageChildERN22ClarisWksGraphInternal5GroupE
_ZN14ClarisWksGraph13sendPageChildERN22ClarisWksGraphInternal5GroupE.cold
_ZN14ClarisWksGraph14readBitmapZoneERKN15ClarisWksStruct4DSETERK9MWAWEntryRb
_ZN14ClarisWksGraph14readBitmapZoneERKN15ClarisWksStruct4DSETERK9MWAWEntryRb.cold
_ZN14ClarisWksGraph14sendGroupChildERKSt6vectorISt10shared_ptrIN22ClarisWksGraphInternal4ZoneEESaIS4_EES1_I12MWAWListenerERK8MWAWVec2IfE
_ZN14ClarisWksGraph14sendGroupChildERKSt6vectorISt10shared_ptrIN22ClarisWksGraphInternal4ZoneEESaIS4_EES1_I12MWAWListenerERK8MWAWVec2IfE.cold
_ZN14ClarisWksGraph14sendGroupChildESt10shared_ptrIN22ClarisWksGraphInternal4ZoneEE12MWAWPosition.isra.0
_ZN14ClarisWksGraph14sendGroupChildESt10shared_ptrIN22ClarisWksGraphInternal4ZoneEE12MWAWPosition.isra.0.cold
_ZN14ClarisWksGraph16readGroupUnknownERN22ClarisWksGraphInternal5GroupEii
_ZN14ClarisWksGraph16readGroupUnknownERN22ClarisWksGraphInternal5GroupEii.cold
_ZN14ClarisWksGraph9sendGroupERN22ClarisWksGraphInternal5GroupERK12MWAWPosition
_ZN14ClarisWksGraph9sendGroupERN22ClarisWksGraphInternal5GroupERK12MWAWPosition.cold
_ZN14ClarisWksGraph9sendGroupEiSt10shared_ptrI12MWAWListenerERK12MWAWPosition
_ZN14ClarisWksGraph9sendGroupEiSt10shared_ptrI12MWAWListenerERK12MWAWPosition.cold
_ZN14ClarisWksGraphD0Ev
_ZN14ClarisWksGraphD1Ev
_ZN14ClarisWksGraphD2Ev
_ZN14ClarisWksTable14readTableCellsERN22ClarisWksTableInternal5TableE
_ZN14ClarisWksTable14readTableCellsERN22ClarisWksTableInternal5TableE.cold
_ZN14ClarisWksTable16readTableBordersERN22ClarisWksTableInternal5TableE
_ZN14ClarisWksTable16readTableBordersERN22ClarisWksTableInternal5TableE.cold
_ZN14ClarisWksTable18readTableBordersIdERN22ClarisWksTableInternal5TableE
_ZN14ClarisWksTable18readTableBordersIdERN22ClarisWksTableInternal5TableE.cold
_ZN14ClarisWksTable8sendZoneEi
_ZN14ClarisWksTable8sendZoneEi.cold
_ZN14ClarisWksTableD0Ev
_ZN14ClarisWksTableD1Ev
_ZN14ClarisWksTableD2Ev
_ZN14FreeHandParser10readZoneV1Ei
_ZN14FreeHandParser10readZoneV1Ei.cold
_ZN14FreeHandParser10readZoneV2Ei
_ZN14FreeHandParser10readZoneV2Ei.cold
_ZN14FreeHandParser11checkHeaderEP10MWAWHeaderb
_ZN14FreeHandParser11checkHeaderEP10MWAWHeaderb.cold
_ZN14FreeHandParser11readGroupV1Ei
_ZN14FreeHandParser11readGroupV1Ei.cold
_ZN14FreeHandParser11readGroupV2Ei
_ZN14FreeHandParser11readGroupV2Ei.cold
_ZN14FreeHandParser11sendPictureERKN22FreeHandParserInternal5ShapeERK18MWAWTransformation
_ZN14FreeHandParser11sendPictureERKN22FreeHandParserInternal5ShapeERK18MWAWTransformation.cold
_ZN14FreeHandParser11sendTextboxERKN22FreeHandParserInternal7TextboxERK18MWAWTransformation
_ZN14FreeHandParser11sendTextboxERKN22FreeHandParserInternal7TextboxERK18MWAWTransformation.cold
_ZN14FreeHandParser13readFillStyleEi
_ZN14FreeHandParser13readFillStyleEi.cold
_ZN14FreeHandParser13readJoinGroupEi
_ZN14FreeHandParser13readJoinGroupEi.cold
_ZN14FreeHandParser13readLineStyleEi
_ZN14FreeHandParser13readLineStyleEi.cold
_ZN14FreeHandParser13readRootGroupEi
_ZN14FreeHandParser13readRootGroupEi.cold
_ZN14FreeHandParser13readTextboxV1Ei
_ZN14FreeHandParser13readTextboxV1Ei.cold
_ZN14FreeHandParser13readTextboxV2Ei
_ZN14FreeHandParser13readTextboxV2Ei.cold
_ZN14FreeHandParser14readScreenModeERN22FreeHandParserInternal10ScreenModeE
_ZN14FreeHandParser14readScreenModeERN22FreeHandParserInternal10ScreenModeE.cold
_ZN14FreeHandParser14readStringZoneEi
_ZN14FreeHandParser14readStringZoneEi.cold
_ZN14FreeHandParser14readStyleGroupEi
_ZN14FreeHandParser14readStyleGroupEi.cold
_ZN14FreeHandParser15decomposeMatrixERK18MWAWTransformationRfRS0_RK8MWAWVec2IfE.constprop.0
_ZN14FreeHandParser15readPictureZoneEi
_ZN14FreeHandParser15readPictureZoneEi.cold
_ZN14FreeHandParser15readShapeHeaderERN22FreeHandParserInternal11ShapeHeaderE
_ZN14FreeHandParser15readShapeHeaderERN22FreeHandParserInternal11ShapeHeaderE.cold
_ZN14FreeHandParser15readStyleHeaderERN22FreeHandParserInternal11StyleHeaderE
_ZN14FreeHandParser15readStyleHeaderERN22FreeHandParserInternal11StyleHeaderE.cold
_ZN14FreeHandParser18readTransformGroupEi
_ZN14FreeHandParser18readTransformGroupEi.cold
_ZN14FreeHandParser19readPostscriptStyleEi
_ZN14FreeHandParser19readPostscriptStyleEi.cold
_ZN14FreeHandParser21readBackgroundPictureEi
_ZN14FreeHandParser21readBackgroundPictureEi.cold
_ZN14FreeHandParser21sendBackgroundPictureERKN22FreeHandParserInternal5ShapeERK18MWAWTransformation.isra.0
_ZN14FreeHandParser21sendBackgroundPictureERKN22FreeHandParserInternal5ShapeERK18MWAWTransformation.isra.0.cold
_ZN14FreeHandParser4initEv
_ZN14FreeHandParser4initEv.cold
_ZN14FreeHandParser5parseEPN10librevenge20RVNGDrawingInterfaceE
_ZN14FreeHandParser5parseEPN10librevenge20RVNGDrawingInterfaceE.cold
_ZN14FreeHandParser8readDashEi
_ZN14FreeHandParser8readDashEi.cold
_ZN14FreeHandParser8sendTextEi.isra.0
_ZN14FreeHandParser8sendTextEi.isra.0.cold
_ZN14FreeHandParser8sendZoneEiRK18MWAWTransformation
_ZN14FreeHandParser8sendZoneEiRK18MWAWTransformation.cold
_ZN14FreeHandParser9openLayerEi
_ZN14FreeHandParser9openLayerEi.cold
_ZN14FreeHandParser9readColorEi
_ZN14FreeHandParser9readColorEi.cold
_ZN14FreeHandParser9readShapeEi
_ZN14FreeHandParser9readShapeEi.cold
_ZN14FreeHandParser9sendShapeERKN22FreeHandParserInternal5ShapeERK18MWAWTransformation
_ZN14FreeHandParser9sendShapeERKN22FreeHandParserInternal5ShapeERK18MWAWTransformation.cold
_ZN14FreeHandParserD0Ev
_ZN14FreeHandParserD1Ev
_ZN14FreeHandParserD2Ev
_ZN14GreatWksParser11checkHeaderEP10MWAWHeaderb
_ZN14GreatWksParser11readDocInfoEv
_ZN14GreatWksParser11readDocInfoEv.cold
_ZN14GreatWksParser14createDocumentEPN10librevenge17RVNGTextInterfaceE
_ZN14GreatWksParser14createDocumentEPN10librevenge17RVNGTextInterfaceE.cold
_ZN14GreatWksParser4initEv
_ZN14GreatWksParser4initEv.cold
_ZN14GreatWksParser5parseEPN10librevenge17RVNGTextInterfaceE
_ZN14GreatWksParser5parseEPN10librevenge17RVNGTextInterfaceE.cold
_ZN14GreatWksParser7newPageEi
_ZN14GreatWksParserD0Ev
_ZN14GreatWksParserD1Ev
_ZN14GreatWksParserD2Ev
_ZN14HanMacWrdJText10readFtnPosERK9MWAWEntry
_ZN14HanMacWrdJText10readFtnPosERK9MWAWEntry.cold
_ZN14HanMacWrdJText10readStylesERK9MWAWEntry
_ZN14HanMacWrdJText10readStylesERK9MWAWEntry.cold
_ZN14HanMacWrdJText12readSectionsERK9MWAWEntry
_ZN14HanMacWrdJText12readSectionsERK9MWAWEntry.cold
_ZN14HanMacWrdJText13readFontNamesERK9MWAWEntry
_ZN14HanMacWrdJText13readFontNamesERK9MWAWEntry.cold
_ZN14HanMacWrdJText14readParagraphsERK9MWAWEntry
_ZN14HanMacWrdJText14readParagraphsERK9MWAWEntry.cold
_ZN14HanMacWrdJText17readTextZonesListERK9MWAWEntry
_ZN14HanMacWrdJText17readTextZonesListERK9MWAWEntry.cold
_ZN14HanMacWrdJText20canSendTextAsGraphicEll.constprop.0
_ZN14HanMacWrdJText8sendTextERKN22HanMacWrdJTextInternal8TextZoneElSt10shared_ptrI12MWAWListenerE
_ZN14HanMacWrdJText8sendTextERKN22HanMacWrdJTextInternal8TextZoneElSt10shared_ptrI12MWAWListenerE.cold
_ZN14HanMacWrdJText8sendTextEllSt10shared_ptrI12MWAWListenerE
_ZN14HanMacWrdJText8sendTextEllSt10shared_ptrI12MWAWListenerE.cold
_ZN14HanMacWrdJText9readFontsERK9MWAWEntry
_ZN14HanMacWrdJText9readFontsERK9MWAWEntry.cold
_ZN14HanMacWrdJTextD0Ev
_ZN14HanMacWrdJTextD1Ev
_ZN14HanMacWrdJTextD2Ev
_ZN14HanMacWrdKText12readTextZoneESt10shared_ptrI14HanMacWrdKZoneE
_ZN14HanMacWrdKText12readTextZoneESt10shared_ptrI14HanMacWrdKZoneE.cold
_ZN14HanMacWrdKText13readFontNamesESt10shared_ptrI14HanMacWrdKZoneE
_ZN14HanMacWrdKText13readFontNamesESt10shared_ptrI14HanMacWrdKZoneE.cold
_ZN14HanMacWrdKText20canSendTextAsGraphicER14HanMacWrdKZone
_ZN14HanMacWrdKText20canSendTextAsGraphicER14HanMacWrdKZone.cold
_ZN14HanMacWrdKText20canSendTextAsGraphicEll.constprop.0
_ZN14HanMacWrdKText20canSendTextAsGraphicEll.constprop.0.cold
_ZN14HanMacWrdKText8sendTextER14HanMacWrdKZoneSt10shared_ptrI12MWAWListenerE.isra.0
_ZN14HanMacWrdKText8sendTextER14HanMacWrdKZoneSt10shared_ptrI12MWAWListenerE.isra.0.cold
_ZN14HanMacWrdKText8sendTextEllSt10shared_ptrI12MWAWListenerE
_ZN14HanMacWrdKText8sendTextEllSt10shared_ptrI12MWAWListenerE.cold
_ZN14HanMacWrdKTextD0Ev
_ZN14HanMacWrdKTextD1Ev
_ZN14HanMacWrdKTextD2Ev
_ZN14HanMacWrdKZone4nameB5cxx11Ei
_ZN14HanMacWrdKZone4nameB5cxx11Ei.cold
_ZN14JackDriverInfo4OpenEP18jack_driver_desc_tPN4Jack16JackLockedEngineEPNS2_14JackLinuxFutexEPK7_JSList
_ZN14JackDriverInfoD1Ev
_ZN14JackDriverInfoD2Ev
_ZN14MWAWRSRCParser5parseEv
_ZN14MWAWRSRCParser5parseEv.cold
_ZN14MWAWRSRCParser7VersionC1Ev
_ZN14MWAWRSRCParser7VersionC2Ev.lto_priv.0
_ZN14MWAWRSRCParser7VersionD1Ev
_ZN14MWAWRSRCParser7VersionD2Ev.lto_priv.0
_ZN14MWAWRSRCParser8parseSTRERK9MWAWEntryRNSt7__cxx1112basic_stringIcSt11char_traitsIcESaIcEEE
_ZN14MWAWRSRCParser9parseClutERK9MWAWEntryRSt6vectorI9MWAWColorSaIS4_EE.constprop.0
_ZN14MWAWRSRCParser9parsePICTERK9MWAWEntryRN10librevenge14RVNGBinaryDataE
_ZN14MWAWRSRCParser9parseVersERK9MWAWEntryRNS_7VersionE
_ZN14MWAWRSRCParser9parseVersERK9MWAWEntryRNS_7VersionE.cold
_ZN14MWAWRSRCParserC1ERKSt10shared_ptrI15MWAWInputStreamE
_ZN14MWAWRSRCParserC2ERKSt10shared_ptrI15MWAWInputStreamE
_ZN14MWAWRSRCParserD1Ev
_ZN14MWAWRSRCParserD2Ev
_ZN14MWAWTextParserD2Ev
_ZN14MacDraftParser10readObjectEv
_ZN14MacDraftParser10readObjectEv.cold
_ZN14MacDraftParser11checkHeaderEP10MWAWHeaderb
_ZN14MacDraftParser11checkHeaderEP10MWAWHeaderb.cold
_ZN14MacDraftParser11readPatternEv
_ZN14MacDraftParser11readPatternEv.cold
_ZN14MacDraftParser13readDocHeaderEv
_ZN14MacDraftParser13readDocHeaderEv.cold
_ZN14MacDraftParser14readBitmapDataEv
_ZN14MacDraftParser14readBitmapDataEv.cold
_ZN14MacDraftParser4sendERKN22MacDraftParserInternal5ShapeE
_ZN14MacDraftParser4sendERKN22MacDraftParserInternal5ShapeE.cold
_ZN14MacDraftParser5parseEPN10librevenge20RVNGDrawingInterfaceE
_ZN14MacDraftParser5parseEPN10librevenge20RVNGDrawingInterfaceE.cold
_ZN14MacDraftParser8sendTextEi.isra.0
_ZN14MacDraftParser8sendTextEi.isra.0.cold
_ZN14MacDraftParserC1ERKSt10shared_ptrI15MWAWInputStreamERKS0_I14MWAWRSRCParserEP10MWAWHeader
_ZN14MacDraftParserC2ERKSt10shared_ptrI15MWAWInputStreamERKS0_I14MWAWRSRCParserEP10MWAWHeader
_ZN14MacDraftParserC2ERKSt10shared_ptrI15MWAWInputStreamERKS0_I14MWAWRSRCParserEP10MWAWHeader.cold
_ZN14MacDraftParserD0Ev
_ZN14MacDraftParserD1Ev
_ZN14MacDraftParserD2Ev
_ZN14MacPaintParser10readBitmapEb
_ZN14MacPaintParser10readBitmapEb.cold
_ZN14MacPaintParser10sendBitmapEv
_ZN14MacPaintParser10sendBitmapEv.cold
_ZN14MacPaintParser11checkHeaderEP10MWAWHeaderb
_ZN14MacPaintParser11checkHeaderEP10MWAWHeaderb.cold
_ZN14MacPaintParser5parseEPN10librevenge20RVNGDrawingInterfaceE
_ZN14MacPaintParser5parseEPN10librevenge20RVNGDrawingInterfaceE.cold
_ZN14MacPaintParserC1ERKSt10shared_ptrI15MWAWInputStreamERKS0_I14MWAWRSRCParserEP10MWAWHeader
_ZN14MacPaintParserC2ERKSt10shared_ptrI15MWAWInputStreamERKS0_I14MWAWRSRCParserEP10MWAWHeader
_ZN14MacPaintParserC2ERKSt10shared_ptrI15MWAWInputStreamERKS0_I14MWAWRSRCParserEP10MWAWHeader.cold
_ZN14MacPaintParserD0Ev
_ZN14MacPaintParserD1Ev
_ZN14MacPaintParserD2Ev
_ZN14MarinerWrtText11readPLCZoneERK15MarinerWrtEntryi
_ZN14MarinerWrtText11readPLCZoneERK15MarinerWrtEntryi.cold
_ZN14MarinerWrtText13readFontNamesERK15MarinerWrtEntryi
_ZN14MarinerWrtText13readFontNamesERK15MarinerWrtEntryi.cold
_ZN14MarinerWrtText14readTextStructERK15MarinerWrtEntryi
_ZN14MarinerWrtText14readTextStructERK15MarinerWrtEntryi.cold
_ZN14MarinerWrtText4sendERKN22MarinerWrtTextInternal4ZoneERK9MWAWEntry
_ZN14MarinerWrtText4sendERKN22MarinerWrtTextInternal4ZoneERK9MWAWEntry.cold
_ZN14MarinerWrtText4sendEi
_ZN14MarinerWrtText4sendEi.cold
_ZN14MarinerWrtText8readZoneERK15MarinerWrtEntryi
_ZN14MarinerWrtText8readZoneERK15MarinerWrtEntryi.cold
_ZN14MarinerWrtText9readFontsERK15MarinerWrtEntryi
_ZN14MarinerWrtText9readFontsERK15MarinerWrtEntryi.cold
_ZN14MarinerWrtTextD0Ev
_ZN14MarinerWrtTextD1Ev
_ZN14MarinerWrtTextD2Ev
_ZN14MouseWrtParser11checkHeaderEP10MWAWHeaderb
_ZN14MouseWrtParser11checkHeaderEP10MWAWHeaderb.cold
_ZN14MouseWrtParser12sendMainZoneEv
_ZN14MouseWrtParser12sendMainZoneEv.cold
_ZN14MouseWrtParser5parseEPN10librevenge17RVNGTextInterfaceE
_ZN14MouseWrtParser5parseEPN10librevenge17RVNGTextInterfaceE.cold
_ZN14MouseWrtParser7newPageEi
_ZN14MouseWrtParser8readFontER8MWAWFontRi
_ZN14MouseWrtParser8readFontER8MWAWFontRi.cold
_ZN14MouseWrtParser8sendZoneEi
_ZN14MouseWrtParser8sendZoneEi.cold
_ZN14MouseWrtParserC1ERKSt10shared_ptrI15MWAWInputStreamERKS0_I14MWAWRSRCParserEP10MWAWHeader
_ZN14MouseWrtParserC2ERKSt10shared_ptrI15MWAWInputStreamERKS0_I14MWAWRSRCParserEP10MWAWHeader
_ZN14MouseWrtParserC2ERKSt10shared_ptrI15MWAWInputStreamERKS0_I14MWAWRSRCParserEP10MWAWHeader.cold
_ZN14MouseWrtParserD0Ev
_ZN14MouseWrtParserD1Ev
_ZN14MouseWrtParserD2Ev
_ZN14NisusWrtParser11checkHeaderEP10MWAWHeaderb
_ZN14NisusWrtParser11checkHeaderEP10MWAWHeaderb.cold
_ZN14NisusWrtParser11createZonesEv
_ZN14NisusWrtParser11createZonesEv.cold
_ZN14NisusWrtParser11sendPictureEiRK12MWAWPosition.isra.0
_ZN14NisusWrtParser11sendPictureEiRK12MWAWPosition.isra.0.cold
_ZN14NisusWrtParser12readVariableERKN14NisusWrtStruct12RecursifDataE.isra.0
_ZN14NisusWrtParser12readVariableERKN14NisusWrtStruct12RecursifDataE.isra.0.cold
_ZN14NisusWrtParser13readPageLimitERK9MWAWEntry.isra.0
_ZN14NisusWrtParser13readPageLimitERK9MWAWEntry.isra.0.cold
_ZN14NisusWrtParser13readPrintInfoERK9MWAWEntry.isra.0
_ZN14NisusWrtParser13readPrintInfoERK9MWAWEntry.isra.0.cold
_ZN14NisusWrtParser13readReferenceERKN14NisusWrtStruct12RecursifDataE.isra.0
_ZN14NisusWrtParser13readReferenceERKN14NisusWrtStruct12RecursifDataE.isra.0.cold
_ZN14NisusWrtParser14createDocumentEPN10librevenge17RVNGTextInterfaceE
_ZN14NisusWrtParser14createDocumentEPN10librevenge17RVNGTextInterfaceE.cold
_ZN14NisusWrtParser15readStringsListERK9MWAWEntryRSt6vectorINSt7__cxx1112basic_stringIcSt11char_traitsIcESaIcEEESaIS9_EEb.constprop.0.isra.0
_ZN14NisusWrtParser15readStringsListERK9MWAWEntryRSt6vectorINSt7__cxx1112basic_stringIcSt11char_traitsIcESaIcEEESaIS9_EEb.constprop.0.isra.0.cold
_ZN14NisusWrtParser4initEv
_ZN14NisusWrtParser4initEv.cold
_ZN14NisusWrtParser5parseEPN10librevenge17RVNGTextInterfaceE
_ZN14NisusWrtParser5parseEPN10librevenge17RVNGTextInterfaceE.cold
_ZN14NisusWrtParser8readABBRERK9MWAWEntry.isra.0
_ZN14NisusWrtParser8readABBRERK9MWAWEntry.isra.0.cold
_ZN14NisusWrtParser8readCNTRERK9MWAWEntryi.isra.0
_ZN14NisusWrtParser8readCNTRERK9MWAWEntryi.isra.0.cold
_ZN14NisusWrtParser8readINFOERK9MWAWEntry.isra.0
_ZN14NisusWrtParser8readINFOERK9MWAWEntry.isra.0.cold
_ZN14NisusWrtParser8readSGP1ERKN14NisusWrtStruct12RecursifDataE.isra.0
_ZN14NisusWrtParser8readSGP1ERKN14NisusWrtStruct12RecursifDataE.isra.0.cold
_ZN14NisusWrtParser9rsrcInputEv
_ZN14NisusWrtParserD0Ev
_ZN14NisusWrtParserD1Ev
_ZN14NisusWrtParserD2Ev
_ZN14NisusWrtStruct12RecursifData4NodeD1Ev
_ZN14NisusWrtStruct12RecursifData4NodeD2Ev.lto_priv.0
_ZN14NisusWrtStruct12RecursifData4readER14NisusWrtParserRK9MWAWEntry
_ZN14NisusWrtStruct12RecursifData4readER14NisusWrtParserRK9MWAWEntry.cold
_ZN14NisusWrtStruct12RecursifDataD1Ev
_ZN14NisusWrtStruct12RecursifDataD2Ev.lto_priv.0
_ZN14NumberingStyle11getHashNameERKN10librevenge16RVNGPropertyListE
_ZN14NumberingStyle11getHashNameERKN10librevenge16RVNGPropertyListE.cold
_ZN14NumberingStyleD0Ev
_ZN14NumberingStyleD1Ev
_ZN14NumberingStyleD2Ev
_ZN14P2_MetaHandler10ProcessXMPEv
_ZN14P2_MetaHandler10ProcessXMPEv.cold
_ZN14P2_MetaHandler10UpdateFileEb
_ZN14P2_MetaHandler10UpdateFileEb.cold
_ZN14P2_MetaHandler13CacheFileDataEv
_ZN14P2_MetaHandler13CacheFileDataEv.cold
_ZN14P2_MetaHandler13WriteTempFileEP6XMP_IO
_ZN14P2_MetaHandler14AdjustTimeCodeERNSt7__cxx1112basic_stringIcSt11char_traitsIcESaIcEEERKh
_ZN14P2_MetaHandler14AdjustTimeCodeERNSt7__cxx1112basic_stringIcSt11char_traitsIcESaIcEEERKh.cold
_ZN14P2_MetaHandler17ForceChildElementEP8XML_NodePKcih
_ZN14P2_MetaHandler17ForceChildElementEP8XML_NodePKcih.cold
_ZN14P2_MetaHandler18IsMetadataWritableEv
_ZN14P2_MetaHandler18IsMetadataWritableEv.cold
_ZN14P2_MetaHandler19GetSerializeOptionsEv
_ZN14P2_MetaHandler23FillAssociatedResourcesEPSt6vectorINSt7__cxx1112basic_stringIcSt11char_traitsIcESaIcEEESaIS6_EE
_ZN14P2_MetaHandler23FillAssociatedResourcesEPSt6vectorINSt7__cxx1112basic_stringIcSt11char_traitsIcESaIcEEESaIS6_EE.cold
_ZN14P2_MetaHandler27SetGPSPropertyFromLegacyXMLEP8XML_NodebPKcS3_
_ZN14P2_MetaHandler27SetGPSPropertyFromLegacyXMLEP8XML_NodebPKcS3_.cold
_ZN14P2_MetaHandler27SetXMPPropertyFromLegacyXMLEbP8XML_NodePKcS3_S3_b.constprop.0
_ZN14P2_MetaHandler27SetXMPPropertyFromLegacyXMLEbPNSt7__cxx1112basic_stringIcSt11char_traitsIcESaIcEEEPKcS8_b.constprop.0
_ZN14P2_MetaHandlerC1EP8XMPFiles
_ZN14P2_MetaHandlerC2EP8XMPFiles
_ZN14P2_MetaHandlerC2EP8XMPFiles.cold
_ZN14P2_MetaHandlerD0Ev
_ZN14P2_MetaHandlerD1Ev
_ZN14P2_MetaHandlerD2Ev
_ZN14P2_SpannedClip11GetDurationEv
_ZN14P2_SpannedClip12CreateDigestEPNSt7__cxx1112basic_stringIcSt11char_traitsIcESaIcEEE
_ZN14P2_SpannedClip12CreateDigestEPNSt7__cxx1112basic_stringIcSt11char_traitsIcESaIcEEE.cold
_ZN14P2_SpannedClip13DigestElementER7MD5_CTXP8XML_NodePKc
_ZN14P2_SpannedClip14GetXMPFilePathB5cxx11Ev
_ZN14P2_SpannedClip14GetXMPFilePathB5cxx11Ev.cold
_ZN14P2_SpannedClipD0Ev
_ZN14P2_SpannedClipD1Ev
_ZN14P2_SpannedClipD2Ev
_ZN14ParagraphStyleD0Ev
_ZN14ParagraphStyleD1Ev
_ZN14ParagraphStyleD2Ev
_ZN14PhotoDataUtils10ExportIPTCERK8TXMPMetaINSt7__cxx1112basic_stringIcSt11char_traitsIcESaIcEEEEP12IPTC_Manager
_ZN14PhotoDataUtils10ExportIPTCERK8TXMPMetaINSt7__cxx1112basic_stringIcSt11char_traitsIcESaIcEEEEP12IPTC_Manager.cold
_ZN14PhotoDataUtils13GetNativeInfoERK12IPTC_ManagerhibPNS0_11DataSetInfoE.isra.0
_ZN14PhotoDataUtils13GetNativeInfoERK12TIFF_ManagerhtPNS0_7TagInfoE
_ZN14PhotoDataUtils15Import3WayItemsERK12TIFF_ManagerRK12IPTC_ManagerP8TXMPMetaINSt7__cxx1112basic_stringIcSt11char_traitsIcESaIcEEEEi
_ZN14PhotoDataUtils15Import3WayItemsERK12TIFF_ManagerRK12IPTC_ManagerP8TXMPMetaINSt7__cxx1112basic_stringIcSt11char_traitsIcESaIcEEEEi.cold
_ZN14PhotoDataUtils15ImportIPTC_DateEhRK12IPTC_ManagerP8TXMPMetaINSt7__cxx1112basic_stringIcSt11char_traitsIcESaIcEEEE
_ZN14PhotoDataUtils15ImportIPTC_DateEhRK12IPTC_ManagerP8TXMPMetaINSt7__cxx1112basic_stringIcSt11char_traitsIcESaIcEEEE.cold
_ZN14PhotoDataUtils16ImportIPTC_ArrayERK12IPTC_ManagerP8TXMPMetaINSt7__cxx1112basic_stringIcSt11char_traitsIcESaIcEEEEhPKcSD_
_ZN14PhotoDataUtils16ImportIPTC_ArrayERK12IPTC_ManagerP8TXMPMetaINSt7__cxx1112basic_stringIcSt11char_traitsIcESaIcEEEEhPKcSD_.cold
_ZN14PhotoDataUtils16IsValueDifferentERKN12TIFF_Manager7TagInfoERKNSt7__cxx1112basic_stringIcSt11char_traitsIcESaIcEEEPS9_
_ZN14PhotoDataUtils18ImportIPTC_LangAltERK12IPTC_ManagerP8TXMPMetaINSt7__cxx1112basic_stringIcSt11char_traitsIcESaIcEEEEhPKcSD_
_ZN14PhotoDataUtils18ImportIPTC_LangAltERK12IPTC_ManagerP8TXMPMetaINSt7__cxx1112basic_stringIcSt11char_traitsIcESaIcEEEEhPKcSD_.cold
_ZN14PowerPoint3OLE5parseEv.isra.0
_ZN14PowerPoint3OLE5parseEv.isra.0.cold
_ZN14PowerPoint3OLEC1ERKSt10shared_ptrI15MWAWInputStreamEiRKS0_I17MWAWFontConverterEi
_ZN14PowerPoint3OLEC2ERKSt10shared_ptrI15MWAWInputStreamEiRKS0_I17MWAWFontConverterEi
_ZN14PowerPoint3OLEC2ERKSt10shared_ptrI15MWAWInputStreamEiRKS0_I17MWAWFontConverterEi.cold
_ZN14PowerPoint3OLED0Ev
_ZN14PowerPoint3OLED1Ev
_ZN14PowerPoint3OLED2Ev
_ZN14RagTime5LayoutD0Ev
_ZN14RagTime5LayoutD1Ev
_ZN14RagTime5LayoutD2Ev
_ZN14RagTime5Parser11checkHeaderEP10MWAWHeaderb
_ZN14RagTime5Parser12sendFootnoteEi
_ZN14RagTime5Parser12sendFootnoteEi.cold
_ZN14RagTime5Parser5parseEPN10librevenge17RVNGTextInterfaceE
_ZN14RagTime5Parser5parseEPN10librevenge17RVNGTextInterfaceE.cold
_ZN14RagTime5Parser7newPageEib
_ZN14RagTime5ParserC1ERKSt10shared_ptrI15MWAWInputStreamERKS0_I14MWAWRSRCParserEP10MWAWHeader
_ZN14RagTime5ParserC2ERKSt10shared_ptrI15MWAWInputStreamERKS0_I14MWAWRSRCParserEP10MWAWHeader
_ZN14RagTime5ParserC2ERKSt10shared_ptrI15MWAWInputStreamERKS0_I14MWAWRSRCParserEP10MWAWHeader.cold
_ZN14RagTime5ParserD0Ev
_ZN14RagTime5ParserD1Ev
_ZN14RagTime5ParserD2Ev
_ZN14ReconcileUtils11LocalToUTF8EPKvmPNSt7__cxx1112basic_stringIcSt11char_traitsIcESaIcEEE
_ZN14ReconcileUtils11UTF8ToLocalEPKvmPNSt7__cxx1112basic_stringIcSt11char_traitsIcESaIcEEE
_ZN14ReconcileUtils11UTF8ToLocalEPKvmPNSt7__cxx1112basic_stringIcSt11char_traitsIcESaIcEEE.cold
_ZN14ReconcileUtils12Latin1ToUTF8EPKvmPNSt7__cxx1112basic_stringIcSt11char_traitsIcESaIcEEE
_ZN14ReconcileUtils12NativeToUTF8ERKNSt7__cxx1112basic_stringIcSt11char_traitsIcESaIcEEERS5_
_ZN14ReconcileUtils12UTF8ToLatin1EPKvmPNSt7__cxx1112basic_stringIcSt11char_traitsIcESaIcEEE
_ZN14ReconcileUtils6IsUTF8EPKvm
_ZN14SheetCellStyleD0Ev
_ZN14SheetCellStyleD1Ev
_ZN14SheetCellStyleD2Ev
_ZN14TableCellStyleD0Ev
_ZN14TableCellStyleD1Ev
_ZN14TableCellStyleD2Ev
_ZN14TagOpenElement12addAttributeERKN10librevenge10RVNGStringES3_b.constprop.0
_ZN14TagOpenElementC1ERKN10librevenge10RVNGStringE
_ZN14TagOpenElementC2ERKN10librevenge10RVNGStringE.lto_priv.0
_ZN14TagOpenElementC2ERKN10librevenge10RVNGStringE.lto_priv.0.cold
_ZN14TagOpenElementD0Ev
_ZN14TagOpenElementD1Ev.lto_priv.0
_ZN14TagOpenElementD2Ev.lto_priv.0
_ZN14TeachTxtParser11checkHeaderEP10MWAWHeaderb
_ZN14TeachTxtParser11checkHeaderEP10MWAWHeaderb.cold
_ZN14TeachTxtParser11createZonesEv
_ZN14TeachTxtParser11createZonesEv.cold
_ZN14TeachTxtParser5parseEPN10librevenge17RVNGTextInterfaceE
_ZN14TeachTxtParser5parseEPN10librevenge17RVNGTextInterfaceE.cold
_ZN14TeachTxtParser8sendTextEv
_ZN14TeachTxtParser8sendTextEv.cold
_ZN14TeachTxtParserC1ERKSt10shared_ptrI15MWAWInputStreamERKS0_I14MWAWRSRCParserEP10MWAWHeader
_ZN14TeachTxtParserC2ERKSt10shared_ptrI15MWAWInputStreamERKS0_I14MWAWRSRCParserEP10MWAWHeader
_ZN14TeachTxtParserC2ERKSt10shared_ptrI15MWAWInputStreamERKS0_I14MWAWRSRCParserEP10MWAWHeader.cold
_ZN14TeachTxtParserD0Ev
_ZN14TeachTxtParserD1Ev
_ZN14TeachTxtParserD2Ev
_ZN14TradQT_Manager15ExportSimpleXMPEjRK8TXMPMetaINSt7__cxx1112basic_stringIcSt11char_traitsIcESaIcEEEEPKcSB_b.constprop.0
_ZN14TradQT_Manager15ExportSimpleXMPEjRK8TXMPMetaINSt7__cxx1112basic_stringIcSt11char_traitsIcESaIcEEEEPKcSB_b.constprop.0.cold
_ZN14WriteNowParser11checkHeaderEP10MWAWHeaderb
_ZN14WriteNowParser11checkHeaderEP10MWAWHeaderb.cold
_ZN14WriteNowParser11createZonesEv.part.0
_ZN14WriteNowParser11createZonesEv.part.0.cold
_ZN14WriteNowParser11sendPictureERK13WriteNowEntryRK8MWAWBox2IiE
_ZN14WriteNowParser11sendPictureERK13WriteNowEntryRK8MWAWBox2IiE.cold
_ZN14WriteNowParser14createDocumentEPN10librevenge17RVNGTextInterfaceE
_ZN14WriteNowParser14createDocumentEPN10librevenge17RVNGTextInterfaceE.cold
_ZN14WriteNowParser14readDocEntriesEv
_ZN14WriteNowParser14readDocEntriesEv.cold
_ZN14WriteNowParser15readGenericUnknERK13WriteNowEntry.isra.0
_ZN14WriteNowParser15readGenericUnknERK13WriteNowEntry.isra.0.cold
_ZN14WriteNowParser16readDocEntriesV2Ev
_ZN14WriteNowParser16readDocEntriesV2Ev.cold
_ZN14WriteNowParser20checkIfPositionValidEl
_ZN14WriteNowParser20checkIfPositionValidEl.cold
_ZN14WriteNowParser5parseEPN10librevenge17RVNGTextInterfaceE
_ZN14WriteNowParser5parseEPN10librevenge17RVNGTextInterfaceE.cold
_ZN14WriteNowParser9readEntryEv
_ZN14WriteNowParser9readEntryEv.cold
_ZN14WriteNowParserD0Ev
_ZN14WriteNowParserD1Ev
_ZN14WriteNowParserD2Ev
_ZN14XMPFileHandler10ProcessXMPEv
_ZN14XMPFileHandler10ProcessXMPEv.cold
_ZN14XMPFileHandler12NotifyClientEP20GenericErrorCallbackhR9XMP_Error
_ZN14XMPFileHandler12NotifyClientEP20GenericErrorCallbackhR9XMP_Error.cold
_ZN14XMPFileHandler12NotifyClientEP20GenericErrorCallbackhR9XMP_Error.part.0
_ZN14XMPFileHandler14GetFileModDateEP12XMP_DateTime
_ZN14XMPFileHandler14GetFileModDateEP12XMP_DateTime.cold
_ZN14XMPFileHandler16SetErrorCallbackE16ErrorCallbackBox
_ZN14XMPFileHandler17FillMetadataFilesEPSt6vectorINSt7__cxx1112basic_stringIcSt11char_traitsIcESaIcEEESaIS6_EE
_ZN14XMPFileHandler17FillMetadataFilesEPSt6vectorINSt7__cxx1112basic_stringIcSt11char_traitsIcESaIcEEESaIS6_EE.cold
_ZN14XMPFileHandler18IsMetadataWritableEv
_ZN14XMPFileHandler18IsMetadataWritableEv.cold
_ZN14XMPFileHandler19GetSerializeOptionsEv
_ZN14XMPFileHandler19SetProgressCallbackEPN19XMP_ProgressTracker12CallbackInfoE
_ZN14XMPFileHandler23FillAssociatedResourcesEPSt6vectorINSt7__cxx1112basic_stringIcSt11char_traitsIcESaIcEEESaIS6_EE
_ZN14XMPFileHandler23FillAssociatedResourcesEPSt6vectorINSt7__cxx1112basic_stringIcSt11char_traitsIcESaIcEEESaIS6_EE.cold
_ZN14XMPFileHandlerD2Ev.lto_priv.0
_ZN14client_options15extended_optionD1Ev
_ZN14client_options15extended_optionD2Ev
_ZN14client_options3addEPKcciS1_
_ZN14client_options3addEPKcciS1_.cold
_ZN14client_options3addEPKcciS1_.isra.0
_ZN14client_options3addEPKcciS1_.isra.0.cold
_ZN14client_options3defEPKcciS1_
_ZN14client_options3defEPKcciS1_.cold
_ZN14client_options3setERKNSt7__cxx1112basic_stringIcSt11char_traitsIcESaIcEEEbPc.constprop.0
_ZN14client_options3setERKNSt7__cxx1112basic_stringIcSt11char_traitsIcESaIcEEEbPc.constprop.0.cold
_ZN14client_options4findERKSt8functionIFbRKNS_15extended_optionEEE.constprop.0
_ZN14client_options4findERKSt8functionIFbRKNS_15extended_optionEEE.constprop.0.cold
_ZN15ASF_MetaHandler10ProcessXMPEv
_ZN15ASF_MetaHandler10ProcessXMPEv.cold
_ZN15ASF_MetaHandler10UpdateFileEb
_ZN15ASF_MetaHandler10UpdateFileEb.cold
_ZN15ASF_MetaHandler13CacheFileDataEv
_ZN15ASF_MetaHandler13CacheFileDataEv.cold
_ZN15ASF_MetaHandler13SafeWriteFileEv
_ZN15ASF_MetaHandler13SafeWriteFileEv.cold
_ZN15ASF_MetaHandler13WriteTempFileEP6XMP_IO
_ZN15ASF_MetaHandler13WriteTempFileEP6XMP_IO.cold
_ZN15ASF_MetaHandlerD0Ev
_ZN15ASF_MetaHandlerD1Ev
_ZN15ASF_MetaHandlerD2Ev
_ZN15ApplePictParser10drawCircleENS_13DrawingMethodE
_ZN15ApplePictParser10drawCircleENS_13DrawingMethodE.cold
_ZN15ApplePictParser10drawPixmapERKN23ApplePictParserInternal6PixmapE
_ZN15ApplePictParser10drawPixmapERKN23ApplePictParserInternal6PixmapE.cold
_ZN15ApplePictParser10readPixmapERN23ApplePictParserInternal6PixmapEbbbb
_ZN15ApplePictParser10readPixmapERN23ApplePictParserInternal6PixmapEbbbb.cold
_ZN15ApplePictParser10readRegionERN23ApplePictParserInternal6RegionE
_ZN15ApplePictParser10readRegionERN23ApplePictParserInternal6RegionE.cold
_ZN15ApplePictParser11checkHeaderEP10MWAWHeaderb
_ZN15ApplePictParser11checkHeaderEP10MWAWHeaderb.cold
_ZN15ApplePictParser11drawPolygonENS_13DrawingMethodE
_ZN15ApplePictParser11drawPolygonENS_13DrawingMethodE.cold
_ZN15ApplePictParser11getModeNameB5cxx11Ei
_ZN15ApplePictParser11getModeNameB5cxx11Ei.cold
_ZN15ApplePictParser12readRGBColorER9MWAWColor
_ZN15ApplePictParser12readRGBColorER9MWAWColor.cold
_ZN15ApplePictParser13drawRectangleENS_13DrawingMethodE
_ZN15ApplePictParser13drawRectangleENS_13DrawingMethodE.cold
_ZN15ApplePictParser13readBWPatternERN16MWAWGraphicStyle7PatternE
_ZN15ApplePictParser13readBWPatternERN16MWAWGraphicStyle7PatternE.cold
_ZN15ApplePictParser14getDrawingNameB5cxx11ENS_13DrawingMethodE
_ZN15ApplePictParser15readAndDrawTextERNSt7__cxx1112basic_stringIcSt11char_traitsIcESaIcEEE
_ZN15ApplePictParser15readAndDrawTextERNSt7__cxx1112basic_stringIcSt11char_traitsIcESaIcEEE.cold
_ZN15ApplePictParser16readColorPatternERN16MWAWGraphicStyle7PatternE
_ZN15ApplePictParser16readColorPatternERN16MWAWGraphicStyle7PatternE.cold
_ZN15ApplePictParser18drawRoundRectangleENS_13DrawingMethodE
_ZN15ApplePictParser18drawRoundRectangleENS_13DrawingMethodE.cold
_ZN15ApplePictParser5parseEPN10librevenge20RVNGDrawingInterfaceE
_ZN15ApplePictParser5parseEPN10librevenge20RVNGDrawingInterfaceE.cold
_ZN15ApplePictParser7drawPieENS_13DrawingMethodEii
_ZN15ApplePictParser7drawPieENS_13DrawingMethodEii.cold
_ZN15ApplePictParser8drawLineERK8MWAWVec2IiE
_ZN15ApplePictParser8drawLineERK8MWAWVec2IiE.cold
_ZN15ApplePictParser8drawTextERK9MWAWEntry
_ZN15ApplePictParser8drawTextERK9MWAWEntry.cold
_ZN15ApplePictParser8readZoneEv
_ZN15ApplePictParser8readZoneEv.cold
_ZN15ApplePictParserC1ERKSt10shared_ptrI15MWAWInputStreamERKS0_I14MWAWRSRCParserEP10MWAWHeader
_ZN15ApplePictParserC2ERKSt10shared_ptrI15MWAWInputStreamERKS0_I14MWAWRSRCParserEP10MWAWHeader
_ZN15ApplePictParserC2ERKSt10shared_ptrI15MWAWInputStreamERKS0_I14MWAWRSRCParserEP10MWAWHeader.cold
_ZN15ApplePictParserD0Ev
_ZN15ApplePictParserD1Ev
_ZN15ApplePictParserD2Ev
_ZN15BeagleWksParser11checkHeaderEP10MWAWHeaderb
_ZN15BeagleWksParser11checkHeaderEP10MWAWHeaderb.cold
_ZN15BeagleWksParser11createZonesEv
_ZN15BeagleWksParser11createZonesEv.cold
_ZN15BeagleWksParser13readPrintInfoEv
_ZN15BeagleWksParser13readPrintInfoEv.cold
_ZN15BeagleWksParser14createDocumentEPN10librevenge17RVNGTextInterfaceE
_ZN15BeagleWksParser14createDocumentEPN10librevenge17RVNGTextInterfaceE.cold
_ZN15BeagleWksParser4initEv
_ZN15BeagleWksParser4initEv.cold
_ZN15BeagleWksParser5parseEPN10librevenge17RVNGTextInterfaceE
_ZN15BeagleWksParser5parseEPN10librevenge17RVNGTextInterfaceE.cold
_ZN15BeagleWksParser9sendFrameERKN22BeagleWksStructManager5FrameE.isra.0
_ZN15BeagleWksParser9sendFrameERKN22BeagleWksStructManager5FrameE.isra.0.cold
_ZN15BeagleWksParserD0Ev
_ZN15BeagleWksParserD1Ev
_ZN15BeagleWksParserD2Ev
_ZN15Canvas5BMParser11checkHeaderEP10MWAWHeaderb
_ZN15Canvas5BMParser11checkHeaderEP10MWAWHeaderb.cold
_ZN15Canvas5BMParser14createDocumentEPN10librevenge20RVNGDrawingInterfaceE
_ZN15Canvas5BMParser14createDocumentEPN10librevenge20RVNGDrawingInterfaceE.cold
_ZN15Canvas5BMParser5parseEPN10librevenge20RVNGDrawingInterfaceE
_ZN15Canvas5BMParser5parseEPN10librevenge20RVNGDrawingInterfaceE.cold
_ZN15Canvas5BMParserC1ERKSt10shared_ptrI15MWAWInputStreamERKS0_I14MWAWRSRCParserEP10MWAWHeader
_ZN15Canvas5BMParserC2ERKSt10shared_ptrI15MWAWInputStreamERKS0_I14MWAWRSRCParserEP10MWAWHeader
_ZN15Canvas5BMParserC2ERKSt10shared_ptrI15MWAWInputStreamERKS0_I14MWAWRSRCParserEP10MWAWHeader.cold
_ZN15Canvas5BMParserD0Ev
_ZN15Canvas5BMParserD1Ev
_ZN15Canvas5BMParserD2Ev
_ZN15CharDataElementD0Ev
_ZN15CharDataElementD1Ev
_ZN15CharDataElementD2Ev
_ZN15ClarisDrawGraph10sendBitmapEiRK12MWAWPosition.isra.0
_ZN15ClarisDrawGraph10sendBitmapEiRK12MWAWPosition.isra.0.cold
_ZN15ClarisDrawGraph11updateGroupEb
_ZN15ClarisDrawGraph11updateGroupEb.cold
_ZN15ClarisDrawGraph12readGroupDefERK9MWAWEntry
_ZN15ClarisDrawGraph12readGroupDefERK9MWAWEntry.cold
_ZN15ClarisDrawGraph14readBitmapDataERN23ClarisDrawGraphInternal6BitmapE
_ZN15ClarisDrawGraph15readGroupHeaderERN23ClarisDrawGraphInternal5GroupE
_ZN15ClarisDrawGraph15readGroupHeaderERN23ClarisDrawGraphInternal5GroupE.cold
_ZN15ClarisDrawGraph15readPolygonDataESt10shared_ptrIN23ClarisDrawGraphInternal4ZoneEE
_ZN15ClarisDrawGraph15readPolygonDataESt10shared_ptrIN23ClarisDrawGraphInternal4ZoneEE.cold
_ZN15ClarisDrawGraph16readGroupUnknownERN23ClarisDrawGraphInternal5GroupEii
_ZN15ClarisDrawGraph16readGroupUnknownERN23ClarisDrawGraphInternal5GroupEii.cold
_ZN15ClarisDrawGraph18readBitmapColorMapERSt6vectorI9MWAWColorSaIS1_EE
_ZN15ClarisDrawGraph18sendMainGroupChildEiRK12MWAWPosition
_ZN15ClarisDrawGraph18sendMainGroupChildEiRK12MWAWPosition.cold
_ZN15ClarisDrawGraph19readTransformationsEv
_ZN15ClarisDrawGraph19readTransformationsEv.cold
_ZN15ClarisDrawGraph9sendGroupEiRK12MWAWPosition
_ZN15ClarisDrawGraph9sendGroupEiRK12MWAWPosition.cold
_ZN15ClarisDrawGraph9sendShapeERN23ClarisDrawGraphInternal9ZoneShapeE12MWAWPosition.isra.0
_ZN15ClarisDrawGraph9sendShapeERN23ClarisDrawGraphInternal9ZoneShapeE12MWAWPosition.isra.0.cold
_ZN15ClarisDrawGraphD0Ev
_ZN15ClarisDrawGraphD1Ev
_ZN15ClarisDrawGraphD2Ev
_ZN15ClarisWksParser11checkHeaderEP10MWAWHeaderb
_ZN15ClarisWksParser12sendFootnoteEi
_ZN15ClarisWksParser12sendFootnoteEi.cold
_ZN15ClarisWksParser5parseEPN10librevenge17RVNGTextInterfaceE
_ZN15ClarisWksParser5parseEPN10librevenge17RVNGTextInterfaceE.cold
_ZN15ClarisWksParser7newPageEib
_ZN15ClarisWksParserC1ERKSt10shared_ptrI15MWAWInputStreamERKS0_I14MWAWRSRCParserEP10MWAWHeader
_ZN15ClarisWksParserC2ERKSt10shared_ptrI15MWAWInputStreamERKS0_I14MWAWRSRCParserEP10MWAWHeader
_ZN15ClarisWksParserC2ERKSt10shared_ptrI15MWAWInputStreamERKS0_I14MWAWRSRCParserEP10MWAWHeader.cold
_ZN15ClarisWksParserD0Ev
_ZN15ClarisWksParserD1Ev
_ZN15ClarisWksParserD2Ev
_ZN15ClarisWksStruct11readIntZoneER15MWAWParserStatePKcbiRSt6vectorIiSaIiEE.constprop.0
_ZN15ClarisWksStruct11readIntZoneER15MWAWParserStatePKcbiRSt6vectorIiSaIiEE.constprop.0.cold
_ZN15ClarisWksStruct14readStructZoneER15MWAWParserStatePKcb.constprop.0
_ZN15ClarisWksStruct14readStructZoneER15MWAWParserStatePKcb.constprop.0.cold
_ZN15ClarisWksStruct4DSET11removeChildEi
_ZN15ClarisWksStruct4DSET11removeChildEib
_ZN15ClarisWksStruct4DSETC1ERKS0_
_ZN15ClarisWksStruct4DSETC2ERKS0_.lto_priv.0
_ZN15ClarisWksStruct4DSETC2ERKS0_.lto_priv.0.cold
_ZN15ClarisWksStruct4DSETD0Ev
_ZN15ClarisWksStruct4DSETD1Ev.lto_priv.0
_ZN15ClarisWksStruct4DSETD2Ev.lto_priv.0
_ZN15ClarisWksStruct6Struct10readHeaderESt10shared_ptrI15MWAWInputStreamEb
_ZN15DrawTableParser11checkHeaderEP10MWAWHeaderb
_ZN15DrawTableParser11checkHeaderEP10MWAWHeaderb.cold
_ZN15DrawTableParser13readPrintInfoEv
_ZN15DrawTableParser13readPrintInfoEv.cold
_ZN15DrawTableParser5parseEPN10librevenge20RVNGDrawingInterfaceE
_ZN15DrawTableParser5parseEPN10librevenge20RVNGDrawingInterfaceE.cold
_ZN15DrawTableParser9sendShapeEv
_ZN15DrawTableParser9sendShapeEv.cold
_ZN15DrawTableParserC1ERKSt10shared_ptrI15MWAWInputStreamERKS0_I14MWAWRSRCParserEP10MWAWHeader
_ZN15DrawTableParserC2ERKSt10shared_ptrI15MWAWInputStreamERKS0_I14MWAWRSRCParserEP10MWAWHeader
_ZN15DrawTableParserC2ERKSt10shared_ptrI15MWAWInputStreamERKS0_I14MWAWRSRCParserEP10MWAWHeader.cold
_ZN15DrawTableParserD0Ev
_ZN15DrawTableParserD1Ev
_ZN15DrawTableParserD2Ev
_ZN15FLV_MetaHandler10ProcessXMPEv
_ZN15FLV_MetaHandler10ProcessXMPEv.cold
_ZN15FLV_MetaHandler10UpdateFileEb
_ZN15FLV_MetaHandler10UpdateFileEb.cold
_ZN15FLV_MetaHandler13CacheFileDataEv
_ZN15FLV_MetaHandler13CacheFileDataEv.cold
_ZN15FLV_MetaHandler13WriteTempFileEP6XMP_IO
_ZN15FLV_MetaHandler13WriteTempFileEP6XMP_IO.part.0
_ZN15FLV_MetaHandler16MakeLegacyDigestEPNSt7__cxx1112basic_stringIcSt11char_traitsIcESaIcEEE.constprop.0
_ZN15FLV_MetaHandlerD0Ev
_ZN15FLV_MetaHandlerD1Ev
_ZN15FLV_MetaHandlerD2Ev
_ZN15GIF_MetaHandler10ProcessXMPEv
_ZN15GIF_MetaHandler10UpdateFileEb
_ZN15GIF_MetaHandler10UpdateFileEb.cold
_ZN15GIF_MetaHandler13CacheFileDataEv
_ZN15GIF_MetaHandler13CacheFileDataEv.cold
_ZN15GIF_MetaHandler13WriteTempFileEP6XMP_IO
_ZN15GIF_MetaHandler13WriteTempFileEP6XMP_IO.cold
_ZN15GIF_MetaHandler8SeekFileEP6XMP_IOl8SeekMode
_ZN15GIF_MetaHandler8SeekFileEP6XMP_IOl8SeekMode.cold
_ZN15GIF_MetaHandlerD0Ev
_ZN15GIF_MetaHandlerD1Ev
_ZN15GIF_MetaHandlerD2Ev
_ZN15HanMacWrdJGraph10readFramesERK9MWAWEntry
_ZN15HanMacWrdJGraph10readFramesERK9MWAWEntry.cold
_ZN15HanMacWrdJGraph13readGraphDataERK9MWAWEntryi
_ZN15HanMacWrdJGraph13readGraphDataERK9MWAWEntryi.cold
_ZN15HanMacWrdJGraph13readGroupDataERK9MWAWEntryi
_ZN15HanMacWrdJGraph13readGroupDataERK9MWAWEntryi.cold
_ZN15HanMacWrdJGraph13readTableDataERKN23HanMacWrdJGraphInternal5FrameEl
_ZN15HanMacWrdJGraph13readTableDataERKN23HanMacWrdJGraphInternal5FrameEl.cold
_ZN15HanMacWrdJGraph14sendGroupChildERKN23HanMacWrdJGraphInternal5GroupERK12MWAWPosition
_ZN15HanMacWrdJGraph14sendGroupChildERKN23HanMacWrdJGraphInternal5GroupERK12MWAWPosition.cold
_ZN15HanMacWrdJGraph15readCommentDataERKN23HanMacWrdJGraphInternal5FrameEl
_ZN15HanMacWrdJGraph15readCommentDataERKN23HanMacWrdJGraphInternal5FrameEl.cold
_ZN15HanMacWrdJGraph15readPictureDataERKN23HanMacWrdJGraphInternal5FrameEl
_ZN15HanMacWrdJGraph15readPictureDataERKN23HanMacWrdJGraphInternal5FrameEl.cold
_ZN15HanMacWrdJGraph16canCreateGraphicERKN23HanMacWrdJGraphInternal5GroupE
_ZN15HanMacWrdJGraph16sendEmptyPictureERK12MWAWPosition.isra.0
_ZN15HanMacWrdJGraph16sendEmptyPictureERK12MWAWPosition.isra.0.cold
_ZN15HanMacWrdJGraph17prepareStructuresEv
_ZN15HanMacWrdJGraph17prepareStructuresEv.cold
_ZN15HanMacWrdJGraph20checkGroupStructuresElRSt3setIlSt4lessIlESaIlEEb
_ZN15HanMacWrdJGraph8sendTextEllRKSt10shared_ptrI12MWAWListenerE.isra.0
_ZN15HanMacWrdJGraph8sendTextEllRKSt10shared_ptrI12MWAWListenerE.isra.0.cold
_ZN15HanMacWrdJGraph9readTableERK9MWAWEntryi
_ZN15HanMacWrdJGraph9readTableERK9MWAWEntryi.cold
_ZN15HanMacWrdJGraph9sendFrameERKN23HanMacWrdJGraphInternal5FrameERK12MWAWPosition.isra.0
_ZN15HanMacWrdJGraph9sendFrameERKN23HanMacWrdJGraphInternal5FrameERK12MWAWPosition.isra.0.cold
_ZN15HanMacWrdJGraph9sendFrameElRK12MWAWPosition.isra.0
_ZN15HanMacWrdJGraph9sendFrameElRK12MWAWPosition.isra.0.cold
_ZN15HanMacWrdJGraph9sendGroupERKN23HanMacWrdJGraphInternal5GroupERKSt10shared_ptrI19MWAWGraphicListenerE
_ZN15HanMacWrdJGraph9sendGroupERKN23HanMacWrdJGraphInternal5GroupERKSt10shared_ptrI19MWAWGraphicListenerE.cold
_ZN15HanMacWrdJGraphD0Ev
_ZN15HanMacWrdJGraphD1Ev
_ZN15HanMacWrdJGraphD2Ev
_ZN15HanMacWrdKGraph10readFramesESt10shared_ptrI14HanMacWrdKZoneE
_ZN15HanMacWrdKGraph10readFramesESt10shared_ptrI14HanMacWrdKZoneE.cold
_ZN15HanMacWrdKGraph11readPictureESt10shared_ptrI14HanMacWrdKZoneE
_ZN15HanMacWrdKGraph11readPictureESt10shared_ptrI14HanMacWrdKZoneE.cold
_ZN15HanMacWrdKGraph11sendPictureERKN23HanMacWrdKGraphInternal7PictureERK12MWAWPosition.isra.0
_ZN15HanMacWrdKGraph11sendPictureERKN23HanMacWrdKGraphInternal7PictureERK12MWAWPosition.isra.0.cold
_ZN15HanMacWrdKGraph11sendPictureElRK12MWAWPosition.isra.0
_ZN15HanMacWrdKGraph14sendGroupChildERKN23HanMacWrdKGraphInternal5GroupERK12MWAWPosition
_ZN15HanMacWrdKGraph14sendGroupChildERKN23HanMacWrdKGraphInternal5GroupERK12MWAWPosition.cold
_ZN15HanMacWrdKGraph16canCreateGraphicERKN23HanMacWrdKGraphInternal5GroupE
_ZN15HanMacWrdKGraph16sendEmptyPictureERK12MWAWPosition.isra.0
_ZN15HanMacWrdKGraph16sendEmptyPictureERK12MWAWPosition.isra.0.cold
_ZN15HanMacWrdKGraph17prepareStructuresEv
_ZN15HanMacWrdKGraph17prepareStructuresEv.cold
_ZN15HanMacWrdKGraph20checkGroupStructuresEllRSt8multimapIllSt4lessIlESaISt4pairIKllEEEb
_ZN15HanMacWrdKGraph8sendTextEllRKSt10shared_ptrI12MWAWListenerE.isra.0
_ZN15HanMacWrdKGraph8sendTextEllRKSt10shared_ptrI12MWAWListenerE.isra.0.cold
_ZN15HanMacWrdKGraph9readTableESt10shared_ptrI14HanMacWrdKZoneERKN23HanMacWrdKGraphInternal5FrameE
_ZN15HanMacWrdKGraph9readTableESt10shared_ptrI14HanMacWrdKZoneERKN23HanMacWrdKGraphInternal5FrameE.cold
_ZN15HanMacWrdKGraph9sendFrameERKN23HanMacWrdKGraphInternal5FrameERK12MWAWPosition.isra.0
_ZN15HanMacWrdKGraph9sendFrameERKN23HanMacWrdKGraphInternal5FrameERK12MWAWPosition.isra.0.cold
_ZN15HanMacWrdKGraph9sendFrameElRK12MWAWPosition.isra.0
_ZN15HanMacWrdKGraph9sendFrameElRK12MWAWPosition.isra.0.cold
_ZN15HanMacWrdKGraph9sendGroupERKN23HanMacWrdKGraphInternal5GroupERSt10shared_ptrI19MWAWGraphicListenerE
_ZN15HanMacWrdKGraph9sendGroupERKN23HanMacWrdKGraphInternal5GroupERSt10shared_ptrI19MWAWGraphicListenerE.cold
_ZN15HanMacWrdKGraphD0Ev
_ZN15HanMacWrdKGraphD1Ev
_ZN15HanMacWrdKGraphD2Ev
_ZN15HunspellChecker11suggestWordEPKcmPm
_ZN15HunspellChecker11suggestWordEPKcmPm.cold
_ZN15HunspellChecker12getWordcharsEv
_ZN15HunspellChecker17requestDictionaryEPKc
_ZN15HunspellChecker17requestDictionaryEPKc.cold
_ZN15HunspellChecker9checkWordEPKcm
_ZN15HunspellChecker9checkWordEPKcm.cold
_ZN15HunspellCheckerC1Ev
_ZN15HunspellCheckerC2Ev
_ZN15HunspellCheckerD1Ev
_ZN15HunspellCheckerD2Ev
_ZN15InternalHandler10charactersERKN10librevenge10RVNGStringE
_ZN15InternalHandler10charactersERKN10librevenge10RVNGStringE.cold
_ZN15InternalHandler10endElementEPKc
_ZN15InternalHandler10endElementEPKc.cold
_ZN15InternalHandler11endDocumentEv
_ZN15InternalHandler12startElementEPKcRKN10librevenge16RVNGPropertyListE
_ZN15InternalHandler12startElementEPKcRKN10librevenge16RVNGPropertyListE.cold
_ZN15InternalHandler13startDocumentEv
_ZN15InternalHandlerD0Ev
_ZN15InternalHandlerD1Ev.lto_priv.0
_ZN15InternalHandlerD2Ev.lto_priv.0
_ZN15LightWayTxtText11createZonesEv
_ZN15LightWayTxtText11createZonesEv.cold
_ZN15LightWayTxtText12sendMainTextEv
_ZN15LightWayTxtText12sendMainTextEv.cold
_ZN15LightWayTxtText16sendHeaderFooterEb.isra.0
_ZN15LightWayTxtText16sendHeaderFooterEb.isra.0.cold
_ZN15LightWayTxtTextD0Ev
_ZN15LightWayTxtTextD1Ev
_ZN15LightWayTxtTextD2Ev
_ZN15MP3_MetaHandler10ProcessXMPEv
_ZN15MP3_MetaHandler10ProcessXMPEv.cold
_ZN15MP3_MetaHandler10UpdateFileEb
_ZN15MP3_MetaHandler10UpdateFileEb.cold
_ZN15MP3_MetaHandler13CacheFileDataEv
_ZN15MP3_MetaHandler13CacheFileDataEv.cold
_ZN15MP3_MetaHandler13WriteTempFileEP6XMP_IO
_ZN15MP3_MetaHandlerD0Ev
_ZN15MP3_MetaHandlerD1Ev
_ZN15MP3_MetaHandlerD2Ev
_ZN15MWAWCellContent11date2DoubleEiiiRd
_ZN15MWAWCellContent11double2DateEdRiS0_S0_
_ZN15MWAWCellContent18FormulaInstructionC1ERKS0_
_ZN15MWAWCellContent18FormulaInstructionC1Ev
_ZN15MWAWCellContent18FormulaInstructionC2ERKS0_.lto_priv.0
_ZN15MWAWCellContent18FormulaInstructionC2ERKS0_.lto_priv.0.cold
_ZN15MWAWCellContent18FormulaInstructionC2Ev.lto_priv.0
_ZN15MWAWCellContent18FormulaInstructionC2Ev.lto_priv.0.cold
_ZN15MWAWCellContent18FormulaInstructionD1Ev
_ZN15MWAWCellContent18FormulaInstructionD2Ev.lto_priv.0
_ZN15MWAWCellContent18FormulaInstructionaSERKS0_.isra.0
_ZN15MWAWCellContentC1ERKS_
_ZN15MWAWCellContentC2ERKS_.lto_priv.0
_ZN15MWAWCellContentC2ERKS_.lto_priv.0.cold
_ZN15MWAWFontManager5getIdERK8MWAWFont
_ZN15MWAWFontManager5getIdERK8MWAWFont.cold
_ZN15MWAWInputStream11readDouble8ERdRb
_ZN15MWAWInputStream12isStructuredEv
_ZN15MWAWInputStream12readDouble10ERdRb
_ZN15MWAWInputStream13readDataBlockElRN10librevenge14RVNGBinaryDataE
_ZN15MWAWInputStream16updateStreamSizeEv.part.0
_ZN15MWAWInputStream18getSubStreamByNameERKNSt7__cxx1112basic_stringIcSt11char_traitsIcESaIcEEE
_ZN15MWAWInputStream18getSubStreamByNameERKNSt7__cxx1112basic_stringIcSt11char_traitsIcESaIcEEE.cold
_ZN15MWAWInputStream19readDoubleReverted8ERdRb
_ZN15MWAWInputStream3getERKN10librevenge14RVNGBinaryDataEb.constprop.0
_ZN15MWAWInputStream3getERKN10librevenge14RVNGBinaryDataEb.constprop.0.cold
_ZN15MWAWInputStream4readEmRm
_ZN15MWAWInputStream4readEmRm.cold
_ZN15MWAWInputStream4seekElN10librevenge14RVNG_SEEK_TYPEE
_ZN15MWAWInputStream4seekElN10librevenge14RVNG_SEEK_TYPEE.cold
_ZN15MWAWInputStream4tellEv
_ZN15MWAWInputStream5isEndEv
_ZN15MWAWInputStream6readU8EPN10librevenge15RVNGInputStreamE
_ZN15MWAWInputStream8readLongEi
_ZN15MWAWInputStream9readULongEPN10librevenge15RVNGInputStreamEimb
_ZN15MWAWInputStream9readULongEPN10librevenge15RVNGInputStreamEimb.part.0
_ZN15MWAWInputStreamC1EPN10librevenge15RVNGInputStreamEbb
_ZN15MWAWInputStreamC1ESt10shared_ptrIN10librevenge15RVNGInputStreamEEb
_ZN15MWAWInputStreamC2EPN10librevenge15RVNGInputStreamEbb
_ZN15MWAWInputStreamC2EPN10librevenge15RVNGInputStreamEbb.cold
_ZN15MWAWInputStreamC2ESt10shared_ptrIN10librevenge15RVNGInputStreamEEb
_ZN15MWAWInputStreamC2ESt10shared_ptrIN10librevenge15RVNGInputStreamEEb.cold
_ZN15MWAWInputStreamD1Ev
_ZN15MWAWInputStreamD2Ev
_ZN15MWAWListManager10getNewListESt10shared_ptrI8MWAWListEiRK13MWAWListLevel
_ZN15MWAWListManager10getNewListESt10shared_ptrI8MWAWListEiRK13MWAWListLevel.cold
_ZN15MWAWListManagerD1Ev
_ZN15MWAWListManagerD2Ev
_ZN15MWAWParserState15getMainListenerEv
_ZN15MWAWParserStateD1Ev
_ZN15MWAWParserStateD2Ev
_ZN15MWAWParserStateD2Ev.cold
_ZN15MWAWSubDocumentC2EP10MWAWParserRKSt10shared_ptrI15MWAWInputStreamERK9MWAWEntry
_ZN15MWAWSubDocumentC2EP10MWAWParserRKSt10shared_ptrI15MWAWInputStreamERK9MWAWEntry.cold
_ZN15MWAWSubDocumentD2Ev
_ZN15MacDraft5Parser10readLayoutERN23MacDraft5ParserInternal6LayoutE
_ZN15MacDraft5Parser10readLayoutERN23MacDraft5ParserInternal6LayoutE.cold
_ZN15MacDraft5Parser10readObjectERN23MacDraft5ParserInternal6LayoutE
_ZN15MacDraft5Parser10readObjectERN23MacDraft5ParserInternal6LayoutE.cold
_ZN15MacDraft5Parser11checkHeaderEP10MWAWHeaderb
_ZN15MacDraft5Parser11checkHeaderEP10MWAWHeaderb.cold
_ZN15MacDraft5Parser12readModifierERN23MacDraft5ParserInternal5ShapeE
_ZN15MacDraft5Parser12readModifierERN23MacDraft5ParserInternal5ShapeE.cold
_ZN15MacDraft5Parser12readPICTListERK9MWAWEntryb
_ZN15MacDraft5Parser12readPICTListERK9MWAWEntryb.cold
_ZN15MacDraft5Parser13readDocHeaderEv
_ZN15MacDraft5Parser13readDocHeaderEv.cold
_ZN15MacDraft5Parser21readLayoutDefinitionsERK9MWAWEntryb
_ZN15MacDraft5Parser21readLayoutDefinitionsERK9MWAWEntryb.cold
_ZN15MacDraft5Parser4initEv
_ZN15MacDraft5Parser4initEv.cold
_ZN15MacDraft5Parser4sendERKN23MacDraft5ParserInternal5ShapeERKNS0_6LayoutE.isra.0
_ZN15MacDraft5Parser4sendERKN23MacDraft5ParserInternal5ShapeERKNS0_6LayoutE.isra.0.cold
_ZN15MacDraft5Parser5parseEPN10librevenge20RVNGDrawingInterfaceE
_ZN15MacDraft5Parser5parseEPN10librevenge20RVNGDrawingInterfaceE.cold
_ZN15MacDraft5Parser8readTextERN23MacDraft5ParserInternal5ShapeE
_ZN15MacDraft5Parser8readTextERN23MacDraft5ParserInternal5ShapeE.cold
_ZN15MacDraft5Parser8sendTextEil.isra.0
_ZN15MacDraft5Parser8sendTextEil.isra.0.cold
_ZN15MacDraft5Parser9readLinksERK9MWAWEntryb
_ZN15MacDraft5Parser9readLinksERK9MWAWEntryb.cold
_ZN15MacDraft5Parser9readViewsERK9MWAWEntryb
_ZN15MacDraft5Parser9readViewsERK9MWAWEntryb.cold
_ZN15MacDraft5ParserD0Ev
_ZN15MacDraft5ParserD1Ev
_ZN15MacDraft5ParserD2Ev
_ZN15MacWrtProParser11checkHeaderEP10MWAWHeaderb
_ZN15MacWrtProParser11checkHeaderEP10MWAWHeaderb.cold
_ZN15MacWrtProParser12sendTextZoneEib.isra.0
_ZN15MacWrtProParser12sendTextZoneEib.isra.0.cold
_ZN15MacWrtProParser13parseDataZoneEii.isra.0
_ZN15MacWrtProParser13parseDataZoneEii.isra.0.cold
_ZN15MacWrtProParser13readPrintInfoEv
_ZN15MacWrtProParser13readPrintInfoEv.cold
_ZN15MacWrtProParser14createDocumentEPN10librevenge17RVNGTextInterfaceE
_ZN15MacWrtProParser14createDocumentEPN10librevenge17RVNGTextInterfaceE.cold
_ZN15MacWrtProParser14getSubDocumentEi
_ZN15MacWrtProParser14getSubDocumentEi.cold
_ZN15MacWrtProParser15sendPictureZoneEiRK12MWAWPositionRK16MWAWGraphicStyle.isra.0
_ZN15MacWrtProParser15sendPictureZoneEiRK12MWAWPositionRK16MWAWGraphicStyle.isra.0.cold
_ZN15MacWrtProParser15sendTextBoxZoneEiRK12MWAWPositionRK16MWAWGraphicStyle.isra.0
_ZN15MacWrtProParser15sendTextBoxZoneEiRK12MWAWPositionRK16MWAWGraphicStyle.isra.0.cold
_ZN15MacWrtProParser17getStreamForBlockEi
_ZN15MacWrtProParser17getStreamForBlockEi.cold
_ZN15MacWrtProParser24convertDateToDebugStringB5cxx11Ej
_ZN15MacWrtProParser24convertDateToDebugStringB5cxx11Ej.cold
_ZN15MacWrtProParser4initEv
_ZN15MacWrtProParser4initEv.cold
_ZN15MacWrtProParser5parseEPN10librevenge17RVNGTextInterfaceE
_ZN15MacWrtProParser5parseEPN10librevenge17RVNGTextInterfaceE.cold
_ZN15MacWrtProParser8sendTextESt10shared_ptrIN23MacWrtProParserInternal8TextZoneEEb.isra.0
_ZN15MacWrtProParser8sendTextESt10shared_ptrIN23MacWrtProParserInternal8TextZoneEEb.isra.0.cold
_ZN15MacWrtProParserD0Ev
_ZN15MacWrtProParserD1Ev
_ZN15MacWrtProParserD2Ev
_ZN15MarinerWrtEntryD0Ev
_ZN15MarinerWrtEntryD1Ev
_ZN15MarinerWrtEntryD2Ev
_ZN15MarinerWrtGraph14readPostscriptERK15MarinerWrtEntryi
_ZN15MarinerWrtGraph14readPostscriptERK15MarinerWrtEntryi.cold
_ZN15MarinerWrtGraph15readTokenBlock0ERK16MarinerWrtStructRN23MarinerWrtGraphInternal5TokenERNSt7__cxx1112basic_stringIcSt11char_traitsIcESaIcEEE.constprop.0
_ZN15MarinerWrtGraph15readTokenBlock0ERK16MarinerWrtStructRN23MarinerWrtGraphInternal5TokenERNSt7__cxx1112basic_stringIcSt11char_traitsIcESaIcEEE.constprop.0.cold
_ZN15MarinerWrtGraph9readTokenERK15MarinerWrtEntryi
_ZN15MarinerWrtGraph9readTokenERK15MarinerWrtEntryi.cold
_ZN15MarinerWrtGraph9sendTokenEil
_ZN15MarinerWrtGraph9sendTokenEil.cold
_ZN15MarinerWrtGraphD0Ev
_ZN15MarinerWrtGraphD1Ev
_ZN15MarinerWrtGraphD2Ev
_ZN15MsWrdTextStyles10readStylesER10MsWrdEntry.isra.0
_ZN15MsWrdTextStyles10readStylesER10MsWrdEntry.isra.0.cold
_ZN15MsWrdTextStyles11readPLCListERK10MsWrdEntry.isra.0
_ZN15MsWrdTextStyles11readPLCListERK10MsWrdEntry.isra.0.cold
_ZN15MsWrdTextStyles11readSectionER10MsWrdEntryRSt6vectorIlSaIlEE
_ZN15MsWrdTextStyles11readSectionER10MsWrdEntryRSt6vectorIlSaIlEE.cold
_ZN15MsWrdTextStyles11setPropertyERKN11MsWrdStruct4FontE
_ZN15MsWrdTextStyles11setPropertyERKN11MsWrdStruct4FontE.cold
_ZN15MsWrdTextStyles13readParagraphERN11MsWrdStruct9ParagraphEi
_ZN15MsWrdTextStyles13readParagraphERN11MsWrdStruct9ParagraphEi.cold
_ZN15MsWrdTextStyles18readTextStructListER10MsWrdEntry
_ZN15MsWrdTextStyles18readTextStructListER10MsWrdEntry.cold
_ZN15MsWrdTextStyles19readStylesParagraphER10MsWrdEntryiRKSt6vectorIiSaIiEES6_.isra.0
_ZN15MsWrdTextStyles19readStylesParagraphER10MsWrdEntryiRKSt6vectorIiSaIiEES6_.isra.0.cold
_ZN15MsWrdTextStyles20readPropertyModifierERbRNSt7__cxx1112basic_stringIcSt11char_traitsIcESaIcEEE.constprop.0
_ZN15MsWrdTextStyles20readPropertyModifierERbRNSt7__cxx1112basic_stringIcSt11char_traitsIcESaIcEEE.constprop.0.cold
_ZN15MsWrdTextStyles7readPLCER10MsWrdEntryiRK8MWAWVec2IlE.isra.0
_ZN15MsWrdTextStyles7readPLCER10MsWrdEntryiRK8MWAWVec2IlE.isra.0.cold
_ZN15MsWrdTextStyles8readFontERN11MsWrdStruct4FontENS_8ZoneTypeE
_ZN15MsWrdTextStyles8readFontERN11MsWrdStruct4FontENS_8ZoneTypeE.cold
_ZN15MsWrdTextStylesD0Ev
_ZN15MsWrdTextStylesD1Ev
_ZN15MsWrdTextStylesD2Ev
_ZN15MultiplanParser10readDoubleERd
_ZN15MultiplanParser10readDoubleERd.cold
_ZN15MultiplanParser11checkHeaderEP10MWAWHeaderb
_ZN15MultiplanParser11checkHeaderEP10MWAWHeaderb.cold
_ZN15MultiplanParser11readFormulaERK8MWAWVec2IiERSt6vectorIN15MWAWCellContent18FormulaInstructionESaIS6_EElRNSt7__cxx1112basic_stringIcSt11char_traitsIcESaIcEEE.constprop.0
_ZN15MultiplanParser11readFormulaERK8MWAWVec2IiERSt6vectorIN15MWAWCellContent18FormulaInstructionESaIS6_EElRNSt7__cxx1112basic_stringIcSt11char_traitsIcESaIcEEE.constprop.0.cold
_ZN15MultiplanParser14createDocumentEPN10librevenge24RVNGSpreadsheetInterfaceE
_ZN15MultiplanParser14createDocumentEPN10librevenge24RVNGSpreadsheetInterfaceE.cold
_ZN15MultiplanParser5parseEPN10librevenge24RVNGSpreadsheetInterfaceE
_ZN15MultiplanParser5parseEPN10librevenge24RVNGSpreadsheetInterfaceE.cold
_ZN15MultiplanParser8sendCellERK8MWAWVec2IiEi.isra.0
_ZN15MultiplanParser8sendCellERK8MWAWVec2IiEi.isra.0.cold
_ZN15MultiplanParserD0Ev
_ZN15MultiplanParserD1Ev
_ZN15MultiplanParserD2Ev
_ZN15PNG_MetaHandler10ProcessXMPEv
_ZN15PNG_MetaHandler10UpdateFileEb
_ZN15PNG_MetaHandler10UpdateFileEb.cold
_ZN15PNG_MetaHandler13CacheFileDataEv
_ZN15PNG_MetaHandler13CacheFileDataEv.cold
_ZN15PNG_MetaHandler13SafeWriteFileEv
_ZN15PNG_MetaHandler13SafeWriteFileEv.cold
_ZN15PNG_MetaHandler13WriteTempFileEP6XMP_IO
_ZN15PNG_MetaHandler13WriteTempFileEP6XMP_IO.cold
_ZN15PNG_MetaHandlerD0Ev
_ZN15PNG_MetaHandlerD1Ev
_ZN15PNG_MetaHandlerD2Ev
_ZN15PSD_MetaHandler10ProcessXMPEv
_ZN15PSD_MetaHandler10ProcessXMPEv.cold
_ZN15PSD_MetaHandler10UpdateFileEb
_ZN15PSD_MetaHandler10UpdateFileEb.cold
_ZN15PSD_MetaHandler13CacheFileDataEv
_ZN15PSD_MetaHandler13CacheFileDataEv.cold
_ZN15PSD_MetaHandler13WriteTempFileEP6XMP_IO
_ZN15PSD_MetaHandlerD0Ev
_ZN15PSD_MetaHandlerD1Ev
_ZN15PSD_MetaHandlerD2Ev
_ZN15PSIR_FileWriter10SetImgRsrcEtPKvj
_ZN15PSIR_FileWriter10SetImgRsrcEtPKvj.cold
_ZN15PSIR_FileWriter13DeleteImgRsrcEt
_ZN15PSIR_FileWriter15IsLegacyChangedEv
_ZN15PSIR_FileWriter16InternalRsrcInfoD1Ev
_ZN15PSIR_FileWriter16InternalRsrcInfoD2Ev.lto_priv.0
_ZN15PSIR_FileWriter18DeleteExistingInfoEv
_ZN15PSIR_FileWriter18ParseFileResourcesEP6XMP_IOj
_ZN15PSIR_FileWriter18ParseFileResourcesEP6XMP_IOj.cold
_ZN15PSIR_FileWriter19UpdateFileResourcesEP6XMP_IOS1_PFbPvES2_P19XMP_ProgressTracker
_ZN15PSIR_FileWriter19UpdateFileResourcesEP6XMP_IOS1_PFbPvES2_P19XMP_ProgressTracker.cold
_ZN15PSIR_FileWriter20ParseMemoryResourcesEPKvjb
_ZN15PSIR_FileWriter20ParseMemoryResourcesEPKvjb.cold
_ZN15PSIR_FileWriter21UpdateMemoryResourcesEPPv
_ZN15PSIR_FileWriter21UpdateMemoryResourcesEPPv.cold
_ZN15PSIR_FileWriter9IsChangedEv
_ZN15PSIR_FileWriterD0Ev
_ZN15PSIR_FileWriterD1Ev
_ZN15PSIR_FileWriterD2Ev
_ZN15PageLayoutStyleD0Ev
_ZN15PageLayoutStyleD1Ev
_ZN15PageLayoutStyleD2Ev
_ZN15PageSpanManager23resetPageSizeAndMarginsEdd
_ZN15PageSpanManager3addERKN10librevenge16RVNGPropertyListEb
_ZN15PageSpanManager3addERKN10librevenge16RVNGPropertyListEb.cold
_ZN15PageSpanManager3getERKN10librevenge10RVNGStringE
_ZN15PageSpanManager3getERKN10librevenge10RVNGStringE.cold
_ZN15PageSpanManagerD1Ev
_ZN15PageSpanManagerD2Ev.lto_priv.0
_ZN15PowerPoint7Text12readTextZoneEilRN23PowerPoint7TextInternal8TextZoneE.isra.0
_ZN15PowerPoint7Text12readTextZoneEilRN23PowerPoint7TextInternal8TextZoneE.isra.0.cold
_ZN15PowerPoint7Text12readZone4064EiliRi.isra.0
_ZN15PowerPoint7Text12readZone4064EiliRi.isra.0.cold
_ZN15PowerPoint7Text13readFieldListEil.constprop.0
_ZN15PowerPoint7Text13readFieldListEil.constprop.0.cold
_ZN15PowerPoint7Text13readRulerListEil.constprop.0
_ZN15PowerPoint7Text13readRulerListEil.constprop.0.cold
_ZN15PowerPoint7Text14readRulerSetIdEilRi.isra.0
_ZN15PowerPoint7Text14readRulerSetIdEilRi.isra.0.cold
_ZN15PowerPoint7Text18readFontCollectionEil.constprop.0
_ZN15PowerPoint7Text18readFontCollectionEil.constprop.0.cold
_ZN15PowerPoint7Text22readTextMasterPropAtomEil.isra.0
_ZN15PowerPoint7Text22readTextMasterPropAtomEil.isra.0.cold
_ZN15PowerPoint7Text8sendTextEi.isra.0
_ZN15PowerPoint7Text8sendTextEi.isra.0.cold
_ZN15PowerPoint7TextD0Ev
_ZN15PowerPoint7TextD1Ev
_ZN15PowerPoint7TextD2Ev
_ZN15RagTime5Formula19readFormulaClustersERKN22RagTime5ClusterManager4LinkEi.isra.0
_ZN15RagTime5Formula19readFormulaClustersERKN22RagTime5ClusterManager4LinkEi.isra.0.cold
_ZN15RagTime5Formula21readFormulaDefinitionER12RagTime5ZoneliiRSt6vectorIN15MWAWCellContent18FormulaInstructionESaIS4_EE.constprop.0
_ZN15RagTime5Formula21readFormulaDefinitionER12RagTime5ZoneliiRSt6vectorIN15MWAWCellContent18FormulaInstructionESaIS4_EE.constprop.0.cold
_ZN15RagTime5FormulaD0Ev
_ZN15RagTime5FormulaD1Ev
_ZN15RagTime5FormulaD2Ev
_ZN15ReadySetGoGraph10readShapesEv
_ZN15ReadySetGoGraph10readShapesEv.cold
_ZN15ReadySetGoGraph11readShapeV2ERN23ReadySetGoGraphInternal6LayoutE
_ZN15ReadySetGoGraph11readShapeV2ERN23ReadySetGoGraphInternal6LayoutE.cold
_ZN15ReadySetGoGraph11readShapeV3ERN23ReadySetGoGraphInternal6LayoutERb
_ZN15ReadySetGoGraph11readShapeV3ERN23ReadySetGoGraphInternal6LayoutERb.cold
_ZN15ReadySetGoGraph11readShapeV6ERN23ReadySetGoGraphInternal6LayoutERb
_ZN15ReadySetGoGraph11readShapeV6ERN23ReadySetGoGraphInternal6LayoutERb.cold
_ZN15ReadySetGoGraph13readShapeDSV2ERN23ReadySetGoGraphInternal6LayoutERb
_ZN15ReadySetGoGraph13readShapeDSV2ERN23ReadySetGoGraphInternal6LayoutERb.cold
_ZN15ReadySetGoGraph15readLayoutsListEib
_ZN15ReadySetGoGraph15readLayoutsListEib.cold
_ZN15ReadySetGoGraph18updateTextBoxLinksEv.isra.0
_ZN15ReadySetGoGraph18updateTextBoxLinksEv.isra.0.cold
_ZN15ReadySetGoGraph4sendERKN23ReadySetGoGraphInternal5ShapeE.isra.0
_ZN15ReadySetGoGraph4sendERKN23ReadySetGoGraphInternal5ShapeE.isra.0.cold
_ZN15ReadySetGoGraph4sendERKN23ReadySetGoGraphInternal6LayoutE.isra.0
_ZN15ReadySetGoGraph4sendERKN23ReadySetGoGraphInternal6LayoutE.isra.0.cold
_ZN15ReadySetGoGraph8sendTextERKN23ReadySetGoGraphInternal5ShapeE.isra.0
_ZN15ReadySetGoGraph8sendTextERKN23ReadySetGoGraphInternal5ShapeE.isra.0.cold
_ZN15ReadySetGoGraphD0Ev
_ZN15ReadySetGoGraphD1Ev
_ZN15ReadySetGoGraphD2Ev
_ZN15SVG_MetaHandler10ProcessXMPEv
_ZN15SVG_MetaHandler10UpdateFileEb
_ZN15SVG_MetaHandler10UpdateFileEb.cold
_ZN15SVG_MetaHandler12ProcessTitleEP6XMP_IOS1_RKNSt7__cxx1112basic_stringIcSt11char_traitsIcESaIcEEERlRK12OffsetStruct
_ZN15SVG_MetaHandler13CacheFileDataEv
_ZN15SVG_MetaHandler13CacheFileDataEv.cold
_ZN15SVG_MetaHandler13WriteTempFileEP6XMP_IO
_ZN15SVG_MetaHandler13WriteTempFileEP6XMP_IO.cold
_ZN15SVG_MetaHandler17InsertNewMetadataEP6XMP_IORKNSt7__cxx1112basic_stringIcSt11char_traitsIcESaIcEEES9_
_ZN15SVG_MetaHandler17InsertNewMetadataEP6XMP_IORKNSt7__cxx1112basic_stringIcSt11char_traitsIcESaIcEEES9_.cold
_ZN15SVG_MetaHandler18CompressFileToFileEP6XMP_IOS1_
_ZN15SVG_MetaHandler18CompressFileToFileEP6XMP_IOS1_.cold
_ZN15SVG_MetaHandler18ProcessDescriptionEP6XMP_IOS1_RKNSt7__cxx1112basic_stringIcSt11char_traitsIcESaIcEEERlRK12OffsetStruct
_ZN15SVG_MetaHandler19GetSerializeOptionsEv
_ZN15SVG_MetaHandler20CompressMemoryToFileERKSt6vectorIhSaIhEEP6XMP_IO
_ZN15SVG_MetaHandler20CompressMemoryToFileERKSt6vectorIhSaIhEEP6XMP_IO.cold
_ZN15SVG_MetaHandler5WriteEP6XMP_IOS1_ll
_ZN15SVG_MetaHandlerD0Ev
_ZN15SVG_MetaHandlerD1Ev
_ZN15SVG_MetaHandlerD2Ev
_ZN15SWF_MetaHandler10ProcessXMPEv
_ZN15SWF_MetaHandler10UpdateFileEb
_ZN15SWF_MetaHandler10UpdateFileEb.cold
_ZN15SWF_MetaHandler13CacheFileDataEv
_ZN15SWF_MetaHandler13CacheFileDataEv.cold
_ZN15SWF_MetaHandler13WriteTempFileEP6XMP_IO
_ZN15SWF_MetaHandler19GetSerializeOptionsEv
_ZN15SWF_MetaHandlerD0Ev
_ZN15SWF_MetaHandlerD1Ev
_ZN15SWF_MetaHandlerD2Ev
_ZN15TIFF_FileWriter12WriteFileIFDEP6XMP_IORNS_15InternalIFDInfoE
_ZN15TIFF_FileWriter14ProcessFileIFDEhjP6XMP_IO
_ZN15TIFF_FileWriter14ProcessFileIFDEhjP6XMP_IO.cold
_ZN15TIFF_FileWriter15InternalTagInfo8FreeDataEv
_ZN15TIFF_FileWriter15IsLegacyChangedEv
_ZN15TIFF_FileWriter15ParseFileStreamEP6XMP_IO
_ZN15TIFF_FileWriter15ParseFileStreamEP6XMP_IO.cold
_ZN15TIFF_FileWriter16ProcessMemoryIFDEjh
_ZN15TIFF_FileWriter16ProcessMemoryIFDEjh.cold
_ZN15TIFF_FileWriter16ProcessPShop6IFDERK17TIFF_MemoryReaderh.constprop.0
_ZN15TIFF_FileWriter16ProcessPShop6IFDERK17TIFF_MemoryReaderh.constprop.0.cold
_ZN15TIFF_FileWriter16UpdateFileStreamEP6XMP_IOP19XMP_ProgressTracker
_ZN15TIFF_FileWriter16UpdateFileStreamEP6XMP_IOP19XMP_ProgressTracker.cold
_ZN15TIFF_FileWriter17ParseMemoryStreamEPKvjbb
_ZN15TIFF_FileWriter17ParseMemoryStreamEPKvjbb.cold
_ZN15TIFF_FileWriter17UpdateMemByAppendEPPhPjbj
_ZN15TIFF_FileWriter17UpdateMemByAppendEPPhPjbj.cold
_ZN15TIFF_FileWriter18DeleteExistingInfoEv
_ZN15TIFF_FileWriter18UpdateMemoryStreamEPPvb
_ZN15TIFF_FileWriter18UpdateMemoryStreamEPPvb.cold
_ZN15TIFF_FileWriter19DetermineAppendInfoEjPbPjb
_ZN15TIFF_FileWriter19IntegrateFromPShop6EPKvm
_ZN15TIFF_FileWriter19IntegrateFromPShop6EPKvm.cold
_ZN15TIFF_FileWriter19PreflightIFDLinkageEv
_ZN15TIFF_FileWriter20SetTag_EncodedStringEhtRKNSt7__cxx1112basic_stringIcSt11char_traitsIcESaIcEEEh
_ZN15TIFF_FileWriter20SetTag_EncodedStringEhtRKNSt7__cxx1112basic_stringIcSt11char_traitsIcESaIcEEEh.cold
_ZN15TIFF_FileWriter6SetTagEhttjPKv
_ZN15TIFF_FileWriter6SetTagEhttjPKv.cold
_ZN15TIFF_FileWriter7PickIFDEht.part.0
_ZN15TIFF_FileWriter9DeleteTagEht
_ZN15TIFF_FileWriter9DeleteTagEht.cold
_ZN15TIFF_FileWriter9IsChangedEv
_ZN15TIFF_FileWriterC1Ev
_ZN15TIFF_FileWriterC2Ev
_ZN15TIFF_FileWriterC2Ev.cold
_ZN15TIFF_FileWriterD0Ev
_ZN15TIFF_FileWriterD1Ev
_ZN15TIFF_FileWriterD2Ev
_ZN15TagCloseElementD0Ev
_ZN15TagCloseElementD1Ev
_ZN15TagCloseElementD2Ev
_ZN15UCF_MetaHandler10ProcessXMPEv
_ZN15UCF_MetaHandler10ProcessXMPEv.cold
_ZN15UCF_MetaHandler10UpdateFileEb
_ZN15UCF_MetaHandler10UpdateFileEb.cold
_ZN15UCF_MetaHandler12CDFileHeader4readEP6XMP_IO
_ZN15UCF_MetaHandler12CDFileHeader4readEP6XMP_IO.cold
_ZN15UCF_MetaHandler12CDFileHeader7releaseEv
_ZN15UCF_MetaHandler12Zip64Locator5writeEP6XMP_IO.part.0.lto_priv.0
_ZN15UCF_MetaHandler13CacheFileDataEv
_ZN15UCF_MetaHandler13CacheFileDataEv.cold
_ZN15UCF_MetaHandler13WriteTempFileEP6XMP_IO
_ZN15UCF_MetaHandler19Zip64EndOfDirectory5writeEP6XMP_IO.part.0.lto_priv.0
_ZN15UCF_MetaHandler8writeOutEP6XMP_IOS1_bb.constprop.0
_ZN15UCF_MetaHandler8writeOutEP6XMP_IOS1_bb.constprop.0.cold
_ZN15UCF_MetaHandlerD0Ev
_ZN15UCF_MetaHandlerD1Ev
_ZN15UCF_MetaHandlerD2Ev
_ZN15WordMakerParser11checkHeaderEP10MWAWHeaderb
_ZN15WordMakerParser11checkHeaderEP10MWAWHeaderb.cold
_ZN15WordMakerParser11createZonesEv
_ZN15WordMakerParser11createZonesEv.cold
_ZN15WordMakerParser11sendPictureERK9MWAWEntry
_ZN15WordMakerParser11sendPictureERK9MWAWEntry.cold
_ZN15WordMakerParser14createDocumentEPN10librevenge17RVNGTextInterfaceE
_ZN15WordMakerParser14createDocumentEPN10librevenge17RVNGTextInterfaceE.cold
_ZN15WordMakerParser5parseEPN10librevenge17RVNGTextInterfaceE
_ZN15WordMakerParser5parseEPN10librevenge17RVNGTextInterfaceE.cold
_ZN15WordMakerParser8readFontElR8MWAWFont.constprop.0.isra.0
_ZN15WordMakerParser8readFontElR8MWAWFont.constprop.0.isra.0.cold
_ZN15WordMakerParser8sendZoneERKN23WordMakerParserInternal4ZoneE
_ZN15WordMakerParser8sendZoneERKN23WordMakerParserInternal4ZoneE.cold
_ZN15WordMakerParserC1ERKSt10shared_ptrI15MWAWInputStreamERKS0_I14MWAWRSRCParserEP10MWAWHeader
_ZN15WordMakerParserC2ERKSt10shared_ptrI15MWAWInputStreamERKS0_I14MWAWRSRCParserEP10MWAWHeader
_ZN15WordMakerParserC2ERKSt10shared_ptrI15MWAWInputStreamERKS0_I14MWAWRSRCParserEP10MWAWHeader.cold
_ZN15WordMakerParserD0Ev
_ZN15WordMakerParserD1Ev
_ZN15WordMakerParserD2Ev
_ZN15WriterPlsParser10sendWindowEi8MWAWVec2IiE
_ZN15WriterPlsParser10sendWindowEi8MWAWVec2IiE.cold
_ZN15WriterPlsParser11checkHeaderEP10MWAWHeaderb
_ZN15WriterPlsParser11checkHeaderEP10MWAWHeaderb.cold
_ZN15WriterPlsParser13readPrintInfoEv
_ZN15WriterPlsParser13readPrintInfoEv.cold
_ZN15WriterPlsParser14createDocumentEPN10librevenge17RVNGTextInterfaceE
_ZN15WriterPlsParser14createDocumentEPN10librevenge17RVNGTextInterfaceE.cold
_ZN15WriterPlsParser15readWindowsInfoEi
_ZN15WriterPlsParser15readWindowsInfoEi.cold
_ZN15WriterPlsParser17readParagraphDataERKN23WriterPlsParserInternal13ParagraphInfoEbRNS0_13ParagraphDataE.constprop.0
_ZN15WriterPlsParser17readParagraphDataERKN23WriterPlsParserInternal13ParagraphInfoEbRNS0_13ParagraphDataE.constprop.0.cold
_ZN15WriterPlsParser5parseEPN10librevenge17RVNGTextInterfaceE
_ZN15WriterPlsParser5parseEPN10librevenge17RVNGTextInterfaceE.cold
_ZN15WriterPlsParser8readTextERKN23WriterPlsParserInternal13ParagraphInfoE
_ZN15WriterPlsParser8readTextERKN23WriterPlsParserInternal13ParagraphInfoE.cold
_ZN15WriterPlsParserD0Ev
_ZN15WriterPlsParserD1Ev
_ZN15WriterPlsParserD2Ev
_ZN16AIFF_MetaHandler10ProcessXMPEv
_ZN16AIFF_MetaHandler10ProcessXMPEv.cold
_ZN16AIFF_MetaHandler10UpdateFileEb
_ZN16AIFF_MetaHandler10UpdateFileEb.cold
_ZN16AIFF_MetaHandler13CacheFileDataEv
_ZN16AIFF_MetaHandler13WriteTempFileEP6XMP_IO
_ZN16AIFF_MetaHandler14whatAIFFFormatEPh
_ZN16AIFF_MetaHandler17updateLegacyChunkEPPN8IFF_RIFF10IChunkDataEjj
_ZN16AIFF_MetaHandler17updateLegacyChunkEPPN8IFF_RIFF10IChunkDataEjj.cold
_ZN16AIFF_MetaHandlerD0Ev
_ZN16AIFF_MetaHandlerD1Ev
_ZN16AIFF_MetaHandlerD2Ev
_ZN16ActaTextInternal5TopicD1Ev
_ZN16ActaTextInternal5TopicD2Ev
_ZN16Canvas5Structure10LWZDecoder9decodeRecEjRSt6vectorIhSaIhEE
_ZN16Canvas5Structure10LWZDecoder9decodeRecEjRSt6vectorIhSaIhEE.cold
_ZN16Canvas5Structure10LWZDecoder9decodeRecEjRSt6vectorIhSaIhEE.part.0.lto_priv.0
_ZN16Canvas5Structure10readBitmapERNS_6StreamEiR18MWAWEmbeddedObjectP9MWAWColor
_ZN16Canvas5Structure10readBitmapERNS_6StreamEiR18MWAWEmbeddedObjectP9MWAWColor.cold
_ZN16Canvas5Structure11readPreviewERNS_6StreamEb
_ZN16Canvas5Structure11readPreviewERNS_6StreamEb.cold
_ZN16Canvas5Structure18readBitmapDAD58BimERNS_6StreamEiR18MWAWEmbeddedObject
_ZN16Canvas5Structure18readBitmapDAD58BimERNS_6StreamEiR18MWAWEmbeddedObject.cold
_ZN16Canvas5Structure9getStringB5cxx11Ej
_ZN16Canvas5Structure9getStringB5cxx11Ej.cold
_ZN16ClarisDrawParser11checkHeaderEP10MWAWHeaderb
_ZN16ClarisDrawParser11checkHeaderEP10MWAWHeaderb.cold
_ZN16ClarisDrawParser13readDocHeaderEv
_ZN16ClarisDrawParser13readDocHeaderEv.cold
_ZN16ClarisDrawParser14getPageLeftTopEv
_ZN16ClarisDrawParser4initEv
_ZN16ClarisDrawParser4initEv.cold
_ZN16ClarisDrawParser5parseEPN10librevenge20RVNGDrawingInterfaceE
_ZN16ClarisDrawParser5parseEPN10librevenge20RVNGDrawingInterfaceE.cold
_ZN16ClarisDrawParser8readDSETEb
_ZN16ClarisDrawParser8readDSETEb.cold
_ZN16ClarisDrawParser8readZoneEv
_ZN16ClarisDrawParser8readZoneEv.cold
_ZN16ClarisDrawParserD0Ev
_ZN16ClarisDrawParserD1Ev
_ZN16ClarisDrawParserD2Ev
_ZN16FontStyleManager11setEmbeddedERKN10librevenge10RVNGStringES3_RKNS0_14RVNGBinaryDataE
_ZN16FontStyleManager11setEmbeddedERKN10librevenge10RVNGStringES3_RKNS0_14RVNGBinaryDataE.cold
_ZN16FontStyleManager5cleanEv
_ZN16FontStyleManager9findOrAddEPKc
_ZN16FontStyleManager9findOrAddEPKc.cold
_ZN16FontStyleManagerD0Ev
_ZN16FontStyleManagerD1Ev.lto_priv.0
_ZN16FontStyleManagerD2Ev.lto_priv.0
_ZN16GreatWksBMParser11checkHeaderEP10MWAWHeaderb
_ZN16GreatWksBMParser11checkHeaderEP10MWAWHeaderb.cold
_ZN16GreatWksBMParser11sendPictureEv
_ZN16GreatWksBMParser11sendPictureEv.cold
_ZN16GreatWksBMParser5parseEPN10librevenge20RVNGDrawingInterfaceE
_ZN16GreatWksBMParser5parseEPN10librevenge20RVNGDrawingInterfaceE.cold
_ZN16GreatWksBMParserC1ERKSt10shared_ptrI15MWAWInputStreamERKS0_I14MWAWRSRCParserEP10MWAWHeader
_ZN16GreatWksBMParserC2ERKSt10shared_ptrI15MWAWInputStreamERKS0_I14MWAWRSRCParserEP10MWAWHeader
_ZN16GreatWksBMParserC2ERKSt10shared_ptrI15MWAWInputStreamERKS0_I14MWAWRSRCParserEP10MWAWHeader.cold
_ZN16GreatWksBMParserD0Ev
_ZN16GreatWksBMParserD1Ev
_ZN16GreatWksBMParserD2Ev
_ZN16GreatWksDBParser11checkHeaderEP10MWAWHeaderb
_ZN16GreatWksDBParser11checkHeaderEP10MWAWHeaderb.cold
_ZN16GreatWksDBParser11createBlockERN24GreatWksDBParserInternal11BlockHeaderE
_ZN16GreatWksDBParser11createBlockERN24GreatWksDBParserInternal11BlockHeaderE.cold
_ZN16GreatWksDBParser11createZonesEv
_ZN16GreatWksDBParser11createZonesEv.cold
_ZN16GreatWksDBParser11readFormulaElRSt6vectorIN15MWAWCellContent18FormulaInstructionESaIS2_EE
_ZN16GreatWksDBParser11readFormulaElRSt6vectorIN15MWAWCellContent18FormulaInstructionESaIS2_EE.cold
_ZN16GreatWksDBParser12readFreeListERN24GreatWksDBParserInternal5BlockE
_ZN16GreatWksDBParser12readFreeListERN24GreatWksDBParserInternal5BlockE.cold
_ZN16GreatWksDBParser12readRowLinksERN24GreatWksDBParserInternal5BlockE
_ZN16GreatWksDBParser12readRowLinksERN24GreatWksDBParserInternal5BlockE.cold
_ZN16GreatWksDBParser12sendDatabaseEv
_ZN16GreatWksDBParser12sendDatabaseEv.cold
_ZN16GreatWksDBParser13readSmallZoneERK9MWAWEntry
_ZN16GreatWksDBParser13readSmallZoneERK9MWAWEntry.cold
_ZN16GreatWksDBParser14checkSmallZoneER9MWAWEntry
_ZN16GreatWksDBParser14checkSmallZoneER9MWAWEntry.cold
_ZN16GreatWksDBParser14createDocumentEPN10librevenge24RVNGSpreadsheetInterfaceE
_ZN16GreatWksDBParser14createDocumentEPN10librevenge24RVNGSpreadsheetInterfaceE.cold
_ZN16GreatWksDBParser14readRecordListERKN24GreatWksDBParserInternal5BlockE
_ZN16GreatWksDBParser14readRecordListERKN24GreatWksDBParserInternal5BlockE.cold
_ZN16GreatWksDBParser14readRowRecordsERK9MWAWEntry.isra.0
_ZN16GreatWksDBParser14readRowRecordsERK9MWAWEntry.isra.0.cold
_ZN16GreatWksDBParser15readBlockHeaderERN24GreatWksDBParserInternal11BlockHeaderE
_ZN16GreatWksDBParser15readBlockHeaderERN24GreatWksDBParserInternal11BlockHeaderE.cold
_ZN16GreatWksDBParser16readBlockHeader2ERKN24GreatWksDBParserInternal5BlockE
_ZN16GreatWksDBParser16readBlockHeader2ERKN24GreatWksDBParserInternal5BlockE.cold
_ZN16GreatWksDBParser16readFieldRecordsERN24GreatWksDBParserInternal5FieldE.isra.0
_ZN16GreatWksDBParser16readFieldRecordsERN24GreatWksDBParserInternal5FieldE.isra.0.cold
_ZN16GreatWksDBParser5parseEPN10librevenge24RVNGSpreadsheetInterfaceE
_ZN16GreatWksDBParser5parseEPN10librevenge24RVNGSpreadsheetInterfaceE.cold
_ZN16GreatWksDBParser9readFieldERN24GreatWksDBParserInternal5FieldE
_ZN16GreatWksDBParser9readFieldERN24GreatWksDBParserInternal5FieldE.cold
_ZN16GreatWksDBParserD0Ev
_ZN16GreatWksDBParserD1Ev
_ZN16GreatWksDBParserD2Ev
_ZN16GreatWksDRParser11checkHeaderEP10MWAWHeaderb
_ZN16GreatWksDRParser4initEv
_ZN16GreatWksDRParser4initEv.cold
_ZN16GreatWksDRParser5parseEPN10librevenge20RVNGDrawingInterfaceE
_ZN16GreatWksDRParser5parseEPN10librevenge20RVNGDrawingInterfaceE.cold
_ZN16GreatWksDRParserD0Ev
_ZN16GreatWksDRParserD1Ev
_ZN16GreatWksDRParserD2Ev
_ZN16GreatWksDocument10readStringElRNSt7__cxx1112basic_stringIcSt11char_traitsIcESaIcEEE.constprop.0
_ZN16GreatWksDocument10readStringElRNSt7__cxx1112basic_stringIcSt11char_traitsIcESaIcEEE.constprop.0.cold
_ZN16GreatWksDocument11checkHeaderEP10MWAWHeaderb
_ZN16GreatWksDocument11checkHeaderEP10MWAWHeaderb.cold
_ZN16GreatWksDocument11readFormulaERK8MWAWVec2IiElRSt6vectorIN15MWAWCellContent18FormulaInstructionESaIS6_EERNSt7__cxx1112basic_stringIcSt11char_traitsIcESaIcEEE
_ZN16GreatWksDocument11readFormulaERK8MWAWVec2IiElRSt6vectorIN15MWAWCellContent18FormulaInstructionESaIS6_EERNSt7__cxx1112basic_stringIcSt11char_traitsIcESaIcEEE.cold
_ZN16GreatWksDocument13readRSRCZonesEv.isra.0
_ZN16GreatWksDocument13readRSRCZonesEv.isra.0.cold
_ZN16GreatWksDocument23canSendTextboxAsGraphicERK9MWAWEntry
_ZN16GreatWksDocument23canSendTextboxAsGraphicERK9MWAWEntry.cold
_ZN16GreatWksDocument7newPageEi
_ZN16GreatWksDocumentC1ER10MWAWParser
_ZN16GreatWksDocumentC2ER10MWAWParser
_ZN16GreatWksDocumentC2ER10MWAWParser.cold
_ZN16GreatWksDocumentD0Ev
_ZN16GreatWksDocumentD1Ev
_ZN16GreatWksDocumentD2Ev
_ZN16GreatWksSSParser11checkHeaderEP10MWAWHeaderb
_ZN16GreatWksSSParser11checkHeaderEP10MWAWHeaderb.cold
_ZN16GreatWksSSParser14createDocumentEPN10librevenge24RVNGSpreadsheetInterfaceE
_ZN16GreatWksSSParser14createDocumentEPN10librevenge24RVNGSpreadsheetInterfaceE.cold
_ZN16GreatWksSSParser15readSpreadsheetEv
_ZN16GreatWksSSParser15readSpreadsheetEv.cold
_ZN16GreatWksSSParser15sendSpreadsheetEv
_ZN16GreatWksSSParser15sendSpreadsheetEv.cold
_ZN16GreatWksSSParser5parseEPN10librevenge24RVNGSpreadsheetInterfaceE
_ZN16GreatWksSSParser5parseEPN10librevenge24RVNGSpreadsheetInterfaceE.cold
_ZN16GreatWksSSParserD0Ev
_ZN16GreatWksSSParserD1Ev
_ZN16GreatWksSSParserD2Ev
_ZN16HanMacWrdJParser10checkEntryER9MWAWEntry
_ZN16HanMacWrdJParser10checkEntryER9MWAWEntry.cold
_ZN16HanMacWrdJParser10decodeZoneERK9MWAWEntryRN10librevenge14RVNGBinaryDataE
_ZN16HanMacWrdJParser10decodeZoneERK9MWAWEntryRN10librevenge14RVNGBinaryDataE.cold
_ZN16HanMacWrdJParser11checkHeaderEP10MWAWHeaderb
_ZN16HanMacWrdJParser11checkHeaderEP10MWAWHeaderb.cold
_ZN16HanMacWrdJParser11createZonesEv
_ZN16HanMacWrdJParser11createZonesEv.cold
_ZN16HanMacWrdJParser13readHeaderEndEv
_ZN16HanMacWrdJParser13readHeaderEndEv.cold
_ZN16HanMacWrdJParser13readZonesListEv
_ZN16HanMacWrdJParser13readZonesListEv.cold
_ZN16HanMacWrdJParser14createDocumentEPN10librevenge17RVNGTextInterfaceE
_ZN16HanMacWrdJParser14createDocumentEPN10librevenge17RVNGTextInterfaceE.cold
_ZN16HanMacWrdJParser17readClassicHeaderER20HanMacWrdJZoneHeaderl
_ZN16HanMacWrdJParser17readClassicHeaderER20HanMacWrdJZoneHeaderl.cold
_ZN16HanMacWrdJParser4initEv
_ZN16HanMacWrdJParser4initEv.cold
_ZN16HanMacWrdJParser5parseEPN10librevenge17RVNGTextInterfaceE
_ZN16HanMacWrdJParser5parseEPN10librevenge17RVNGTextInterfaceE.cold
_ZN16HanMacWrdJParser7newPageEi
_ZN16HanMacWrdJParser8sendTextEllSt10shared_ptrI12MWAWListenerE
_ZN16HanMacWrdJParser8sendTextEllSt10shared_ptrI12MWAWListenerE.cold
_ZN16HanMacWrdJParser9readZoneAERK9MWAWEntry
_ZN16HanMacWrdJParser9readZoneAERK9MWAWEntry.cold
_ZN16HanMacWrdJParser9readZoneBERK9MWAWEntry
_ZN16HanMacWrdJParser9readZoneBERK9MWAWEntry.cold
_ZN16HanMacWrdJParserD0Ev
_ZN16HanMacWrdJParserD1Ev
_ZN16HanMacWrdJParserD2Ev
_ZN16HanMacWrdKParser10decodeZoneESt10shared_ptrI14HanMacWrdKZoneE
_ZN16HanMacWrdKParser10decodeZoneESt10shared_ptrI14HanMacWrdKZoneE.cold
_ZN16HanMacWrdKParser11checkHeaderEP10MWAWHeaderb
_ZN16HanMacWrdKParser11checkHeaderEP10MWAWHeaderb.cold
_ZN16HanMacWrdKParser11createZonesEv
_ZN16HanMacWrdKParser11createZonesEv.cold
_ZN16HanMacWrdKParser13readPrintInfoER14HanMacWrdKZone
_ZN16HanMacWrdKParser13readPrintInfoER14HanMacWrdKZone.cold
_ZN16HanMacWrdKParser13readZonesListEv
_ZN16HanMacWrdKParser13readZonesListEv.cold
_ZN16HanMacWrdKParser14createDocumentEPN10librevenge17RVNGTextInterfaceE
_ZN16HanMacWrdKParser14createDocumentEPN10librevenge17RVNGTextInterfaceE.cold
_ZN16HanMacWrdKParser4initEv
_ZN16HanMacWrdKParser4initEv.cold
_ZN16HanMacWrdKParser5parseEPN10librevenge17RVNGTextInterfaceE
_ZN16HanMacWrdKParser5parseEPN10librevenge17RVNGTextInterfaceE.cold
_ZN16HanMacWrdKParser7newPageEi
_ZN16HanMacWrdKParser8sendTextEllSt10shared_ptrI12MWAWListenerE
_ZN16HanMacWrdKParser8sendTextEllSt10shared_ptrI12MWAWListenerE.cold
_ZN16HanMacWrdKParserD0Ev
_ZN16HanMacWrdKParserD1Ev
_ZN16HanMacWrdKParserD2Ev
_ZN16JPEG_MetaHandler10ProcessXMPEv
_ZN16JPEG_MetaHandler10ProcessXMPEv.cold
_ZN16JPEG_MetaHandler10UpdateFileEb
_ZN16JPEG_MetaHandler10UpdateFileEb.cold
_ZN16JPEG_MetaHandler13CacheFileDataEv
_ZN16JPEG_MetaHandler13CacheFileDataEv.cold
_ZN16JPEG_MetaHandler13WriteTempFileEP6XMP_IO
_ZN16JPEG_MetaHandler13WriteTempFileEP6XMP_IO.cold
_ZN16JPEG_MetaHandlerD0Ev
_ZN16JPEG_MetaHandlerD1Ev
_ZN16JPEG_MetaHandlerD2Ev
_ZN16JazzWriterParser11checkHeaderEP10MWAWHeaderb
_ZN16JazzWriterParser11checkHeaderEP10MWAWHeaderb.cold
_ZN16JazzWriterParser13sendParagraphEj.isra.0
_ZN16JazzWriterParser5parseEPN10librevenge17RVNGTextInterfaceE
_ZN16JazzWriterParser5parseEPN10librevenge17RVNGTextInterfaceE.cold
_ZN16JazzWriterParser7sendPLCEj.isra.0
_ZN16JazzWriterParser7sendPLCEj.isra.0.cold
_ZN16JazzWriterParser8sendZoneEj
_ZN16JazzWriterParser8sendZoneEj.cold
_ZN16JazzWriterParserD0Ev
_ZN16JazzWriterParserD1Ev
_ZN16JazzWriterParserD2Ev
_ZN16LightWayTxtGraphD0Ev
_ZN16LightWayTxtGraphD1Ev
_ZN16LightWayTxtGraphD2Ev
_ZN16MWAWGraphicShape4lineERK8MWAWVec2IfES3_
_ZN16MWAWGraphicShape4lineERK8MWAWVec2IfES3_.cold
_ZN16MWAWGraphicShape5scaleERK8MWAWVec2IfE
_ZN16MWAWGraphicShape9translateERK8MWAWVec2IfE
_ZN16MWAWGraphicShape9translateERK8MWAWVec2IfE.part.0
_ZN16MWAWGraphicShape9translateERK8MWAWVec2IfE.part.0.cold
_ZN16MWAWGraphicShapeC1ERKS_
_ZN16MWAWGraphicShapeC1Ev
_ZN16MWAWGraphicShapeC2ERKS_.lto_priv.0
_ZN16MWAWGraphicShapeC2ERKS_.lto_priv.0.cold
_ZN16MWAWGraphicShapeC2Ev.lto_priv.0
_ZN16MWAWGraphicShapeD1Ev
_ZN16MWAWGraphicShapeD2Ev
_ZN16MWAWGraphicShapeaSEOS_.isra.0
_ZN16MWAWGraphicStyle10setBordersEiRK10MWAWBorder
_ZN16MWAWGraphicStyle10setBordersEiRK10MWAWBorder.cold
_ZN16MWAWGraphicStyle5Arrow5plainEv
_ZN16MWAWGraphicStyle5Arrow5plainEv.cold
_ZN16MWAWGraphicStyle5ArrowC1Ev
_ZN16MWAWGraphicStyle5ArrowC2Ev.lto_priv.0
_ZN16MWAWGraphicStyle5ArrowaSEOS0_.isra.0
_ZN16MWAWGraphicStyle5ArrowaSERKS0_.isra.0
_ZN16MWAWGraphicStyle7PatternC1E8MWAWVec2IiERK18MWAWEmbeddedObjectRK9MWAWColor
_ZN16MWAWGraphicStyle7PatternC1ERKS0_
_ZN16MWAWGraphicStyle7PatternC1Ev
_ZN16MWAWGraphicStyle7PatternC2E8MWAWVec2IiERK18MWAWEmbeddedObjectRK9MWAWColor.lto_priv.0
_ZN16MWAWGraphicStyle7PatternC2E8MWAWVec2IiERK18MWAWEmbeddedObjectRK9MWAWColor.lto_priv.0.cold
_ZN16MWAWGraphicStyle7PatternC2ERKS0_.lto_priv.0
_ZN16MWAWGraphicStyle7PatternC2ERKS0_.lto_priv.0.cold
_ZN16MWAWGraphicStyle7PatternC2Ev.lto_priv.0
_ZN16MWAWGraphicStyle7PatternD0Ev
_ZN16MWAWGraphicStyle7PatternD1Ev
_ZN16MWAWGraphicStyle7PatternD2Ev
_ZN16MWAWGraphicStyle7PatternaSEOS0_.isra.0
_ZN16MWAWGraphicStyle7PatternaSERKS0_.isra.0
_ZN16MWAWGraphicStyleC1ERKS_
_ZN16MWAWGraphicStyleC1Ev
_ZN16MWAWGraphicStyleC2ERKS_.lto_priv.0
_ZN16MWAWGraphicStyleC2ERKS_.lto_priv.0.cold
_ZN16MWAWGraphicStyleC2Ev.lto_priv.0
_ZN16MWAWGraphicStyleC2Ev.lto_priv.0.cold
_ZN16MWAWGraphicStyleD0Ev
_ZN16MWAWGraphicStyleD1Ev
_ZN16MWAWGraphicStyleD2Ev
_ZN16MWAWGraphicStyleaSEOS_.isra.0
_ZN16MWAWGraphicStyleaSERKS_
_ZN16MWAWHeaderFooterC1ENS_4TypeENS_10OccurrenceE
_ZN16MWAWHeaderFooterC2ENS_4TypeENS_10OccurrenceE
_ZN16MWAWHeaderFooterC2ENS_4TypeENS_10OccurrenceE.cold
_ZN16MWAWHeaderFooterD1Ev
_ZN16MWAWHeaderFooterD2Ev
_ZN16MWAWPictBitmapBWD0Ev
_ZN16MWAWPictBitmapBWD1Ev.lto_priv.0
_ZN16MWAWPictBitmapBWD2Ev.lto_priv.0
_ZN16MWAWPictDUnknownD0Ev
_ZN16MWAWPictDUnknownD1Ev
_ZN16MWAWPictDUnknownD2Ev
_ZN16MWAWStringStream12isStructuredEv
_ZN16MWAWStringStream13subStreamNameEj
_ZN16MWAWStringStream14subStreamCountEv
_ZN16MWAWStringStream15existsSubStreamEPKc
_ZN16MWAWStringStream16getSubStreamByIdEj
_ZN16MWAWStringStream18getSubStreamByNameEPKc
_ZN16MWAWStringStream4readEmRm
_ZN16MWAWStringStream4seekElN10librevenge14RVNG_SEEK_TYPEE
_ZN16MWAWStringStream4tellEv
_ZN16MWAWStringStream5isEndEv
_ZN16MWAWStringStream6appendEPKhj
_ZN16MWAWStringStreamC1EPKhj
_ZN16MWAWStringStreamC2EPKhj
_ZN16MWAWStringStreamC2EPKhj.cold
_ZN16MWAWStringStreamD0Ev
_ZN16MWAWStringStreamD1Ev
_ZN16MWAWStringStreamD2Ev
_ZN16MWAWTextListener10_flushTextEv
_ZN16MWAWTextListener10_flushTextEv.cold
_ZN16MWAWTextListener10closeFrameEv
_ZN16MWAWTextListener10closeGroupEv
_ZN16MWAWTextListener10closeGroupEv.cold
_ZN16MWAWTextListener10closeTableEv
_ZN16MWAWTextListener10closeTableEv.cold
_ZN16MWAWTextListener10insertCharEh
_ZN16MWAWTextListener10insertNoteERK8MWAWNoteRSt10shared_ptrI15MWAWSubDocumentE
_ZN16MWAWTextListener10insertNoteERK8MWAWNoteRSt10shared_ptrI15MWAWSubDocumentE.cold
_ZN16MWAWTextListener11_changeListEv
_ZN16MWAWTextListener11_changeListEv.cold
_ZN16MWAWTextListener11endDocumentEb
_ZN16MWAWTextListener11getPageSpanEv
_ZN16MWAWTextListener11insertBreakEN12MWAWListener9BreakTypeE
_ZN16MWAWTextListener11insertFieldERK9MWAWField
_ZN16MWAWTextListener11insertFieldERK9MWAWField.cold
_ZN16MWAWTextListener11insertShapeERK12MWAWPositionRK16MWAWGraphicShapeRK16MWAWGraphicStyle
_ZN16MWAWTextListener11insertShapeERK12MWAWPositionRK16MWAWGraphicShapeRK16MWAWGraphicStyle.cold
_ZN16MWAWTextListener11openSectionERK11MWAWSection
_ZN16MWAWTextListener12_openSectionEv
_ZN16MWAWTextListener12_openSectionEv.cold
_ZN16MWAWTextListener12closeSectionEv
_ZN16MWAWTextListener12insertFooterERKSt10shared_ptrI15MWAWSubDocumentERKN10librevenge16RVNGPropertyListE
_ZN16MWAWTextListener12insertFooterERKSt10shared_ptrI15MWAWSubDocumentERKN10librevenge16RVNGPropertyListE.cold
_ZN16MWAWTextListener12insertHeaderERKSt10shared_ptrI15MWAWSubDocumentERKN10librevenge16RVNGPropertyListE
_ZN16MWAWTextListener12insertHeaderERKSt10shared_ptrI15MWAWSubDocumentERKN10librevenge16RVNGPropertyListE.cold
_ZN16MWAWTextListener12openTableRowEfN10librevenge8RVNGUnitEb
_ZN16MWAWTextListener12openTableRowEfN10librevenge8RVNGUnitEb.cold
_ZN16MWAWTextListener12setParagraphERK13MWAWParagraph
_ZN16MWAWTextListener13_closeSectionEv
_ZN16MWAWTextListener13_openPageSpanEb
_ZN16MWAWTextListener13_openPageSpanEb.cold
_ZN16MWAWTextListener13closeTableRowEv
_ZN16MWAWTextListener13insertCommentERSt10shared_ptrI15MWAWSubDocumentE
_ZN16MWAWTextListener13insertCommentERSt10shared_ptrI15MWAWSubDocumentE.cold
_ZN16MWAWTextListener13insertPictureERK12MWAWPositionRK18MWAWEmbeddedObjectRK16MWAWGraphicStyle
_ZN16MWAWTextListener13insertPictureERK12MWAWPositionRK18MWAWEmbeddedObjectRK16MWAWGraphicStyle.cold
_ZN16MWAWTextListener13insertTextBoxERK12MWAWPositionRKSt10shared_ptrI15MWAWSubDocumentERK16MWAWGraphicStyle
_ZN16MWAWTextListener13insertTextBoxERK12MWAWPositionRKSt10shared_ptrI15MWAWSubDocumentERK16MWAWGraphicStyle.cold
_ZN16MWAWTextListener13insertUnicodeEj
_ZN16MWAWTextListener13insertUnicodeEj.part.0
_ZN16MWAWTextListener13openTableCellERK8MWAWCell
_ZN16MWAWTextListener13openTableCellERK8MWAWCell.cold
_ZN16MWAWTextListener13startDocumentEv
_ZN16MWAWTextListener13startDocumentEv.cold
_ZN16MWAWTextListener14_closePageSpanEv
_ZN16MWAWTextListener14_openParagraphEv
_ZN16MWAWTextListener14_openParagraphEv.cold
_ZN16MWAWTextListener14closeTableCellEv
_ZN16MWAWTextListener15_closeParagraphEv
_ZN16MWAWTextListener15insertCharacterEh
_ZN16MWAWTextListener15insertCharacterEhRSt10shared_ptrI15MWAWInputStreamEl
_ZN16MWAWTextListener16_popParsingStateEv.part.0
_ZN16MWAWTextListener17_pushParsingStateEv
_ZN16MWAWTextListener17_pushParsingStateEv.cold
_ZN16MWAWTextListener17addEmptyTableCellERK8MWAWVec2IiES1_
_ZN16MWAWTextListener17addEmptyTableCellERK8MWAWVec2IiES1_.cold
_ZN16MWAWTextListener17handleSubDocumentERKSt10shared_ptrI15MWAWSubDocumentEN7libmwaw15SubDocumentTypeE
_ZN16MWAWTextListener17handleSubDocumentERKSt10shared_ptrI15MWAWSubDocumentEN7libmwaw15SubDocumentTypeE.cold
_ZN16MWAWTextListener18_flushDeferredTabsEv
_ZN16MWAWTextListener18_flushDeferredTabsEv.cold
_ZN16MWAWTextListener19insertUnicodeStringERKN10librevenge10RVNGStringE
_ZN16MWAWTextListener19setDocumentLanguageERKNSt7__cxx1112basic_stringIcSt11char_traitsIcESaIcEEE
_ZN16MWAWTextListener19setDocumentMetaDataERKN10librevenge16RVNGPropertyListE
_ZN16MWAWTextListener19setDocumentMetaDataERKN10librevenge16RVNGPropertyListE.cold
_ZN16MWAWTextListener22_handleFrameParametersERN10librevenge16RVNGPropertyListERK12MWAWPosition
_ZN16MWAWTextListener22_handleFrameParametersERN10librevenge16RVNGPropertyListERK12MWAWPosition.cold
_ZN16MWAWTextListener26_appendParagraphPropertiesERN10librevenge16RVNGPropertyListEb.isra.0
_ZN16MWAWTextListener7setFontERK8MWAWFont
_ZN16MWAWTextListener7setFontERK8MWAWFont.cold
_ZN16MWAWTextListener8openLinkERK8MWAWLink
_ZN16MWAWTextListener8openLinkERK8MWAWLink.cold
_ZN16MWAWTextListener9_openSpanEv
_ZN16MWAWTextListener9_openSpanEv.cold
_ZN16MWAWTextListener9closeLinkEv
_ZN16MWAWTextListener9closeLinkEv.cold
_ZN16MWAWTextListener9insertEOLEb
_ZN16MWAWTextListener9insertTabEv
_ZN16MWAWTextListener9openFrameERK12MWAWPositionRK16MWAWGraphicStyle
_ZN16MWAWTextListener9openFrameERK12MWAWPositionRK16MWAWGraphicStyle.cold
_ZN16MWAWTextListener9openGroupERK12MWAWPosition
_ZN16MWAWTextListener9openGroupERK12MWAWPosition.cold
_ZN16MWAWTextListener9openTableERK9MWAWTable
_ZN16MWAWTextListener9openTableERK9MWAWTable.cold
_ZN16MWAWTextListenerC1ER15MWAWParserStateRKSt6vectorI12MWAWPageSpanSaIS3_EEPN10librevenge17RVNGTextInterfaceE
_ZN16MWAWTextListenerC2ER15MWAWParserStateRKSt6vectorI12MWAWPageSpanSaIS3_EEPN10librevenge17RVNGTextInterfaceE
_ZN16MWAWTextListenerC2ER15MWAWParserStateRKSt6vectorI12MWAWPageSpanSaIS3_EEPN10librevenge17RVNGTextInterfaceE.cold
_ZN16MWAWTextListenerD0Ev
_ZN16MWAWTextListenerD1Ev
_ZN16MWAWTextListenerD2Ev
_ZN16MacDrawProParser10readObjectEv
_ZN16MacDrawProParser10readObjectEv.cold
_ZN16MacDrawProParser11checkHeaderEP10MWAWHeaderb
_ZN16MacDrawProParser11checkHeaderEP10MWAWHeaderb.cold
_ZN16MacDrawProParser11createZonesEv
_ZN16MacDrawProParser11createZonesEv.cold
_ZN16MacDrawProParser14createDocumentEPN10librevenge20RVNGDrawingInterfaceE
_ZN16MacDrawProParser14createDocumentEPN10librevenge20RVNGDrawingInterfaceE.cold
_ZN16MacDrawProParser14readHeaderInfoEv
_ZN16MacDrawProParser14readHeaderInfoEv.cold
_ZN16MacDrawProParser14readLayersInfoEv
_ZN16MacDrawProParser14readLayersInfoEv.cold
_ZN16MacDrawProParser17readLibrariesInfoEv
_ZN16MacDrawProParser17readLibrariesInfoEv.cold
_ZN16MacDrawProParser19findObjectPositionsEb
_ZN16MacDrawProParser19findObjectPositionsEb.cold
_ZN16MacDrawProParser24readRotationInObjectDataERN24MacDrawProParserInternal5ShapeElRNSt7__cxx1112basic_stringIcSt11char_traitsIcESaIcEEE
_ZN16MacDrawProParser24readRotationInObjectDataERN24MacDrawProParserInternal5ShapeElRNSt7__cxx1112basic_stringIcSt11char_traitsIcESaIcEEE.cold
_ZN16MacDrawProParser24readStructuredHeaderZoneERK9MWAWEntryRSt3mapIilSt4lessIiESaISt4pairIKilEEE.constprop.0
_ZN16MacDrawProParser24readStructuredHeaderZoneERK9MWAWEntryRSt3mapIilSt4lessIiESaISt4pairIKilEEE.constprop.0.cold
_ZN16MacDrawProParser30readLayerLibraryCorrespondanceEv
_ZN16MacDrawProParser30readLayerLibraryCorrespondanceEv.cold
_ZN16MacDrawProParser36computeLayersAndLibrariesBoundingBoxEv
_ZN16MacDrawProParser36computeLayersAndLibrariesBoundingBoxEv.cold
_ZN16MacDrawProParser4sendERKN24MacDrawProParserInternal5LayerE.isra.0
_ZN16MacDrawProParser4sendERKN24MacDrawProParserInternal5LayerE.isra.0.cold
_ZN16MacDrawProParser4sendERKN24MacDrawProParserInternal5ShapeERK8MWAWVec2IfE.isra.0
_ZN16MacDrawProParser4sendERKN24MacDrawProParserInternal5ShapeERK8MWAWVec2IfE.isra.0.cold
_ZN16MacDrawProParser5parseEPN10librevenge20RVNGDrawingInterfaceE
_ZN16MacDrawProParser5parseEPN10librevenge20RVNGDrawingInterfaceE.cold
_ZN16MacDrawProParser8sendTextEi.isra.0
_ZN16MacDrawProParser8sendTextEi.isra.0.cold
_ZN16MacDrawProParserD0Ev
_ZN16MacDrawProParserD1Ev
_ZN16MacDrawProParserD2Ev
_ZN16MarinerWrtParser10decodeZoneERSt6vectorI16MarinerWrtStructSaIS1_EEl.constprop.0.isra.0
_ZN16MarinerWrtParser10decodeZoneERSt6vectorI16MarinerWrtStructSaIS1_EEl.constprop.0.isra.0.cold
_ZN16MarinerWrtParser11checkHeaderEP10MWAWHeaderb
_ZN16MarinerWrtParser11checkHeaderEP10MWAWHeaderb.cold
_ZN16MarinerWrtParser11readDocInfoERK15MarinerWrtEntryi
_ZN16MarinerWrtParser11readDocInfoERK15MarinerWrtEntryi.cold
_ZN16MarinerWrtParser11readZoneDimERK15MarinerWrtEntryi
_ZN16MarinerWrtParser11readZoneDimERK15MarinerWrtEntryi.cold
_ZN16MarinerWrtParser13readPrintInfoERK15MarinerWrtEntry
_ZN16MarinerWrtParser13readPrintInfoERK15MarinerWrtEntry.cold
_ZN16MarinerWrtParser14createDocumentEPN10librevenge17RVNGTextInterfaceE
_ZN16MarinerWrtParser14createDocumentEPN10librevenge17RVNGTextInterfaceE.cold
_ZN16MarinerWrtParser14readZoneHeaderERK15MarinerWrtEntryib
_ZN16MarinerWrtParser14readZoneHeaderERK15MarinerWrtEntryib.cold
_ZN16MarinerWrtParser17readNumbersStringEiRSt6vectorIlSaIlEE
_ZN16MarinerWrtParser17readNumbersStringEiRSt6vectorIlSaIlEE.cold
_ZN16MarinerWrtParser4initEv
_ZN16MarinerWrtParser4initEv.cold
_ZN16MarinerWrtParser5parseEPN10librevenge17RVNGTextInterfaceE
_ZN16MarinerWrtParser5parseEPN10librevenge17RVNGTextInterfaceE.cold
_ZN16MarinerWrtParser7newPageEi
_ZN16MarinerWrtParser8readZoneERib
_ZN16MarinerWrtParser8readZoneERib.cold
_ZN16MarinerWrtParser8sendTextEi
_ZN16MarinerWrtParser8sendTextEi.cold
_ZN16MarinerWrtParser9readZonecERK15MarinerWrtEntryi
_ZN16MarinerWrtParser9readZonecERK15MarinerWrtEntryi.cold
_ZN16MarinerWrtParserD0Ev
_ZN16MarinerWrtParserD1Ev
_ZN16MarinerWrtParserD2Ev
_ZN16MoreTextInternal11SubDocument5parseERSt10shared_ptrI12MWAWListenerEN7libmwaw15SubDocumentTypeE
_ZN16MoreTextInternal11SubDocument5parseERSt10shared_ptrI12MWAWListenerEN7libmwaw15SubDocumentTypeE.cold
_ZN16MoreTextInternal11SubDocumentD0Ev
_ZN16MoreTextInternal11SubDocumentD1Ev
_ZN16MoreTextInternal11SubDocumentD2Ev
_ZN16MoreTextInternal7OutlineC1EOS0_
_ZN16MoreTextInternal7OutlineC1ERKS0_
_ZN16MoreTextInternal7OutlineC1Ev
_ZN16MoreTextInternal7OutlineC2EOS0_.lto_priv.0
_ZN16MoreTextInternal7OutlineC2EOS0_.lto_priv.0.cold
_ZN16MoreTextInternal7OutlineC2ERKS0_.lto_priv.0
_ZN16MoreTextInternal7OutlineC2ERKS0_.lto_priv.0.cold
_ZN16MoreTextInternal7OutlineC2Ev.lto_priv.0
_ZN16MoreTextInternal7OutlineC2Ev.lto_priv.0.cold
_ZN16MoreTextInternal7OutlineD1Ev
_ZN16MoreTextInternal7OutlineD2Ev.lto_priv.0
_ZN16MoreTextInternal9Paragraph18updateToFinalStateERK13MWAWParagraphiR15MWAWListManager
_ZN16MoreTextInternal9Paragraph18updateToFinalStateERK13MWAWParagraphiR15MWAWListManager.cold
_ZN16MoreTextInternal9ParagraphD0Ev
_ZN16MoreTextInternal9ParagraphD1Ev
_ZN16MoreTextInternal9ParagraphD2Ev
_ZN16NumberingManagerD0Ev
_ZN16NumberingManagerD1Ev
_ZN16NumberingManagerD2Ev
_ZN16PageDrawingStyleD0Ev
_ZN16PageDrawingStyleD1Ev
_ZN16PageDrawingStyleD2Ev
_ZN16PixelPaintParser10sendBitmapEv
_ZN16PixelPaintParser10sendBitmapEv.cold
_ZN16PixelPaintParser11checkHeaderEP10MWAWHeaderb
_ZN16PixelPaintParser11checkHeaderEP10MWAWHeaderb.cold
_ZN16PixelPaintParser12readBitmapV1Eb
_ZN16PixelPaintParser12readBitmapV1Eb.cold
_ZN16PixelPaintParser12readBitmapV2Eb
_ZN16PixelPaintParser12readBitmapV2Eb.cold
_ZN16PixelPaintParser12readColorMapEb
_ZN16PixelPaintParser12readColorMapEb.cold
_ZN16PixelPaintParser14readPatternMapEb
_ZN16PixelPaintParser14readPatternMapEb.cold
_ZN16PixelPaintParser16readFileHeaderV1Eb
_ZN16PixelPaintParser16readFileHeaderV1Eb.cold
_ZN16PixelPaintParser16readFileHeaderV2Eb
_ZN16PixelPaintParser16readFileHeaderV2Eb.cold
_ZN16PixelPaintParser5parseEPN10librevenge20RVNGDrawingInterfaceE
_ZN16PixelPaintParser5parseEPN10librevenge20RVNGDrawingInterfaceE.cold
_ZN16PixelPaintParserD0Ev
_ZN16PixelPaintParserD1Ev
_ZN16PixelPaintParserD2Ev
_ZN16PowerPoint7Graph11readPolygonEil.isra.0
_ZN16PowerPoint7Graph11readPolygonEil.isra.0.cold
_ZN16PowerPoint7Graph12readRectAtomEil.isra.0
_ZN16PowerPoint7Graph12readRectAtomEil.isra.0.cold
_ZN16PowerPoint7Graph13readPictureIdEilRi.isra.0
_ZN16PowerPoint7Graph13readPictureIdEilRi.isra.0.cold
_ZN16PowerPoint7Graph13readZoneFlagsEil.isra.0
_ZN16PowerPoint7Graph13readZoneFlagsEil.isra.0.cold
_ZN16PowerPoint7Graph14readLineArrowsEil.isra.0
_ZN16PowerPoint7Graph14readLineArrowsEil.isra.0.cold
_ZN16PowerPoint7Graph7readArcEil.isra.0
_ZN16PowerPoint7Graph7readArcEil.isra.0.cold
_ZN16PowerPoint7Graph8readLineEil.isra.0
_ZN16PowerPoint7Graph8readLineEil.isra.0.cold
_ZN16PowerPoint7Graph8readRectEil.isra.0
_ZN16PowerPoint7Graph8readRectEil.isra.0.cold
_ZN16PowerPoint7Graph9readGroupEil.isra.0
_ZN16PowerPoint7Graph9readGroupEil.isra.0.cold
_ZN16PowerPoint7Graph9readStyleEil.isra.0
_ZN16PowerPoint7Graph9readStyleEil.isra.0.cold
_ZN16PowerPoint7Graph9sendFrameERKN24PowerPoint7GraphInternal5FrameEb.isra.0
_ZN16PowerPoint7Graph9sendFrameERKN24PowerPoint7GraphInternal5FrameEb.isra.0.cold
_ZN16PowerPoint7Graph9sendSlideERKN17PowerPoint7Struct7SlideIdEb.isra.0
_ZN16PowerPoint7Graph9sendSlideERKN17PowerPoint7Struct7SlideIdEb.isra.0.cold
_ZN16PowerPoint7GraphD0Ev
_ZN16PowerPoint7GraphD1Ev
_ZN16PowerPoint7GraphD2Ev
_ZN16RIFF_MetaHandler10ProcessXMPEv
_ZN16RIFF_MetaHandler10ProcessXMPEv.cold
_ZN16RIFF_MetaHandler10UpdateFileEb
_ZN16RIFF_MetaHandler10UpdateFileEb.cold
_ZN16RIFF_MetaHandler13CacheFileDataEv
_ZN16RIFF_MetaHandler13CacheFileDataEv.cold
_ZN16RIFF_MetaHandler13WriteTempFileEP6XMP_IO
_ZN16RIFF_MetaHandlerD0Ev
_ZN16RIFF_MetaHandlerD1Ev
_ZN16RIFF_MetaHandlerD2Ev
_ZN16RagTime5Document10updateZoneERSt10shared_ptrI12RagTime5ZoneE.isra.0
_ZN16RagTime5Document10updateZoneERSt10shared_ptrI12RagTime5ZoneE.isra.0.cold
_ZN16RagTime5Document11checkHeaderEP10MWAWHeaderb
_ZN16RagTime5Document11checkHeaderEP10MWAWHeaderb.cold
_ZN16RagTime5Document11createZonesEv
_ZN16RagTime5Document11createZonesEv.cold
_ZN16RagTime5Document12readListZoneERKN22RagTime5ClusterManager4LinkE.isra.0
_ZN16RagTime5Document12readListZoneERKN22RagTime5ClusterManager4LinkE.isra.0.cold
_ZN16RagTime5Document12readListZoneERKN22RagTime5ClusterManager4LinkERN21RagTime5StructManager10DataParserE
_ZN16RagTime5Document12readListZoneERKN22RagTime5ClusterManager4LinkERN21RagTime5StructManager10DataParserE.cold
_ZN16RagTime5Document12readLongListERKN22RagTime5ClusterManager4LinkERSt6vectorIlSaIlEE.isra.0
_ZN16RagTime5Document13findZonesKindEv
_ZN16RagTime5Document13findZonesKindEv.cold
_ZN16RagTime5Document13readChildListERKN22RagTime5ClusterManager4LinkERSt6vectorIN21RagTime5StructManager8ZoneLinkESaIS6_EEb.isra.0
_ZN16RagTime5Document13readChildListERKN22RagTime5ClusterManager4LinkERSt6vectorIN21RagTime5StructManager8ZoneLinkESaIS6_EEb.isra.0.cold
_ZN16RagTime5Document13readPositionsEiRSt6vectorIlSaIlEE.constprop.0.isra.0
_ZN16RagTime5Document13readPositionsEiRSt6vectorIlSaIlEE.constprop.0.isra.0.cold
_ZN16RagTime5Document14readStructDataER12RagTime5ZoneliiRN21RagTime5StructManager11FieldParserERKN10librevenge10RVNGStringE
_ZN16RagTime5Document14readStructDataER12RagTime5ZoneliiRN21RagTime5StructManager11FieldParserERKN10librevenge10RVNGStringE.cold
_ZN16RagTime5Document14readStructZoneERKN22RagTime5ClusterManager4LinkERN21RagTime5StructManager11FieldParserEiPNS0_8NameLinkE
_ZN16RagTime5Document14readStructZoneERKN22RagTime5ClusterManager4LinkERN21RagTime5StructManager11FieldParserEiPNS0_8NameLinkE.cold
_ZN16RagTime5Document15readClusterZoneER12RagTime5Zonei
_ZN16RagTime5Document15readClusterZoneER12RagTime5Zonei.cold
_ZN16RagTime5Document15updateZoneInputER12RagTime5Zone
_ZN16RagTime5Document15updateZoneInputER12RagTime5Zone.cold
_ZN16RagTime5Document16checkClusterListERKSt6vectorIN21RagTime5StructManager8ZoneLinkESaIS2_EE.isra.0
_ZN16RagTime5Document16checkClusterListERKSt6vectorIN21RagTime5StructManager8ZoneLinkESaIS2_EE.isra.0.cold
_ZN16RagTime5Document16checkClusterListERKSt6vectorIiSaIiEE.isra.0
_ZN16RagTime5Document16checkClusterListERKSt6vectorIiSaIiEE.isra.0.cold
_ZN16RagTime5Document17readFixedSizeZoneERKN22RagTime5ClusterManager4LinkERKNSt7__cxx1112basic_stringIcSt11char_traitsIcESaIcEEE.isra.0
_ZN16RagTime5Document17readFixedSizeZoneERKN22RagTime5ClusterManager4LinkERKNSt7__cxx1112basic_stringIcSt11char_traitsIcESaIcEEE.isra.0.cold
_ZN16RagTime5Document17readFixedSizeZoneERKN22RagTime5ClusterManager4LinkERN21RagTime5StructManager10DataParserE.isra.0
_ZN16RagTime5Document17readFixedSizeZoneERKN22RagTime5ClusterManager4LinkERN21RagTime5StructManager10DataParserE.isra.0.cold
_ZN16RagTime5Document17readUnicodeStringER12RagTime5ZoneRKNSt7__cxx1112basic_stringIcSt11char_traitsIcESaIcEEE.isra.0
_ZN16RagTime5Document17readUnicodeStringER12RagTime5ZoneRKNSt7__cxx1112basic_stringIcSt11char_traitsIcESaIcEEE.isra.0.cold
_ZN16RagTime5Document18updatePageSpanListERSt6vectorI12MWAWPageSpanSaIS1_EE.constprop.0
_ZN16RagTime5Document18updatePageSpanListERSt6vectorI12MWAWPageSpanSaIS1_EE.constprop.0.cold
_ZN16RagTime5Document19readClusterLinkListER12RagTime5ZoneRKN22RagTime5ClusterManager4LinkERSt6vectorIN21RagTime5StructManager8ZoneLinkESaIS8_EE
_ZN16RagTime5Document19readClusterLinkListER12RagTime5ZoneRKN22RagTime5ClusterManager4LinkERSt6vectorIN21RagTime5StructManager8ZoneLinkESaIS8_EE.cold
_ZN16RagTime5Document19readClusterLinkListERKN22RagTime5ClusterManager4LinkERSt6vectorIN21RagTime5StructManager8ZoneLinkESaIS6_EERKNSt7__cxx1112basic_stringIcSt11char_traitsIcESaIcEEE.isra.0
_ZN16RagTime5Document19readClusterLinkListERKN22RagTime5ClusterManager4LinkERSt6vectorIN21RagTime5StructManager8ZoneLinkESaIS6_EERKNSt7__cxx1112basic_stringIcSt11char_traitsIcESaIcEEE.isra.0.cold
_ZN16RagTime5Document20readLongListWithSizeEiiRSt6vectorIlSaIlEERKNSt7__cxx1112basic_stringIcSt11char_traitsIcESaIcEEE
_ZN16RagTime5Document20readLongListWithSizeEiiRSt6vectorIlSaIlEERKNSt7__cxx1112basic_stringIcSt11char_traitsIcESaIcEEE.cold
_ZN16RagTime5Document21parseMainZoneInfoDataERK12RagTime5Zone.part.0
_ZN16RagTime5Document21readUnicodeStringListERKN22RagTime5ClusterManager8NameLinkERSt3mapIiN10librevenge10RVNGStringESt4lessIiESaISt4pairIKiS6_EEE.isra.0
_ZN16RagTime5Document21readUnicodeStringListERKN22RagTime5ClusterManager8NameLinkERSt3mapIiN10librevenge10RVNGStringESt4lessIiESaISt4pairIKiS6_EEE.isra.0.cold
_ZN16RagTime5Document22readDocInfoClusterDataER12RagTime5ZoneRK9MWAWEntry
_ZN16RagTime5Document22readDocInfoClusterDataER12RagTime5ZoneRK9MWAWEntry.cold
_ZN16RagTime5Document23readUnknownClusterCDataERKN22RagTime5ClusterManager7ClusterE
_ZN16RagTime5Document23readUnknownClusterCDataERKN22RagTime5ClusterManager7ClusterE.cold
_ZN16RagTime5Document4sendEiSt10shared_ptrI12MWAWListenerERK12MWAWPositioniid
_ZN16RagTime5Document4sendEiSt10shared_ptrI12MWAWListenerERK12MWAWPositioniid.cold
_ZN16RagTime5Document5asciiEv
_ZN16RagTime5Document9findZonesERK9MWAWEntry
_ZN16RagTime5Document9findZonesERK9MWAWEntry.cold
_ZN16RagTime5DocumentC1ER10MWAWParser
_ZN16RagTime5DocumentC2ER10MWAWParser
_ZN16RagTime5DocumentC2ER10MWAWParser.cold
_ZN16RagTime5DocumentD1Ev
_ZN16RagTime5DocumentD2Ev
_ZN16RagTime5PipelineD0Ev
_ZN16RagTime5PipelineD1Ev
_ZN16RagTime5PipelineD2Ev
_ZN16RagTime5SSParser11checkHeaderEP10MWAWHeaderb
_ZN16RagTime5SSParser12sendFootnoteEi
_ZN16RagTime5SSParser12sendFootnoteEi.cold
_ZN16RagTime5SSParser5parseEPN10librevenge24RVNGSpreadsheetInterfaceE
_ZN16RagTime5SSParser5parseEPN10librevenge24RVNGSpreadsheetInterfaceE.cold
_ZN16RagTime5SSParserD0Ev
_ZN16RagTime5SSParserD1Ev
_ZN16RagTime5SSParserD2Ev
_ZN16ReadySetGoParser11checkHeaderEP10MWAWHeaderb
_ZN16ReadySetGoParser11checkHeaderEP10MWAWHeaderb.cold
_ZN16ReadySetGoParser11createZonesEv
_ZN16ReadySetGoParser11createZonesEv.cold
_ZN16ReadySetGoParser11readIdsListEv
_ZN16ReadySetGoParser11readIdsListEv.cold
_ZN16ReadySetGoParser12readDocumentEv
_ZN16ReadySetGoParser12readDocumentEv.cold
_ZN16ReadySetGoParser13readPrintInfoEv
_ZN16ReadySetGoParser13readPrintInfoEv.cold
_ZN16ReadySetGoParser14createDocumentEPN10librevenge20RVNGDrawingInterfaceE
_ZN16ReadySetGoParser14createDocumentEPN10librevenge20RVNGDrawingInterfaceE.cold
_ZN16ReadySetGoParser18readObjectGlossaryEv
_ZN16ReadySetGoParser18readObjectGlossaryEv.cold
_ZN16ReadySetGoParser5parseEPN10librevenge20RVNGDrawingInterfaceE
_ZN16ReadySetGoParser5parseEPN10librevenge20RVNGDrawingInterfaceE.cold
_ZN16ReadySetGoParserD0Ev
_ZN16ReadySetGoParserD1Ev
_ZN16ReadySetGoParserD2Ev
_ZN16SpanStyleManager17addSpanPropertiesERKN10librevenge16RVNGPropertyListERS1_
_ZN16SpanStyleManager17addSpanPropertiesERKN10librevenge16RVNGPropertyListERS1_.cold
_ZN16SpanStyleManager5cleanEv
_ZN16SpanStyleManagerD0Ev
_ZN16SpanStyleManagerD1Ev.lto_priv.0
_ZN16SpanStyleManagerD2Ev.lto_priv.0
_ZN16SuperPaintParser10readBitmapEb
_ZN16SuperPaintParser10readBitmapEb.cold
_ZN16SuperPaintParser10sendBitmapEv
_ZN16SuperPaintParser10sendBitmapEv.cold
_ZN16SuperPaintParser11checkHeaderEP10MWAWHeaderb
_ZN16SuperPaintParser11checkHeaderEP10MWAWHeaderb.cold
_ZN16SuperPaintParser12sendPicturesEv
_ZN16SuperPaintParser12sendPicturesEv.cold
_ZN16SuperPaintParser5parseEPN10librevenge20RVNGDrawingInterfaceE
_ZN16SuperPaintParser5parseEPN10librevenge20RVNGDrawingInterfaceE.cold
_ZN16SuperPaintParser8sendTextEi.isra.0
_ZN16SuperPaintParser8sendTextEi.isra.0.cold
_ZN16SuperPaintParser9readShapeEv
_ZN16SuperPaintParser9readShapeEv.cold
_ZN16SuperPaintParserD0Ev
_ZN16SuperPaintParserD1Ev
_ZN16SuperPaintParserD2Ev
_ZN16TIFF_MetaHandler10ProcessXMPEv
_ZN16TIFF_MetaHandler10ProcessXMPEv.cold
_ZN16TIFF_MetaHandler10UpdateFileEb
_ZN16TIFF_MetaHandler10UpdateFileEb.cold
_ZN16TIFF_MetaHandler13CacheFileDataEv
_ZN16TIFF_MetaHandler13CacheFileDataEv.cold
_ZN16TIFF_MetaHandler13WriteTempFileEP6XMP_IO
_ZN16TIFF_MetaHandler13WriteTempFileEP6XMP_IO.cold
_ZN16TIFF_MetaHandlerD0Ev
_ZN16TIFF_MetaHandlerD1Ev
_ZN16TIFF_MetaHandlerD2Ev
_ZN16WAVE_MetaHandler10ProcessXMPEv
_ZN16WAVE_MetaHandler10ProcessXMPEv.cold
_ZN16WAVE_MetaHandler10UpdateFileEb
_ZN16WAVE_MetaHandler10UpdateFileEb.cold
_ZN16WAVE_MetaHandler13CacheFileDataEv
_ZN16WAVE_MetaHandler13CacheFileDataEv.cold
_ZN16WAVE_MetaHandler13WriteTempFileEP6XMP_IO
_ZN16WAVE_MetaHandler14whatRIFFFormatEPh
_ZN16WAVE_MetaHandler17updateLegacyChunkEPPN8IFF_RIFF10IChunkDataEjjR9IMetadata
_ZN16WAVE_MetaHandlerD0Ev
_ZN16WAVE_MetaHandlerD1Ev
_ZN16WAVE_MetaHandlerD2Ev
_ZN16WEBP_MetaHandler10ProcessXMPEv
_ZN16WEBP_MetaHandler10ProcessXMPEv.cold
_ZN16WEBP_MetaHandler10UpdateFileEb
_ZN16WEBP_MetaHandler10UpdateFileEb.cold
_ZN16WEBP_MetaHandler13CacheFileDataEv
_ZN16WEBP_MetaHandler13CacheFileDataEv.cold
_ZN16WEBP_MetaHandler13WriteTempFileEP6XMP_IO
_ZN16WEBP_MetaHandlerD0Ev
_ZN16WEBP_MetaHandlerD1Ev
_ZN16WEBP_MetaHandlerD2Ev
_ZN16XMLParserAdapter12NotifyClientEhR9XMP_Error
_ZN16XMLParserAdapter12NotifyClientEhR9XMP_Error.cold
_ZN16XMLParserAdapter16SetErrorCallbackEP20GenericErrorCallback
_ZN16XMLParserAdapterD2Ev.lto_priv.0
_ZN16ZWrtTextInternal11SubDocument5parseERSt10shared_ptrI12MWAWListenerEN7libmwaw15SubDocumentTypeE
_ZN16ZWrtTextInternal11SubDocument5parseERSt10shared_ptrI12MWAWListenerEN7libmwaw15SubDocumentTypeE.cold
_ZN16ZWrtTextInternal11SubDocumentD0Ev
_ZN16ZWrtTextInternal11SubDocumentD1Ev
_ZN16ZWrtTextInternal11SubDocumentD2Ev
_ZN16ZWrtTextInternal4FontC1Ev
_ZN16ZWrtTextInternal4FontD1Ev
_ZN16ZWrtTextInternal7SectionD1Ev
_ZN16ZWrtTextInternal7SectionD2Ev.lto_priv.0
_ZN16ZWrtTextInternallsERSoRKNS_4FontE
_ZN17ASF_LegacyManager11DaysInMonthEii
_ZN17ASF_LegacyManager12ImportLegacyEP8TXMPMetaINSt7__cxx1112basic_stringIcSt11char_traitsIcESaIcEEEE
_ZN17ASF_LegacyManager12ImportLegacyEP8TXMPMetaINSt7__cxx1112basic_stringIcSt11char_traitsIcESaIcEEEE.cold
_ZN17ASF_LegacyManager13ComputeDigestEv
_ZN17ASF_LegacyManager27NormalizeStringTrailingNullERNSt7__cxx1112basic_stringIcSt11char_traitsIcESaIcEEE
_ZN17ASF_LegacyManager8SetFieldENS_9fieldTypeERKNSt7__cxx1112basic_stringIcSt11char_traitsIcESaIcEEE.part.0.isra.0
_ZN17ASF_LegacyManagerD0Ev
_ZN17ASF_LegacyManagerD1Ev
_ZN17ASF_LegacyManagerD2Ev
_ZN17AVCHD_MetaHandler19GetSerializeOptionsEv
_ZN17Basic_MetaHandler10UpdateFileEb
_ZN17Basic_MetaHandler10UpdateFileEb.cold
_ZN17Basic_MetaHandler13WriteTempFileEP6XMP_IO
_ZN17Basic_MetaHandler13WriteTempFileEP6XMP_IO.cold
_ZN17Basic_MetaHandler22ShuffleTrailingContentEP6XMP_IO
_ZN17Basic_MetaHandler22ShuffleTrailingContentEP6XMP_IO.cold
_ZN17BeagleWksBMParser10readBitmapEb
_ZN17BeagleWksBMParser10readBitmapEb.cold
_ZN17BeagleWksBMParser10sendBitmapEv
_ZN17BeagleWksBMParser10sendBitmapEv.cold
_ZN17BeagleWksBMParser11checkHeaderEP10MWAWHeaderb
_ZN17BeagleWksBMParser11checkHeaderEP10MWAWHeaderb.cold
_ZN17BeagleWksBMParser11createZonesEv
_ZN17BeagleWksBMParser11createZonesEv.cold
_ZN17BeagleWksBMParser13readPrintInfoEv
_ZN17BeagleWksBMParser13readPrintInfoEv.cold
_ZN17BeagleWksBMParser4initEv
_ZN17BeagleWksBMParser4initEv.cold
_ZN17BeagleWksBMParser5parseEPN10librevenge20RVNGDrawingInterfaceE
_ZN17BeagleWksBMParser5parseEPN10librevenge20RVNGDrawingInterfaceE.cold
_ZN17BeagleWksBMParser9sendFrameERKN22BeagleWksStructManager5FrameE.isra.0
_ZN17BeagleWksBMParser9sendFrameERKN22BeagleWksStructManager5FrameE.isra.0.cold
_ZN17BeagleWksBMParserD0Ev
_ZN17BeagleWksBMParserD1Ev
_ZN17BeagleWksBMParserD2Ev
_ZN17BeagleWksDBParser10readFieldsEv
_ZN17BeagleWksDBParser10readFieldsEv.cold
_ZN17BeagleWksDBParser10readFormatER8MWAWCellRNSt7__cxx1112basic_stringIcSt11char_traitsIcESaIcEEE
_ZN17BeagleWksDBParser10readFormatER8MWAWCellRNSt7__cxx1112basic_stringIcSt11char_traitsIcESaIcEEE.cold
_ZN17BeagleWksDBParser11checkHeaderEP10MWAWHeaderb
_ZN17BeagleWksDBParser11checkHeaderEP10MWAWHeaderb.cold
_ZN17BeagleWksDBParser11createZonesEv
_ZN17BeagleWksDBParser11createZonesEv.cold
_ZN17BeagleWksDBParser12sendDatabaseEv
_ZN17BeagleWksDBParser12sendDatabaseEv.cold
_ZN17BeagleWksDBParser13readPrintInfoEv
_ZN17BeagleWksDBParser13readPrintInfoEv.cold
_ZN17BeagleWksDBParser14createDocumentEPN10librevenge24RVNGSpreadsheetInterfaceE
_ZN17BeagleWksDBParser14createDocumentEPN10librevenge24RVNGSpreadsheetInterfaceE.cold
_ZN17BeagleWksDBParser5parseEPN10librevenge24RVNGSpreadsheetInterfaceE
_ZN17BeagleWksDBParser5parseEPN10librevenge24RVNGSpreadsheetInterfaceE.cold
_ZN17BeagleWksDBParserD0Ev
_ZN17BeagleWksDBParserD1Ev
_ZN17BeagleWksDBParserD2Ev
_ZN17BeagleWksDRParser11checkHeaderEP10MWAWHeaderb
_ZN17BeagleWksDRParser11checkHeaderEP10MWAWHeaderb.cold
_ZN17BeagleWksDRParser11createZonesEv
_ZN17BeagleWksDRParser11createZonesEv.cold
_ZN17BeagleWksDRParser12sendPicturesEv
_ZN17BeagleWksDRParser12sendPicturesEv.cold
_ZN17BeagleWksDRParser13readPrintInfoEv
_ZN17BeagleWksDRParser13readPrintInfoEv.cold
_ZN17BeagleWksDRParser4initEv
_ZN17BeagleWksDRParser4initEv.cold
_ZN17BeagleWksDRParser5parseEPN10librevenge20RVNGDrawingInterfaceE
_ZN17BeagleWksDRParser5parseEPN10librevenge20RVNGDrawingInterfaceE.cold
_ZN17BeagleWksDRParser8sendTextEi.isra.0
_ZN17BeagleWksDRParser8sendTextEi.isra.0.cold
_ZN17BeagleWksDRParser9readStyleERN25BeagleWksDRParserInternal5ShapeE.isra.0
_ZN17BeagleWksDRParser9readStyleERN25BeagleWksDRParserInternal5ShapeE.isra.0.cold
_ZN17BeagleWksDRParser9sendFrameERKN22BeagleWksStructManager5FrameE.isra.0
_ZN17BeagleWksDRParser9sendFrameERKN22BeagleWksStructManager5FrameE.isra.0.cold
_ZN17BeagleWksDRParserD0Ev
_ZN17BeagleWksDRParserD1Ev
_ZN17BeagleWksDRParserD2Ev
_ZN17BeagleWksSSParser11checkHeaderEP10MWAWHeaderb
_ZN17BeagleWksSSParser11checkHeaderEP10MWAWHeaderb.cold
_ZN17BeagleWksSSParser11createZonesEv
_ZN17BeagleWksSSParser11createZonesEv.cold
_ZN17BeagleWksSSParser11readFormulaERN25BeagleWksSSParserInternal11SpreadsheetE
_ZN17BeagleWksSSParser11readFormulaERN25BeagleWksSSParserInternal11SpreadsheetE.cold
_ZN17BeagleWksSSParser13readPrintInfoEv
_ZN17BeagleWksSSParser13readPrintInfoEv.cold
_ZN17BeagleWksSSParser14createDocumentEPN10librevenge24RVNGSpreadsheetInterfaceE
_ZN17BeagleWksSSParser14createDocumentEPN10librevenge24RVNGSpreadsheetInterfaceE.cold
_ZN17BeagleWksSSParser15sendSpreadsheetEv
_ZN17BeagleWksSSParser15sendSpreadsheetEv.cold
_ZN17BeagleWksSSParser5parseEPN10librevenge24RVNGSpreadsheetInterfaceE
_ZN17BeagleWksSSParser5parseEPN10librevenge24RVNGSpreadsheetInterfaceE.cold
_ZN17BeagleWksSSParser8sendTextERK9MWAWEntryb
_ZN17BeagleWksSSParser8sendTextERK9MWAWEntryb.cold
_ZN17BeagleWksSSParser9readZone0Ev
_ZN17BeagleWksSSParserD0Ev
_ZN17BeagleWksSSParserD1Ev
_ZN17BeagleWksSSParserD2Ev
_ZN17ClarisWksBMParser11checkHeaderEP10MWAWHeaderb
_ZN17ClarisWksBMParser5parseEPN10librevenge20RVNGDrawingInterfaceE
_ZN17ClarisWksBMParser5parseEPN10librevenge20RVNGDrawingInterfaceE.cold
_ZN17ClarisWksBMParserC1ERKSt10shared_ptrI15MWAWInputStreamERKS0_I14MWAWRSRCParserEP10MWAWHeader
_ZN17ClarisWksBMParserC2ERKSt10shared_ptrI15MWAWInputStreamERKS0_I14MWAWRSRCParserEP10MWAWHeader
_ZN17ClarisWksBMParserC2ERKSt10shared_ptrI15MWAWInputStreamERKS0_I14MWAWRSRCParserEP10MWAWHeader.cold
_ZN17ClarisWksBMParserD0Ev
_ZN17ClarisWksBMParserD1Ev
_ZN17ClarisWksBMParserD2Ev
_ZN17ClarisWksDatabase12sendDatabaseEiSt10shared_ptrI12MWAWListenerE
_ZN17ClarisWksDatabase12sendDatabaseEiSt10shared_ptrI12MWAWListenerE.cold
_ZN17ClarisWksDatabase16readDatabaseZoneERKN15ClarisWksStruct4DSETERK9MWAWEntryRb
_ZN17ClarisWksDatabase16readDatabaseZoneERKN15ClarisWksStruct4DSETERK9MWAWEntryRb.cold
_ZN17ClarisWksDatabaseD0Ev
_ZN17ClarisWksDatabaseD1Ev
_ZN17ClarisWksDatabaseD2Ev
_ZN17ClarisWksDocument11checkHeaderEP10MWAWHeaderb
_ZN17ClarisWksDocument11checkHeaderEP10MWAWHeaderb.cold
_ZN17ClarisWksDocument11createZonesEv
_ZN17ClarisWksDocument11createZonesEv.cold
_ZN17ClarisWksDocument11readEndMarkEl
_ZN17ClarisWksDocument11readEndMarkEl.cold
_ZN17ClarisWksDocument12readEndTableERl.constprop.0.isra.0
_ZN17ClarisWksDocument12readEndTableERl.constprop.0.isra.0.cold
_ZN17ClarisWksDocument13readDocHeaderEv
_ZN17ClarisWksDocument13readDocHeaderEv.cold
_ZN17ClarisWksDocument13readPrintInfoEv
_ZN17ClarisWksDocument13readPrintInfoEv.cold
_ZN17ClarisWksDocument14readStringListEPKcbRSt6vectorINSt7__cxx1112basic_stringIcSt11char_traitsIcESaIcEEESaIS8_EE.constprop.0
_ZN17ClarisWksDocument14readStringListEPKcbRSt6vectorINSt7__cxx1112basic_stringIcSt11char_traitsIcESaIcEEESaIS8_EE.constprop.0.cold
_ZN17ClarisWksDocument15cleanZonesGraphEv
_ZN17ClarisWksDocument15cleanZonesGraphEv.cold
_ZN17ClarisWksDocument16typeMainZonesRecEiN15ClarisWksStruct4DSET8PositionEi
_ZN17ClarisWksDocument16typeMainZonesRecEiN15ClarisWksStruct4DSET8PositionEi.cold
_ZN17ClarisWksDocument18updatePageSpanListERSt6vectorI12MWAWPageSpanSaIS1_EE.constprop.0
_ZN17ClarisWksDocument18updatePageSpanListERSt6vectorI12MWAWPageSpanSaIS1_EE.constprop.0.cold
_ZN17ClarisWksDocument20exploreZonesGraphRecEiRSt3setIiSt4lessIiESaIiEE.isra.0
_ZN17ClarisWksDocument20exploreZonesGraphRecEiRSt3setIiSt4lessIiESaIiEE.isra.0.cold
_ZN17ClarisWksDocument20updateChildPositionsEv
_ZN17ClarisWksDocument20updateChildPositionsEv.cold
_ZN17ClarisWksDocument7newPageEib.constprop.0
_ZN17ClarisWksDocument8readDSETERb
_ZN17ClarisWksDocument8readDSETERb.cold
_ZN17ClarisWksDocument8readDSUMERK9MWAWEntryb
_ZN17ClarisWksDocument8readDSUMERK9MWAWEntryb.cold
_ZN17ClarisWksDocument8readZoneEv
_ZN17ClarisWksDocument8readZoneEv.cold
_ZN17ClarisWksDocument8sendZoneEiSt10shared_ptrI12MWAWListenerE12MWAWPosition
_ZN17ClarisWksDocument8sendZoneEiSt10shared_ptrI12MWAWListenerE12MWAWPosition.cold
_ZN17ClarisWksDocumentC1ER10MWAWParser
_ZN17ClarisWksDocumentC2ER10MWAWParser
_ZN17ClarisWksDocumentC2ER10MWAWParser.cold
_ZN17ClarisWksDocumentD1Ev
_ZN17ClarisWksDocumentD2Ev
_ZN17ClarisWksPRParser11checkHeaderEP10MWAWHeaderb
_ZN17ClarisWksPRParser5parseEPN10librevenge25RVNGPresentationInterfaceE
_ZN17ClarisWksPRParser5parseEPN10librevenge25RVNGPresentationInterfaceE.cold
_ZN17ClarisWksPRParserD0Ev
_ZN17ClarisWksPRParserD1Ev
_ZN17ClarisWksPRParserD2Ev
_ZN17ClarisWksSSParser11checkHeaderEP10MWAWHeaderb
_ZN17ClarisWksSSParser12sendFootnoteEi
_ZN17ClarisWksSSParser12sendFootnoteEi.cold
_ZN17ClarisWksSSParser5parseEPN10librevenge24RVNGSpreadsheetInterfaceE
_ZN17ClarisWksSSParser5parseEPN10librevenge24RVNGSpreadsheetInterfaceE.cold
_ZN17ClarisWksSSParserD0Ev
_ZN17ClarisWksSSParserD1Ev
_ZN17ClarisWksSSParserD2Ev
_ZN17CricketDrawParser11checkHeaderEP10MWAWHeaderb
_ZN17CricketDrawParser11checkHeaderEP10MWAWHeaderb.cold
_ZN17CricketDrawParser13readPrintInfoEv
_ZN17CricketDrawParser13readPrintInfoEv.cold
_ZN17CricketDrawParser4sendERKN25CricketDrawParserInternal5ShapeERK18MWAWTransformation.isra.0
_ZN17CricketDrawParser4sendERKN25CricketDrawParserInternal5ShapeERK18MWAWTransformation.isra.0.cold
_ZN17CricketDrawParser5parseEPN10librevenge20RVNGDrawingInterfaceE
_ZN17CricketDrawParser5parseEPN10librevenge20RVNGDrawingInterfaceE.cold
_ZN17CricketDrawParser7sendAllEv
_ZN17CricketDrawParser7sendAllEv.cold
_ZN17CricketDrawParser8sendTextEi.isra.0
_ZN17CricketDrawParser8sendTextEi.isra.0.cold
_ZN17CricketDrawParser9readShapeEv
_ZN17CricketDrawParser9readShapeEv.cold
_ZN17CricketDrawParserC1ERKSt10shared_ptrI15MWAWInputStreamERKS0_I14MWAWRSRCParserEP10MWAWHeader
_ZN17CricketDrawParserC2ERKSt10shared_ptrI15MWAWInputStreamERKS0_I14MWAWRSRCParserEP10MWAWHeader
_ZN17CricketDrawParserC2ERKSt10shared_ptrI15MWAWInputStreamERKS0_I14MWAWRSRCParserEP10MWAWHeader.cold
_ZN17CricketDrawParserD0Ev
_ZN17CricketDrawParserD1Ev
_ZN17CricketDrawParserD2Ev
_ZN17LightWayTxtParser11checkHeaderEP10MWAWHeaderb
_ZN17LightWayTxtParser11checkHeaderEP10MWAWHeaderb.cold
_ZN17LightWayTxtParser11createZonesEv
_ZN17LightWayTxtParser11createZonesEv.cold
_ZN17LightWayTxtParser14createDocumentEPN10librevenge17RVNGTextInterfaceE
_ZN17LightWayTxtParser14createDocumentEPN10librevenge17RVNGTextInterfaceE.cold
_ZN17LightWayTxtParser4initEv
_ZN17LightWayTxtParser4initEv.cold
_ZN17LightWayTxtParser5parseEPN10librevenge17RVNGTextInterfaceE
_ZN17LightWayTxtParser5parseEPN10librevenge17RVNGTextInterfaceE.cold
_ZN17LightWayTxtParser9rsrcInputEv
_ZN17LightWayTxtParserD0Ev
_ZN17LightWayTxtParserD1Ev
_ZN17LightWayTxtParserD2Ev
_ZN17MPEG2_MetaHandler10UpdateFileEb
_ZN17MPEG2_MetaHandler10UpdateFileEb.cold
_ZN17MPEG2_MetaHandler13CacheFileDataEv
_ZN17MPEG2_MetaHandler13CacheFileDataEv.cold
_ZN17MPEG2_MetaHandler13WriteTempFileEP6XMP_IO
_ZN17MPEG2_MetaHandler14GetFileModDateEP12XMP_DateTime
_ZN17MPEG2_MetaHandler18IsMetadataWritableEv
_ZN17MPEG2_MetaHandler23FillAssociatedResourcesEPSt6vectorINSt7__cxx1112basic_stringIcSt11char_traitsIcESaIcEEESaIS6_EE
_ZN17MPEG2_MetaHandlerD0Ev
_ZN17MPEG2_MetaHandlerD1Ev
_ZN17MPEG2_MetaHandlerD2Ev
_ZN17MPEG4_MetaHandler10ProcessXMPEv
_ZN17MPEG4_MetaHandler10ProcessXMPEv.cold
_ZN17MPEG4_MetaHandler10UpdateFileEb
_ZN17MPEG4_MetaHandler10UpdateFileEb.cold
_ZN17MPEG4_MetaHandler13CacheFileDataEv
_ZN17MPEG4_MetaHandler13CacheFileDataEv.cold
_ZN17MPEG4_MetaHandler13WriteTempFileEP6XMP_IO
_ZN17MPEG4_MetaHandler13WriteTempFileEP6XMP_IO.cold
_ZN17MPEG4_MetaHandler17UpdateTopLevelBoxEmjPKhj
_ZN17MPEG4_MetaHandler17UpdateTopLevelBoxEmjPKhj.cold
_ZN17MPEG4_MetaHandler18OptimizeFileLayoutEv
_ZN17MPEG4_MetaHandler18OptimizeFileLayoutEv.cold
_ZN17MPEG4_MetaHandlerD0Ev
_ZN17MPEG4_MetaHandlerD1Ev
_ZN17MPEG4_MetaHandlerD2Ev
_ZN17MWAWChartInternal11SubDocument5parseERSt10shared_ptrI12MWAWListenerEN7libmwaw15SubDocumentTypeE
_ZN17MWAWChartInternal11SubDocumentD0Ev
_ZN17MWAWChartInternal11SubDocumentD1Ev.lto_priv.0
_ZN17MWAWChartInternal11SubDocumentD2Ev.lto_priv.0
_ZN17MWAWFontConverter12getValidNameERKNSt7__cxx1112basic_stringIcSt11char_traitsIcESaIcEEE
_ZN17MWAWFontConverter12getValidNameERKNSt7__cxx1112basic_stringIcSt11char_traitsIcESaIcEEE.cold
_ZN17MWAWFontConverter17setCorrespondanceEiRKNSt7__cxx1112basic_stringIcSt11char_traitsIcESaIcEEES5_
_ZN17MWAWFontConverter17setCorrespondanceEiRKNSt7__cxx1112basic_stringIcSt11char_traitsIcESaIcEEES5_.cold
_ZN17MWAWGraphicParserD2Ev
_ZN17MsWrdTextInternal10TextStructD0Ev
_ZN17MsWrdTextInternal10TextStructD1Ev
_ZN17MsWrdTextInternal10TextStructD2Ev
_ZN17MsWrdTextInternal5StateD1Ev
_ZN17MsWrdTextInternal5StateD2Ev.lto_priv.0
_ZN17MsWrdTextInternal5TableD0Ev
_ZN17MsWrdTextInternal5TableD1Ev
_ZN17MsWrdTextInternal5TableD2Ev
_ZN17PSIR_MemoryReader10SetImgRsrcEtPKvj
_ZN17PSIR_MemoryReader13DeleteImgRsrcEt
_ZN17PSIR_MemoryReader14NotAppropriateEv
_ZN17PSIR_MemoryReader15IsLegacyChangedEv
_ZN17PSIR_MemoryReader18ParseFileResourcesEP6XMP_IOj
_ZN17PSIR_MemoryReader19UpdateFileResourcesEP6XMP_IOS1_PFbPvES2_P19XMP_ProgressTracker
_ZN17PSIR_MemoryReader20ParseMemoryResourcesEPKvjb
_ZN17PSIR_MemoryReader20ParseMemoryResourcesEPKvjb.cold
_ZN17PSIR_MemoryReader21UpdateMemoryResourcesEPPv
_ZN17PSIR_MemoryReader9IsChangedEv
_ZN17PSIR_MemoryReaderD0Ev
_ZN17PSIR_MemoryReaderD1Ev
_ZN17PSIR_MemoryReaderD2Ev
_ZN17PowerPoint1Parser11checkHeaderEP10MWAWHeaderb
_ZN17PowerPoint1Parser11checkHeaderEP10MWAWHeaderb.cold
_ZN17PowerPoint1Parser11createZonesEv
_ZN17PowerPoint1Parser11createZonesEv.cold
_ZN17PowerPoint1Parser11readDocInfoERK9MWAWEntry
_ZN17PowerPoint1Parser11readDocInfoERK9MWAWEntry.cold
_ZN17PowerPoint1Parser13readColorZoneERK9MWAWEntry.isra.0
_ZN17PowerPoint1Parser13readColorZoneERK9MWAWEntry.isra.0.cold
_ZN17PowerPoint1Parser5parseEPN10librevenge25RVNGPresentationInterfaceE
_ZN17PowerPoint1Parser5parseEPN10librevenge25RVNGPresentationInterfaceE.cold
_ZN17PowerPoint1Parser8sendTextERKN25PowerPoint1ParserInternal8TextZoneE8MWAWVec2IiEi
_ZN17PowerPoint1Parser8sendTextERKN25PowerPoint1ParserInternal8TextZoneE8MWAWVec2IiEi.cold
_ZN17PowerPoint1Parser9readFontsERK9MWAWEntry.isra.0
_ZN17PowerPoint1Parser9readFontsERK9MWAWEntry.isra.0.cold
_ZN17PowerPoint1Parser9readSlideERK9MWAWEntryRSt6vectorIiSaIiEE.isra.0
_ZN17PowerPoint1Parser9readSlideERK9MWAWEntryRSt6vectorIiSaIiEE.isra.0.cold
_ZN17PowerPoint1Parser9readZone2ERK9MWAWEntry.isra.0
_ZN17PowerPoint1Parser9readZone2ERK9MWAWEntry.isra.0.cold
_ZN17PowerPoint1Parser9sendFrameERKN25PowerPoint1ParserInternal5FrameERKNS0_8TextZoneE.isra.0
_ZN17PowerPoint1Parser9sendFrameERKN25PowerPoint1ParserInternal5FrameERKNS0_8TextZoneE.isra.0.cold
_ZN17PowerPoint1Parser9sendSlideERKN25PowerPoint1ParserInternal5SlideEb.isra.0
_ZN17PowerPoint1Parser9sendSlideERKN25PowerPoint1ParserInternal5SlideEb.isra.0.cold
_ZN17PowerPoint1ParserD0Ev
_ZN17PowerPoint1ParserD1Ev
_ZN17PowerPoint1ParserD2Ev
_ZN17PowerPoint3Parser10sendSlidesEv
_ZN17PowerPoint3Parser10sendSlidesEv.cold
_ZN17PowerPoint3Parser11checkHeaderEP10MWAWHeaderb
_ZN17PowerPoint3Parser11checkHeaderEP10MWAWHeaderb.cold
_ZN17PowerPoint3Parser11createZonesEv
_ZN17PowerPoint3Parser11createZonesEv.cold
_ZN17PowerPoint3Parser11readDocInfoERK9MWAWEntry
_ZN17PowerPoint3Parser11readDocInfoERK9MWAWEntry.cold
_ZN17PowerPoint3Parser12readTextZoneERK9MWAWEntryRN25PowerPoint3ParserInternal12SlideContentE.isra.0
_ZN17PowerPoint3Parser12readTextZoneERK9MWAWEntryRN25PowerPoint3ParserInternal12SlideContentE.isra.0.cold
_ZN17PowerPoint3Parser13readListZonesERi
_ZN17PowerPoint3Parser13readListZonesERi.cold
_ZN17PowerPoint3Parser13readParagraphER13MWAWParagraphRKN25PowerPoint3ParserInternal5RulerEi
_ZN17PowerPoint3Parser13readParagraphER13MWAWParagraphRKN25PowerPoint3ParserInternal5RulerEi.cold
_ZN17PowerPoint3Parser14readStructListERK9MWAWEntryRN25PowerPoint3ParserInternal11FieldParserE
_ZN17PowerPoint3Parser14readStructListERK9MWAWEntryRN25PowerPoint3ParserInternal11FieldParserE.cold
_ZN17PowerPoint3Parser15readPictureMainERK9MWAWEntry.isra.0
_ZN17PowerPoint3Parser15readPictureMainERK9MWAWEntry.isra.0.cold
_ZN17PowerPoint3Parser16readSlideContentERK9MWAWEntryRN25PowerPoint3ParserInternal12SlideContentE
_ZN17PowerPoint3Parser16readSlideContentERK9MWAWEntryRN25PowerPoint3ParserInternal12SlideContentE.cold
_ZN17PowerPoint3Parser5parseEPN10librevenge25RVNGPresentationInterfaceE
_ZN17PowerPoint3Parser5parseEPN10librevenge25RVNGPresentationInterfaceE.cold
_ZN17PowerPoint3Parser8readFontER8MWAWFonti
_ZN17PowerPoint3Parser8readFontER8MWAWFonti.cold
_ZN17PowerPoint3Parser8sendTextERKN25PowerPoint3ParserInternal12SlideContentEibb
_ZN17PowerPoint3Parser8sendTextERKN25PowerPoint3ParserInternal12SlideContentEibb.cold
_ZN17PowerPoint3Parser9readSlideERK9MWAWEntryRN25PowerPoint3ParserInternal5SlideEi.isra.0
_ZN17PowerPoint3Parser9readSlideERK9MWAWEntryRN25PowerPoint3ParserInternal5SlideEi.isra.0.cold
_ZN17PowerPoint3Parser9sendFrameERKN25PowerPoint3ParserInternal5FrameERKNS0_12SlideContentEbRSt3setIiSt4lessIiESaIiEE.isra.0
_ZN17PowerPoint3Parser9sendFrameERKN25PowerPoint3ParserInternal5FrameERKNS0_12SlideContentEbRSt3setIiSt4lessIiESaIiEE.isra.0.cold
_ZN17PowerPoint3Parser9sendSlideERKN25PowerPoint3ParserInternal12SlideContentEb.isra.0
_ZN17PowerPoint3Parser9sendSlideERKN25PowerPoint3ParserInternal12SlideContentEb.isra.0.cold
_ZN17PowerPoint3ParserD0Ev
_ZN17PowerPoint3ParserD1Ev
_ZN17PowerPoint3ParserD2Ev
_ZN17PowerPoint7Parser10readSlidesEilb.isra.0
_ZN17PowerPoint7Parser10readSlidesEilb.isra.0.cold
_ZN17PowerPoint7Parser10readStringEilRNSt7__cxx1112basic_stringIcSt11char_traitsIcESaIcEEERiRKS5_.isra.0
_ZN17PowerPoint7Parser10readStringEilRNSt7__cxx1112basic_stringIcSt11char_traitsIcESaIcEEERiRKS5_.isra.0.cold
_ZN17PowerPoint7Parser11checkHeaderEP10MWAWHeaderb
_ZN17PowerPoint7Parser11checkHeaderEP10MWAWHeaderb.cold
_ZN17PowerPoint7Parser11createZonesEv
_ZN17PowerPoint7Parser11createZonesEv.cold
_ZN17PowerPoint7Parser11readKinsokuEil.constprop.0
_ZN17PowerPoint7Parser11readKinsokuEil.constprop.0.cold
_ZN17PowerPoint7Parser12readZone3000Eil.isra.0
_ZN17PowerPoint7Parser12readZone3000Eil.isra.0.cold
_ZN17PowerPoint7Parser12readZone3012Eil.constprop.0
_ZN17PowerPoint7Parser12readZone3012Eil.constprop.0.cold
_ZN17PowerPoint7Parser13readColorListEilRSt6vectorI9MWAWColorSaIS1_EE.isra.0
_ZN17PowerPoint7Parser13readColorListEilRSt6vectorI9MWAWColorSaIS1_EE.isra.0.cold
_ZN17PowerPoint7Parser14readIdentifierEilRiRKNSt7__cxx1112basic_stringIcSt11char_traitsIcESaIcEEE.constprop.0
_ZN17PowerPoint7Parser14readIdentifierEilRiRKNSt7__cxx1112basic_stringIcSt11char_traitsIcESaIcEEE.constprop.0.cold
_ZN17PowerPoint7Parser14readZoneNoDataEilRKNSt7__cxx1112basic_stringIcSt11char_traitsIcESaIcEEES7_.isra.0
_ZN17PowerPoint7Parser14readZoneNoDataEilRKNSt7__cxx1112basic_stringIcSt11char_traitsIcESaIcEEES7_.isra.0.cold
_ZN17PowerPoint7Parser15readColorSchemeEilRSt6vectorI9MWAWColorSaIS1_EE.constprop.0.isra.0
_ZN17PowerPoint7Parser15readColorSchemeEilRSt6vectorI9MWAWColorSaIS1_EE.constprop.0.isra.0.cold
_ZN17PowerPoint7Parser15readEnvironmentEil.constprop.0
_ZN17PowerPoint7Parser15readEnvironmentEil.constprop.0.cold
_ZN17PowerPoint7Parser16readViewInfoAtomEil.isra.0
_ZN17PowerPoint7Parser16readViewInfoAtomEil.isra.0.cold
_ZN17PowerPoint7Parser17readContainerListEil.isra.0
_ZN17PowerPoint7Parser17readContainerListEil.isra.0.cold
_ZN17PowerPoint7Parser17readHeaderFootersEil.isra.0
_ZN17PowerPoint7Parser17readHeaderFootersEil.isra.0.cold
_ZN17PowerPoint7Parser20readSlideInformationEil.isra.0
_ZN17PowerPoint7Parser20readSlideInformationEil.isra.0.cold
_ZN17PowerPoint7Parser21readStyleTextPropAtomEilRi.isra.0
_ZN17PowerPoint7Parser21readStyleTextPropAtomEilRi.isra.0.cold
_ZN17PowerPoint7Parser25readOutlineTextProps9AtomEilRiRN17PowerPoint7Struct7SlideIdE.constprop.0.isra.0
_ZN17PowerPoint7Parser25readOutlineTextProps9AtomEilRiRN17PowerPoint7Struct7SlideIdE.constprop.0.isra.0.cold
_ZN17PowerPoint7Parser5parseEPN10librevenge25RVNGPresentationInterfaceE
_ZN17PowerPoint7Parser5parseEPN10librevenge25RVNGPresentationInterfaceE.cold
_ZN17PowerPoint7Parser8readZoneEil.isra.0
_ZN17PowerPoint7Parser8readZoneEil.isra.0.cold
_ZN17PowerPoint7Parser9readNotesEil.isra.0
_ZN17PowerPoint7Parser9readNotesEil.isra.0.cold
_ZN17PowerPoint7ParserD0Ev
_ZN17PowerPoint7ParserD1Ev
_ZN17PowerPoint7ParserD2Ev
_ZN17PowerPoint7Struct4Zone4readESt10shared_ptrI15MWAWInputStreamEl
_ZN17SpringBoardParser11checkHeaderEP10MWAWHeaderb
_ZN17SpringBoardParser11checkHeaderEP10MWAWHeaderb.cold
_ZN17SpringBoardParser11createZonesEv
_ZN17SpringBoardParser11createZonesEv.cold
_ZN17SpringBoardParser13parseDataListEiRK9MWAWEntry.isra.0
_ZN17SpringBoardParser13parseDataListEiRK9MWAWEntry.isra.0.cold
_ZN17SpringBoardParser13sendTextShapeERKSt4pairIiiEii.isra.0
_ZN17SpringBoardParser13sendTextShapeERKSt4pairIiiEii.isra.0.cold
_ZN17SpringBoardParser14createDocumentEPN10librevenge20RVNGDrawingInterfaceE
_ZN17SpringBoardParser14createDocumentEPN10librevenge20RVNGDrawingInterfaceE.cold
_ZN17SpringBoardParser16sendHeaderFooterEi.isra.0
_ZN17SpringBoardParser16sendHeaderFooterEi.isra.0.cold
_ZN17SpringBoardParser5parseEPN10librevenge20RVNGDrawingInterfaceE
_ZN17SpringBoardParser5parseEPN10librevenge20RVNGDrawingInterfaceE.cold
_ZN17SpringBoardParser8readFontER8MWAWFonti.isra.0
_ZN17SpringBoardParser8readFontER8MWAWFonti.isra.0.cold
_ZN17SpringBoardParser9sendFrameERKSt4pairIiiE
_ZN17SpringBoardParser9sendFrameERKSt4pairIiiE.cold
_ZN17SpringBoardParserD0Ev
_ZN17SpringBoardParserD1Ev
_ZN17SpringBoardParserD2Ev
_ZN17TIFF_MemoryReader13ProcessOneIFDEjhb
_ZN17TIFF_MemoryReader13ProcessOneIFDEjhb.cold
_ZN17TIFF_MemoryReader14NotAppropriateEv
_ZN17TIFF_MemoryReader15IsLegacyChangedEv
_ZN17TIFF_MemoryReader15ParseFileStreamEP6XMP_IO
_ZN17TIFF_MemoryReader16UpdateFileStreamEP6XMP_IOP19XMP_ProgressTracker
_ZN17TIFF_MemoryReader17ParseMemoryStreamEPKvjbb
_ZN17TIFF_MemoryReader17ParseMemoryStreamEPKvjbb.cold
_ZN17TIFF_MemoryReader18UpdateMemoryStreamEPPvb
_ZN17TIFF_MemoryReader19IntegrateFromPShop6EPKvm
_ZN17TIFF_MemoryReader20SetTag_EncodedStringEhtRKNSt7__cxx1112basic_stringIcSt11char_traitsIcESaIcEEEh
_ZN17TIFF_MemoryReader6SetTagEhttjPKv
_ZN17TIFF_MemoryReader9DeleteTagEht
_ZN17TIFF_MemoryReader9IsChangedEv
_ZN17TIFF_MemoryReaderD0Ev
_ZN17TIFF_MemoryReaderD1Ev
_ZN17TIFF_MemoryReaderD2Ev
_ZN17VSDInternalStream12isStructuredEv
_ZN17VSDInternalStream13subStreamNameEj
_ZN17VSDInternalStream14subStreamCountEv
_ZN17VSDInternalStream15existsSubStreamEPKc
_ZN17VSDInternalStream16getSubStreamByIdEj
_ZN17VSDInternalStream18getSubStreamByNameEPKc
_ZN17VSDInternalStream4readEmRm
_ZN17VSDInternalStream4seekElN10librevenge14RVNG_SEEK_TYPEE
_ZN17VSDInternalStream4tellEv
_ZN17VSDInternalStream5isEndEv
_ZN17VSDInternalStreamC1EPN10librevenge15RVNGInputStreamEmb
_ZN17VSDInternalStreamC2EPN10librevenge15RVNGInputStreamEmb
_ZN17VSDInternalStreamC2EPN10librevenge15RVNGInputStreamEmb.cold
_ZN17VSDInternalStreamD0Ev
_ZN17VSDInternalStreamD1Ev
_ZN17VSDInternalStreamD2Ev
_ZN17XDCAM_MetaHandler10ProcessXMPEv
_ZN17XDCAM_MetaHandler10ProcessXMPEv.cold
_ZN17XDCAM_MetaHandler10UpdateFileEb
_ZN17XDCAM_MetaHandler10UpdateFileEb.cold
_ZN17XDCAM_MetaHandler11GetClipUmidERNSt7__cxx1112basic_stringIcSt11char_traitsIcESaIcEEE
_ZN17XDCAM_MetaHandler11readXMLFileEPKcRP12ExpatAdapter
_ZN17XDCAM_MetaHandler11readXMLFileEPKcRP12ExpatAdapter.cold
_ZN17XDCAM_MetaHandler13CacheFileDataEv
_ZN17XDCAM_MetaHandler13CacheFileDataEv.cold
_ZN17XDCAM_MetaHandler13WriteTempFileEP6XMP_IO
_ZN17XDCAM_MetaHandler14GetFileModDateEP12XMP_DateTime
_ZN17XDCAM_MetaHandler14GetFileModDateEP12XMP_DateTime.cold
_ZN17XDCAM_MetaHandler14RefersClipUmidENSt7__cxx1112basic_stringIcSt11char_traitsIcESaIcEEEPKc
_ZN17XDCAM_MetaHandler14RefersClipUmidENSt7__cxx1112basic_stringIcSt11char_traitsIcESaIcEEEPKc.cold
_ZN17XDCAM_MetaHandler16MakeClipFilePathEPNSt7__cxx1112basic_stringIcSt11char_traitsIcESaIcEEEPKcb
_ZN17XDCAM_MetaHandler16MakeLegacyDigestEPNSt7__cxx1112basic_stringIcSt11char_traitsIcESaIcEEE
_ZN17XDCAM_MetaHandler16SetPathVariablesERKNSt7__cxx1112basic_stringIcSt11char_traitsIcESaIcEEE
_ZN17XDCAM_MetaHandler17FillMetadataFilesEPSt6vectorINSt7__cxx1112basic_stringIcSt11char_traitsIcESaIcEEESaIS6_EE
_ZN17XDCAM_MetaHandler18IsMetadataWritableEv
_ZN17XDCAM_MetaHandler18IsMetadataWritableEv.cold
_ZN17XDCAM_MetaHandler19GetMediaProMetadataEP8TXMPMetaINSt7__cxx1112basic_stringIcSt11char_traitsIcESaIcEEEERKS6_b
_ZN17XDCAM_MetaHandler19GetSerializeOptionsEv
_ZN17XDCAM_MetaHandler23FillAssociatedResourcesEPSt6vectorINSt7__cxx1112basic_stringIcSt11char_traitsIcESaIcEEESaIS6_EE
_ZN17XDCAM_MetaHandlerD0Ev
_ZN17XDCAM_MetaHandlerD1Ev
_ZN17XDCAM_MetaHandlerD2Ev
_ZN17XMP_HomeGrownLockC1Ev
_ZN17XMP_HomeGrownLockC2Ev
_ZN17XMP_HomeGrownLockC2Ev.cold
_ZN17XMP_HomeGrownLockD1Ev
_ZN17XMP_HomeGrownLockD2Ev
_ZN17XMP_ReadWriteLock7AcquireEb
_ZN17XMP_ReadWriteLock7AcquireEb.cold
_ZN17XMP_ReadWriteLock7ReleaseEv
_ZN17XMP_ReadWriteLock7ReleaseEv.cold
_ZN17XMP_ReadWriteLockD1Ev
_ZN17XMP_ReadWriteLockD2Ev
_ZN17memcached_pool_st5fetchERK8timespecR18memcached_return_t
_ZN17memcached_pool_st7releaseEP12memcached_stR18memcached_return_t.isra.0
_ZN17memcached_pool_stD1Ev
_ZN17memcached_pool_stD2Ev
_ZN18ActaParserInternal11SubDocument5parseERSt10shared_ptrI12MWAWListenerEN7libmwaw15SubDocumentTypeE
_ZN18ActaParserInternal11SubDocumentD0Ev
_ZN18ActaParserInternal11SubDocumentD1Ev
_ZN18ActaParserInternal11SubDocumentD2Ev
_ZN18ActaParserInternal5StateD1Ev
_ZN18ActaParserInternal5StateD2Ev
_ZN18CanvasStyleManager10readColorsEi
_ZN18CanvasStyleManager10readColorsEi.cold
_ZN18CanvasStyleManager10readDashesEib
_ZN18CanvasStyleManager10readDashesEib.cold
_ZN18CanvasStyleManager12readGradientERK9MWAWEntryRN16MWAWGraphicStyle8GradientE
_ZN18CanvasStyleManager12readGradientERK9MWAWEntryRN16MWAWGraphicStyle8GradientE.cold
_ZN18CanvasStyleManager12readPatternsEi
_ZN18CanvasStyleManager12readPatternsEi.cold
_ZN18CanvasStyleManager9readArrowERN16MWAWGraphicStyle5ArrowERNSt7__cxx1112basic_stringIcSt11char_traitsIcESaIcEEE.constprop.0.isra.0
_ZN18CanvasStyleManager9readArrowERN16MWAWGraphicStyle5ArrowERNSt7__cxx1112basic_stringIcSt11char_traitsIcESaIcEEE.constprop.0.isra.0.cold
_ZN18CanvasStyleManagerD0Ev
_ZN18CanvasStyleManagerD1Ev
_ZN18CanvasStyleManagerD2Ev
_ZN18CorelPainterParser10readDoubleERd
_ZN18CorelPainterParser10readDoubleERd.cold
_ZN18CorelPainterParser10sendBitmapERKN26CorelPainterParserInternal10ZoneHeaderE
_ZN18CorelPainterParser10sendBitmapERKN26CorelPainterParserInternal10ZoneHeaderE.cold
_ZN18CorelPainterParser11checkHeaderEP10MWAWHeaderb
_ZN18CorelPainterParser11checkHeaderEP10MWAWHeaderb.cold
_ZN18CorelPainterParser11createZonesEv
_ZN18CorelPainterParser11createZonesEv.cold
_ZN18CorelPainterParser14readZoneHeaderERN26CorelPainterParserInternal10ZoneHeaderE
_ZN18CorelPainterParser14readZoneHeaderERN26CorelPainterParserInternal10ZoneHeaderE.cold
_ZN18CorelPainterParser5parseEPN10librevenge20RVNGDrawingInterfaceE
_ZN18CorelPainterParser5parseEPN10librevenge20RVNGDrawingInterfaceE.cold
_ZN18CorelPainterParser8sendTextERK9MWAWEntryS2_.isra.0
_ZN18CorelPainterParser8sendTextERK9MWAWEntryS2_.isra.0.cold
_ZN18CorelPainterParser8sendZoneERKN26CorelPainterParserInternal10ZoneHeaderE
_ZN18CorelPainterParser8sendZoneERKN26CorelPainterParserInternal10ZoneHeaderE.cold
_ZN18CorelPainterParserD0Ev
_ZN18CorelPainterParserD1Ev
_ZN18CorelPainterParserD2Ev
_ZN18DocMkrTextInternal11SubDocument5parseERSt10shared_ptrI12MWAWListenerEN7libmwaw15SubDocumentTypeE
_ZN18DocMkrTextInternal11SubDocument5parseERSt10shared_ptrI12MWAWListenerEN7libmwaw15SubDocumentTypeE.cold
_ZN18DocMkrTextInternal11SubDocumentD0Ev
_ZN18DocMkrTextInternal11SubDocumentD1Ev
_ZN18DocMkrTextInternal11SubDocumentD2Ev.lto_priv.0
_ZN18DocMkrTextInternal4ZoneD1Ev
_ZN18DocMkrTextInternal4ZoneD2Ev.lto_priv.0
_ZN18DocMkrTextInternal5State7getZoneEi
_ZN18DocMkrTextInternal5State7getZoneEi.cold
_ZN18EDocParserInternal13DeflateStruct12treatDelayedEh.isra.0
_ZN18MWAWEmbeddedObject3addERKN10librevenge14RVNGBinaryDataERKNSt7__cxx1112basic_stringIcSt11char_traitsIcESaIcEEE
_ZN18MWAWEmbeddedObjectC1ERKN10librevenge14RVNGBinaryDataERKNSt7__cxx1112basic_stringIcSt11char_traitsIcESaIcEEE
_ZN18MWAWEmbeddedObjectC1ERKS_
_ZN18MWAWEmbeddedObjectC2ERKN10librevenge14RVNGBinaryDataERKNSt7__cxx1112basic_stringIcSt11char_traitsIcESaIcEEE.lto_priv.0
_ZN18MWAWEmbeddedObjectC2ERKN10librevenge14RVNGBinaryDataERKNSt7__cxx1112basic_stringIcSt11char_traitsIcESaIcEEE.lto_priv.0.cold
_ZN18MWAWEmbeddedObjectC2ERKS_.lto_priv.0
_ZN18MWAWEmbeddedObjectC2ERKS_.lto_priv.0.cold
_ZN18MWAWEmbeddedObjectD1Ev
_ZN18MWAWEmbeddedObjectD2Ev
_ZN18MWAWEmbeddedObjectaSEOS_.constprop.0
_ZN18MWAWGraphicDecoder10charactersERKN10librevenge10RVNGStringE
_ZN18MWAWGraphicDecoder13insertElementEPKc
_ZN18MWAWGraphicDecoder13insertElementEPKcRKN10librevenge16RVNGPropertyListE
_ZN18MWAWGraphicDecoderD0Ev
_ZN18MWAWGraphicDecoderD1Ev.lto_priv.0
_ZN18MWAWGraphicDecoderD2Ev.lto_priv.0
_ZN18MWAWGraphicEncoder10closeGroupEv
_ZN18MWAWGraphicEncoder10insertTextERKN10librevenge10RVNGStringE
_ZN18MWAWGraphicEncoder10startLayerERKN10librevenge16RVNGPropertyListE
_ZN18MWAWGraphicEncoder11drawEllipseERKN10librevenge16RVNGPropertyListE
_ZN18MWAWGraphicEncoder11drawPolygonERKN10librevenge16RVNGPropertyListE
_ZN18MWAWGraphicEncoder11endDocumentEv
_ZN18MWAWGraphicEncoder11insertFieldERKN10librevenge16RVNGPropertyListE
_ZN18MWAWGraphicEncoder11insertSpaceEv
_ZN18MWAWGraphicEncoder12drawPolylineERKN10librevenge16RVNGPropertyListE
_ZN18MWAWGraphicEncoder12openTableRowERKN10librevenge16RVNGPropertyListE
_ZN18MWAWGraphicEncoder13closeTableRowEv
_ZN18MWAWGraphicEncoder13drawConnectorERKN10librevenge16RVNGPropertyListE
_ZN18MWAWGraphicEncoder13drawRectangleERKN10librevenge16RVNGPropertyListE
_ZN18MWAWGraphicEncoder13endMasterPageEv
_ZN18MWAWGraphicEncoder13endTextObjectEv
_ZN18MWAWGraphicEncoder13openParagraphERKN10librevenge16RVNGPropertyListE
_ZN18MWAWGraphicEncoder13openTableCellERKN10librevenge16RVNGPropertyListE
_ZN18MWAWGraphicEncoder13startDocumentERKN10librevenge16RVNGPropertyListE
_ZN18MWAWGraphicEncoder14closeParagraphEv
_ZN18MWAWGraphicEncoder14closeTableCellEv
_ZN18MWAWGraphicEncoder14endTableObjectEv
_ZN18MWAWGraphicEncoder15getBinaryResultER18MWAWEmbeddedObject.constprop.0
_ZN18MWAWGraphicEncoder15getBinaryResultER18MWAWEmbeddedObject.constprop.0.cold
_ZN18MWAWGraphicEncoder15insertLineBreakEv
_ZN18MWAWGraphicEncoder15openListElementERKN10librevenge16RVNGPropertyListE
_ZN18MWAWGraphicEncoder15startMasterPageERKN10librevenge16RVNGPropertyListE
_ZN18MWAWGraphicEncoder15startTextObjectERKN10librevenge16RVNGPropertyListE
_ZN18MWAWGraphicEncoder16closeListElementEv
_ZN18MWAWGraphicEncoder16startTableObjectERKN10librevenge16RVNGPropertyListE
_ZN18MWAWGraphicEncoder17drawGraphicObjectERKN10librevenge16RVNGPropertyListE
_ZN18MWAWGraphicEncoder18defineEmbeddedFontERKN10librevenge16RVNGPropertyListE
_ZN18MWAWGraphicEncoder19endEmbeddedGraphicsEv
_ZN18MWAWGraphicEncoder19setDocumentMetaDataERKN10librevenge16RVNGPropertyListE
_ZN18MWAWGraphicEncoder20defineCharacterStyleERKN10librevenge16RVNGPropertyListE
_ZN18MWAWGraphicEncoder20defineParagraphStyleERKN10librevenge16RVNGPropertyListE
_ZN18MWAWGraphicEncoder20openOrderedListLevelERKN10librevenge16RVNGPropertyListE
_ZN18MWAWGraphicEncoder21closeOrderedListLevelEv
_ZN18MWAWGraphicEncoder21startEmbeddedGraphicsERKN10librevenge16RVNGPropertyListE
_ZN18MWAWGraphicEncoder22insertCoveredTableCellERKN10librevenge16RVNGPropertyListE
_ZN18MWAWGraphicEncoder22openUnorderedListLevelERKN10librevenge16RVNGPropertyListE
_ZN18MWAWGraphicEncoder23closeUnorderedListLevelEv
_ZN18MWAWGraphicEncoder7endPageEv
_ZN18MWAWGraphicEncoder8drawPathERKN10librevenge16RVNGPropertyListE
_ZN18MWAWGraphicEncoder8endLayerEv
_ZN18MWAWGraphicEncoder8openLinkERKN10librevenge16RVNGPropertyListE
_ZN18MWAWGraphicEncoder8openSpanERKN10librevenge16RVNGPropertyListE
_ZN18MWAWGraphicEncoder8setStyleERKN10librevenge16RVNGPropertyListE
_ZN18MWAWGraphicEncoder9closeLinkEv
_ZN18MWAWGraphicEncoder9closeSpanEv
_ZN18MWAWGraphicEncoder9insertTabEv
_ZN18MWAWGraphicEncoder9openGroupERKN10librevenge16RVNGPropertyListE
_ZN18MWAWGraphicEncoder9startPageERKN10librevenge16RVNGPropertyListE
_ZN18MWAWGraphicEncoderC1Ev
_ZN18MWAWGraphicEncoderC2Ev
_ZN18MWAWGraphicEncoderC2Ev.cold
_ZN18MWAWGraphicEncoderD0Ev
_ZN18MWAWGraphicEncoderD1Ev
_ZN18MWAWGraphicEncoderD2Ev
_ZN18MWAWTransformation8rotationEfRK8MWAWVec2IfE.isra.0
_ZN18MsWks3TextInternal11SubDocument5parseERSt10shared_ptrI12MWAWListenerEN7libmwaw15SubDocumentTypeE
_ZN18MsWks3TextInternal11SubDocument5parseERSt10shared_ptrI12MWAWListenerEN7libmwaw15SubDocumentTypeE.cold
_ZN18MsWks3TextInternal11SubDocumentD0Ev
_ZN18MsWks3TextInternal11SubDocumentD1Ev
_ZN18MsWks3TextInternal11SubDocumentD2Ev
_ZN18MsWks3TextInternal4FontD1Ev
_ZN18MsWks3TextInternal8TextZoneD1Ev
_ZN18MsWks3TextInternal8TextZoneD2Ev.lto_priv.0
_ZN18MsWks4TextInternal4FontD1Ev
_ZN18MsWks4TextInternal4FontD2Ev.lto_priv.0
_ZN18MsWks4TextInternal5StateD1Ev
_ZN18MsWks4TextInternal5StateD2Ev.lto_priv.0
_ZN18MsWks4TextInternal9ParagraphD0Ev
_ZN18MsWks4TextInternal9ParagraphD1Ev
_ZN18MsWks4TextInternal9ParagraphD2Ev
_ZN18MsWks4ZoneInternal5FrameD1Ev
_ZN18MsWks4ZoneInternal5FrameD2Ev.lto_priv.0
_ZN18MsWksGraphInternal10BasicShapeD0Ev
_ZN18MsWksGraphInternal10BasicShapeD1Ev
_ZN18MsWksGraphInternal10BasicShapeD2Ev
_ZN18MsWksGraphInternal10DataBitmapD0Ev
_ZN18MsWksGraphInternal10DataBitmapD1Ev
_ZN18MsWksGraphInternal10DataBitmapD2Ev
_ZN18MsWksGraphInternal11SubDocument5parseERSt10shared_ptrI12MWAWListenerEN7libmwaw15SubDocumentTypeE
_ZN18MsWksGraphInternal11SubDocument5parseERSt10shared_ptrI12MWAWListenerEN7libmwaw15SubDocumentTypeE.cold
_ZN18MsWksGraphInternal11SubDocumentC1ER10MsWksGraphRKSt10shared_ptrI15MWAWInputStreamENS0_4TypeEi
_ZN18MsWksGraphInternal11SubDocumentC2ER10MsWksGraphRKSt10shared_ptrI15MWAWInputStreamENS0_4TypeEi.lto_priv.0
_ZN18MsWksGraphInternal11SubDocumentC2ER10MsWksGraphRKSt10shared_ptrI15MWAWInputStreamENS0_4TypeEi.lto_priv.0.cold
_ZN18MsWksGraphInternal11SubDocumentD0Ev
_ZN18MsWksGraphInternal11SubDocumentD1Ev
_ZN18MsWksGraphInternal11SubDocumentD2Ev.lto_priv.0
_ZN18MsWksGraphInternal4ZoneC1ERKS0_
_ZN18MsWksGraphInternal4ZoneC1Ev
_ZN18MsWksGraphInternal4ZoneC2ERKS0_.lto_priv.0
_ZN18MsWksGraphInternal4ZoneC2ERKS0_.lto_priv.0.cold
_ZN18MsWksGraphInternal4ZoneC2Ev.lto_priv.0
_ZN18MsWksGraphInternal4ZoneC2Ev.lto_priv.0.cold
_ZN18MsWksGraphInternal4ZoneD0Ev
_ZN18MsWksGraphInternal4ZoneD1Ev.lto_priv.0
_ZN18MsWksGraphInternal4ZoneD2Ev.lto_priv.0
_ZN18MsWksGraphInternal5ChartD0Ev
_ZN18MsWksGraphInternal5ChartD1Ev
_ZN18MsWksGraphInternal5ChartD2Ev
_ZN18MsWksGraphInternal5State10getPatternERN16MWAWGraphicStyle7PatternEil
_ZN18MsWksGraphInternal5State11initPatternEi
_ZN18MsWksGraphInternal5State11initPatternEi.cold
_ZN18MsWksGraphInternal5State17getPatternPercentEil
_ZN18MsWksGraphInternal5TableD0Ev
_ZN18MsWksGraphInternal5TableD1Ev
_ZN18MsWksGraphInternal5TableD2Ev
_ZN18MsWksGraphInternal7OLEZoneD0Ev
_ZN18MsWksGraphInternal7OLEZoneD1Ev
_ZN18MsWksGraphInternal7OLEZoneD2Ev
_ZN18MsWksGraphInternal7TextBoxD0Ev
_ZN18MsWksGraphInternal7TextBoxD1Ev
_ZN18MsWksGraphInternal7TextBoxD2Ev
_ZN18MsWksGraphInternal8DataPictD0Ev
_ZN18MsWksGraphInternal8DataPictD1Ev.lto_priv.0
_ZN18MsWksGraphInternal8DataPictD2Ev.lto_priv.0
_ZN18MsWksGraphInternal9GroupZoneD0Ev
_ZN18MsWksGraphInternal9GroupZoneD1Ev
_ZN18MsWksGraphInternal9GroupZoneD2Ev
_ZN18MsWksGraphInternal9TextBoxv4D0Ev
_ZN18MsWksGraphInternal9TextBoxv4D1Ev
_ZN18MsWksGraphInternal9TextBoxv4D2Ev
_ZN18MsWksTableInternal5Table4CellD1Ev
_ZN18MsWksTableInternal5Table4CellD2Ev.lto_priv.0
_ZN18PostScript_Support13ConvertToDateB5cxx11EPKc
_ZN18PostScript_Support13ConvertToDateB5cxx11EPKc.cold
_ZN18PostScript_Support13IsValidPSFileEP6XMP_IORj
_ZN18PostScript_Support13IsValidPSFileEP6XMP_IORj.cold
_ZN18PostScript_Support15IsSFDFilterUsedERP6XMP_IOl
_ZN18PostScript_Support15IsSFDFilterUsedERP6XMP_IOl.cold
_ZN18PostScript_Support16SkipUntilNewlineEP6XMP_IOR8IOBuffer
_ZN18PostScript_Support17RevCheckFileSpaceEP6XMP_IOP8IOBufferm
_ZN18PostScript_Support17RevCheckFileSpaceEP6XMP_IOP8IOBufferm.cold
_ZN18PostScript_Support17SkipTabsAndSpacesEP6XMP_IOR8IOBuffer
_ZN18RagTimeSpreadsheet11readFormulaERK8MWAWVec2IiERSt6vectorIN15MWAWCellContent18FormulaInstructionESaIS6_EElRNSt7__cxx1112basic_stringIcSt11char_traitsIcESaIcEEE
_ZN18RagTimeSpreadsheet11readFormulaERK8MWAWVec2IiERSt6vectorIN15MWAWCellContent18FormulaInstructionESaIS6_EElRNSt7__cxx1112basic_stringIcSt11char_traitsIcESaIcEEE.cold
_ZN18RagTimeSpreadsheet12readResourceER9MWAWEntry.isra.0
_ZN18RagTimeSpreadsheet12readResourceER9MWAWEntry.isra.0.cold
_ZN18RagTimeSpreadsheet13readFormulaV2ERK8MWAWVec2IiERSt6vectorIN15MWAWCellContent18FormulaInstructionESaIS6_EElRNSt7__cxx1112basic_stringIcSt11char_traitsIcESaIcEEE
_ZN18RagTimeSpreadsheet13readFormulaV2ERK8MWAWVec2IiERSt6vectorIN15MWAWCellContent18FormulaInstructionESaIS6_EElRNSt7__cxx1112basic_stringIcSt11char_traitsIcESaIcEEE.cold
_ZN18RagTimeSpreadsheet15readSpreadsheetER9MWAWEntry.isra.0
_ZN18RagTimeSpreadsheet15readSpreadsheetER9MWAWEntry.isra.0.cold
_ZN18RagTimeSpreadsheet17readCellInFormulaERK8MWAWVec2IiEbRN15MWAWCellContent18FormulaInstructionElRNSt7__cxx1112basic_stringIcSt11char_traitsIcESaIcEEE
_ZN18RagTimeSpreadsheet17readCellInFormulaERK8MWAWVec2IiEbRN15MWAWCellContent18FormulaInstructionElRNSt7__cxx1112basic_stringIcSt11char_traitsIcESaIcEEE.cold
_ZN18RagTimeSpreadsheet17readNumericFormatER9MWAWEntry.isra.0
_ZN18RagTimeSpreadsheet17readNumericFormatER9MWAWEntry.isra.0.cold
_ZN18RagTimeSpreadsheet17readSpreadsheetV2ER9MWAWEntry.isra.0
_ZN18RagTimeSpreadsheet17readSpreadsheetV2ER9MWAWEntry.isra.0.cold
_ZN18RagTimeSpreadsheet19readCellInFormulaV2ERK8MWAWVec2IiEbRN15MWAWCellContent18FormulaInstructionElRNSt7__cxx1112basic_stringIcSt11char_traitsIcESaIcEEE
_ZN18RagTimeSpreadsheet19readCellInFormulaV2ERK8MWAWVec2IiEbRN15MWAWCellContent18FormulaInstructionElRNSt7__cxx1112basic_stringIcSt11char_traitsIcESaIcEEE.cold
_ZN18RagTimeSpreadsheetD0Ev
_ZN18RagTimeSpreadsheetD1Ev
_ZN18RagTimeSpreadsheetD2Ev
_ZN18ScriptWriterParser11checkHeaderEP10MWAWHeaderb
_ZN18ScriptWriterParser11checkHeaderEP10MWAWHeaderb.cold
_ZN18ScriptWriterParser11createZonesEv
_ZN18ScriptWriterParser11createZonesEv.cold
_ZN18ScriptWriterParser12sendMainZoneEv
_ZN18ScriptWriterParser12sendMainZoneEv.cold
_ZN18ScriptWriterParser13readPrintInfoEv
_ZN18ScriptWriterParser13readPrintInfoEv.cold
_ZN18ScriptWriterParser14createDocumentEPN10librevenge17RVNGTextInterfaceE
_ZN18ScriptWriterParser14createDocumentEPN10librevenge17RVNGTextInterfaceE.cold
_ZN18ScriptWriterParser4sendERKN26ScriptWriterParserInternal6HFDataE
_ZN18ScriptWriterParser4sendERKN26ScriptWriterParserInternal6HFDataE.cold
_ZN18ScriptWriterParser5parseEPN10librevenge17RVNGTextInterfaceE
_ZN18ScriptWriterParser5parseEPN10librevenge17RVNGTextInterfaceE.cold
_ZN18ScriptWriterParser8readFontER8MWAWFont
_ZN18ScriptWriterParser8readFontER8MWAWFont.cold
_ZN18ScriptWriterParser9readFrameERN26ScriptWriterParserInternal5FrameE
_ZN18ScriptWriterParser9readFrameERN26ScriptWriterParserInternal5FrameE.cold
_ZN18ScriptWriterParserC1ERKSt10shared_ptrI15MWAWInputStreamERKS0_I14MWAWRSRCParserEP10MWAWHeader
_ZN18ScriptWriterParserC2ERKSt10shared_ptrI15MWAWInputStreamERKS0_I14MWAWRSRCParserEP10MWAWHeader
_ZN18ScriptWriterParserC2ERKSt10shared_ptrI15MWAWInputStreamERKS0_I14MWAWRSRCParserEP10MWAWHeader.cold
_ZN18ScriptWriterParserD0Ev
_ZN18ScriptWriterParserD1Ev
_ZN18ScriptWriterParserD2Ev
_ZN18WingzGraphInternal11SubDocument5parseERSt10shared_ptrI12MWAWListenerEN7libmwaw15SubDocumentTypeE
_ZN18WingzGraphInternal11SubDocument5parseERSt10shared_ptrI12MWAWListenerEN7libmwaw15SubDocumentTypeE.cold
_ZN18WingzGraphInternal11SubDocumentD0Ev
_ZN18WingzGraphInternal11SubDocumentD1Ev
_ZN18WingzGraphInternal11SubDocumentD2Ev
_ZN18XMP_NamespaceTable6DefineEPKcS1_PS1_Pj
_ZN18XMP_NamespaceTable6DefineEPKcS1_PS1_Pj.cold
_ZN18XMP_NamespaceTableD0Ev
_ZN18XMP_NamespaceTableD1Ev.lto_priv.0
_ZN18XMP_NamespaceTableD2Ev.lto_priv.0
_ZN18ZWrtParserInternal11SubDocument5parseERSt10shared_ptrI12MWAWListenerEN7libmwaw15SubDocumentTypeE
_ZN18ZWrtParserInternal11SubDocument5parseERSt10shared_ptrI12MWAWListenerEN7libmwaw15SubDocumentTypeE.cold
_ZN18ZWrtParserInternal11SubDocumentD0Ev
_ZN18ZWrtParserInternal11SubDocumentD1Ev
_ZN18ZWrtParserInternal11SubDocumentD2Ev
_ZN18libmwaw_applepict110PictParserC1Ev
_ZN18libmwaw_applepict110PictParserC2Ev.lto_priv.0
_ZN18libmwaw_applepict110PictParserC2Ev.lto_priv.0.cold
_ZN18libmwaw_applepict16OpCodeC2EiPKcNS_8DataTypeES3_S3_S3_S3_.constprop.0
_ZN18libmwaw_applepict16OpCodeC2EiPKcNS_8DataTypeES3_S3_S3_S3_.constprop.0.cold
_ZN18libmwaw_applepict16OpCodeD0Ev
_ZN18libmwaw_applepict16OpCodeD1Ev
_ZN18libmwaw_applepict16OpCodeD2Ev
_ZN19Canvas5StyleManager10readSymbolESt10shared_ptrIN16Canvas5Structure6StreamEElR12MWAWVariableI9MWAWColorE
_ZN19Canvas5StyleManager10readSymbolESt10shared_ptrIN16Canvas5Structure6StreamEElR12MWAWVariableI9MWAWColorE.cold
_ZN19Canvas5StyleManager10updateLineERKN27Canvas5StyleManagerInternal8PenStyleER16MWAWGraphicStyleRiiPf.isra.0
_ZN19Canvas5StyleManager12readPenStyleERN16Canvas5Structure6StreamEjl
_ZN19Canvas5StyleManager12readPenStyleERN16Canvas5Structure6StreamEjl.cold
_ZN19Canvas5StyleManager12readStyleEndESt10shared_ptrIN16Canvas5Structure6StreamEEP8MWAWFontP13MWAWParagraph
_ZN19Canvas5StyleManager12readStyleEndESt10shared_ptrIN16Canvas5Structure6StreamEEP8MWAWFontP13MWAWParagraph.cold
_ZN19Canvas5StyleManager13readCharStyleERN16Canvas5Structure6StreamEiRNS_9CharStyleEb.isra.0
_ZN19Canvas5StyleManager13readCharStyleERN16Canvas5Structure6StreamEiRNS_9CharStyleEb.isra.0.cold
_ZN19Canvas5StyleManager13readParaStyleESt10shared_ptrIN16Canvas5Structure6StreamEEiPNS_9StyleListE
_ZN19Canvas5StyleManager13readParaStyleESt10shared_ptrIN16Canvas5Structure6StreamEEiPNS_9StyleListE.cold
_ZN19Canvas5StyleManager14readCharStylesESt10shared_ptrIN16Canvas5Structure6StreamEE
_ZN19Canvas5StyleManager14readCharStylesESt10shared_ptrIN16Canvas5Structure6StreamEE.cold
_ZN19Canvas5StyleManager14readColorStyleESt10shared_ptrIN16Canvas5Structure6StreamEEjl
_ZN19Canvas5StyleManager14readColorStyleESt10shared_ptrIN16Canvas5Structure6StreamEEjl.cold
_ZN19Canvas5StyleManager14readParaStylesESt10shared_ptrIN16Canvas5Structure6StreamEE
_ZN19Canvas5StyleManager14readParaStylesESt10shared_ptrIN16Canvas5Structure6StreamEE.cold
_ZN19Canvas5StyleManager15updateLineColorERKN27Canvas5StyleManagerInternal10ColorStyleER16MWAWGraphicStyle.isra.0
_ZN19Canvas5StyleManager15updateLineColorEiR16MWAWGraphicStyle.isra.0
_ZN19Canvas5StyleManager15updateLineStyleEiR16MWAWGraphicStyleRiiPf.isra.0
_ZN19Canvas5StyleManager18updateSurfaceColorERKN27Canvas5StyleManagerInternal10ColorStyleER16MWAWGraphicStyle.isra.0
_ZN19Canvas5StyleManager18updateSurfaceColorERKN27Canvas5StyleManagerInternal10ColorStyleER16MWAWGraphicStyle.isra.0.cold
_ZN19Canvas5StyleManager8readDashERN16Canvas5Structure6StreamERSt6vectorIfSaIfEEjl.isra.0
_ZN19Canvas5StyleManager8readDashERN16Canvas5Structure6StreamERSt6vectorIfSaIfEEjl.isra.0.cold
_ZN19Canvas5StyleManager9CharStyleC1Ev
_ZN19Canvas5StyleManager9CharStyleC2Ev.lto_priv.0
_ZN19Canvas5StyleManager9CharStyleC2Ev.lto_priv.0.cold
_ZN19Canvas5StyleManager9readArrowESt10shared_ptrIN16Canvas5Structure6StreamEERN16MWAWGraphicStyle5ArrowEjl.isra.0
_ZN19Canvas5StyleManager9readArrowESt10shared_ptrIN16Canvas5Structure6StreamEERN16MWAWGraphicStyle5ArrowEjl.isra.0.cold
_ZN19Canvas5StyleManager9readColorERN16Canvas5Structure6StreamER12MWAWVariableI9MWAWColorERNSt7__cxx1112basic_stringIcSt11char_traitsIcESaIcEEE.isra.0
_ZN19Canvas5StyleManager9readColorERN16Canvas5Structure6StreamER12MWAWVariableI9MWAWColorERNSt7__cxx1112basic_stringIcSt11char_traitsIcESaIcEEE.isra.0.cold
_ZN19Canvas5StyleManagerD0Ev
_ZN19Canvas5StyleManagerD1Ev
_ZN19Canvas5StyleManagerD2Ev
_ZN19CanvasGraphInternal11SubDocument5parseERSt10shared_ptrI12MWAWListenerEN7libmwaw15SubDocumentTypeE
_ZN19CanvasGraphInternal11SubDocument5parseERSt10shared_ptrI12MWAWListenerEN7libmwaw15SubDocumentTypeE.cold
_ZN19CanvasGraphInternal11SubDocumentD0Ev
_ZN19CanvasGraphInternal11SubDocumentD1Ev
_ZN19CanvasGraphInternal11SubDocumentD2Ev.lto_priv.0
_ZN19CanvasGraphInternal14getOffsetPointERKSt6vectorI8MWAWVec2IfESaIS2_EEmf
_ZN19CanvasGraphInternal14getOffsetPointERKSt6vectorI8MWAWVec2IfESaIS2_EEmf.part.0
_ZN19CanvasGraphInternal14getOffsetPointERKSt6vectorI8MWAWVec2IfESaIS2_EEmf.part.0.cold
_ZN19FullWrtTextInternal10LineHeaderD1Ev
_ZN19FullWrtTextInternal10LineHeaderD2Ev.lto_priv.0
_ZN19FullWrtTextInternal4FontD1Ev
_ZN19FullWrtTextInternal4FontD2Ev.lto_priv.0
_ZN19FullWrtTextInternal4ItemD1Ev
_ZN19FullWrtTextInternal4ItemD2Ev.lto_priv.0
_ZN19FullWrtTextInternal4ZoneD1Ev
_ZN19FullWrtTextInternal4ZoneD2Ev
_ZN19FullWrtTextInternal9ParagraphC1ERKS0_
_ZN19FullWrtTextInternal9ParagraphC2ERKS0_
_ZN19FullWrtTextInternal9ParagraphC2ERKS0_.cold
_ZN19FullWrtTextInternal9ParagraphD0Ev
_ZN19FullWrtTextInternal9ParagraphD1Ev
_ZN19FullWrtTextInternal9ParagraphD2Ev
_ZN19GraphicStyleManager18addFramePropertiesERKN10librevenge16RVNGPropertyListERS1_
_ZN19GraphicStyleManager18addFramePropertiesERKN10librevenge16RVNGPropertyListERS1_.cold
_ZN19GraphicStyleManager20addGraphicPropertiesERKN10librevenge16RVNGPropertyListERS1_
_ZN19GraphicStyleManager20addGraphicPropertiesERKN10librevenge16RVNGPropertyListERS1_.cold
_ZN19GraphicStyleManager21getStyleNameForMarkerERKN10librevenge16RVNGPropertyListEb
_ZN19GraphicStyleManager21getStyleNameForMarkerERKN10librevenge16RVNGPropertyListEb.cold
_ZN19GraphicStyleManager5cleanEv
_ZN19GraphicStyleManager9findOrAddERKN10librevenge16RVNGPropertyListEN5Style4ZoneE
_ZN19GraphicStyleManager9findOrAddERKN10librevenge16RVNGPropertyListEN5Style4ZoneE.cold
_ZN19GraphicStyleManagerD0Ev
_ZN19GraphicStyleManagerD1Ev.lto_priv.0
_ZN19GraphicStyleManagerD2Ev.lto_priv.0
_ZN19MWAWGraphicListener10_closeSpanEv
_ZN19MWAWGraphicListener10_flushTextEv
_ZN19MWAWGraphicListener10_flushTextEv.cold
_ZN19MWAWGraphicListener10closeFrameEv
_ZN19MWAWGraphicListener10closeGroupEv
_ZN19MWAWGraphicListener10closeGroupEv.part.0
_ZN19MWAWGraphicListener10closeGroupEv.part.0.cold
_ZN19MWAWGraphicListener10closeLayerEv
_ZN19MWAWGraphicListener10closeLayerEv.cold
_ZN19MWAWGraphicListener10closeTableEv
_ZN19MWAWGraphicListener10closeTableEv.cold
_ZN19MWAWGraphicListener10insertCharEh
_ZN19MWAWGraphicListener10insertNoteERK8MWAWNoteRSt10shared_ptrI15MWAWSubDocumentE
_ZN19MWAWGraphicListener11_changeListEv
_ZN19MWAWGraphicListener11_changeListEv.cold
_ZN19MWAWGraphicListener11endDocumentEb
_ZN19MWAWGraphicListener11endDocumentEb.cold
_ZN19MWAWGraphicListener11getPageSpanEv
_ZN19MWAWGraphicListener11insertBreakEN12MWAWListener9BreakTypeE
_ZN19MWAWGraphicListener11insertFieldERK9MWAWField
_ZN19MWAWGraphicListener11insertFieldERK9MWAWField.cold
_ZN19MWAWGraphicListener11insertShapeERK12MWAWPositionRK16MWAWGraphicShapeRK16MWAWGraphicStyle
_ZN19MWAWGraphicListener11insertShapeERK12MWAWPositionRK16MWAWGraphicShapeRK16MWAWGraphicStyle.cold
_ZN19MWAWGraphicListener11openSectionERK11MWAWSection
_ZN19MWAWGraphicListener12closeSectionEv
_ZN19MWAWGraphicListener12insertFooterERKSt10shared_ptrI15MWAWSubDocumentERKN10librevenge16RVNGPropertyListE
_ZN19MWAWGraphicListener12insertFooterERKSt10shared_ptrI15MWAWSubDocumentERKN10librevenge16RVNGPropertyListE.cold
_ZN19MWAWGraphicListener12insertHeaderERKSt10shared_ptrI15MWAWSubDocumentERKN10librevenge16RVNGPropertyListE
_ZN19MWAWGraphicListener12insertHeaderERKSt10shared_ptrI15MWAWSubDocumentERKN10librevenge16RVNGPropertyListE.cold
_ZN19MWAWGraphicListener12openTableRowEfN10librevenge8RVNGUnitEb
_ZN19MWAWGraphicListener12openTableRowEfN10librevenge8RVNGUnitEb.cold
_ZN19MWAWGraphicListener12setParagraphERK13MWAWParagraph
_ZN19MWAWGraphicListener13_openPageSpanEb.constprop.0
_ZN19MWAWGraphicListener13_openPageSpanEb.constprop.0.cold
_ZN19MWAWGraphicListener13closeTableRowEv
_ZN19MWAWGraphicListener13insertCommentERSt10shared_ptrI15MWAWSubDocumentE
_ZN19MWAWGraphicListener13insertPictureERK12MWAWPositionRK18MWAWEmbeddedObjectRK16MWAWGraphicStyle
_ZN19MWAWGraphicListener13insertPictureERK12MWAWPositionRK18MWAWEmbeddedObjectRK16MWAWGraphicStyle.cold
_ZN19MWAWGraphicListener13insertTextBoxERK12MWAWPositionRKSt10shared_ptrI15MWAWSubDocumentERK16MWAWGraphicStyle
_ZN19MWAWGraphicListener13insertTextBoxERK12MWAWPositionRKSt10shared_ptrI15MWAWSubDocumentERK16MWAWGraphicStyle.cold
_ZN19MWAWGraphicListener13insertUnicodeEj
_ZN19MWAWGraphicListener13openTableCellERK8MWAWCell
_ZN19MWAWGraphicListener13openTableCellERK8MWAWCell.cold
_ZN19MWAWGraphicListener13startDocumentEv
_ZN19MWAWGraphicListener13startDocumentEv.cold
_ZN19MWAWGraphicListener14_closePageSpanEb
_ZN19MWAWGraphicListener14_openParagraphEv
_ZN19MWAWGraphicListener14_openParagraphEv.cold
_ZN19MWAWGraphicListener14closeTableCellEv
_ZN19MWAWGraphicListener14openMasterPageERK12MWAWPageSpan
_ZN19MWAWGraphicListener14openMasterPageERK12MWAWPageSpan.cold
_ZN19MWAWGraphicListener15_closeParagraphEv
_ZN19MWAWGraphicListener15_endSubDocumentEv.part.0
_ZN19MWAWGraphicListener15insertCharacterEh
_ZN19MWAWGraphicListener15insertCharacterEhRSt10shared_ptrI15MWAWInputStreamEl
_ZN19MWAWGraphicListener16_popParsingStateEv
_ZN19MWAWGraphicListener16_popParsingStateEv.cold
_ZN19MWAWGraphicListener16_popParsingStateEv.part.0
_ZN19MWAWGraphicListener17_pushParsingStateEv
_ZN19MWAWGraphicListener17_pushParsingStateEv.cold
_ZN19MWAWGraphicListener17addEmptyTableCellERK8MWAWVec2IiES1_
_ZN19MWAWGraphicListener17addEmptyTableCellERK8MWAWVec2IiES1_.cold
_ZN19MWAWGraphicListener17handleSubDocumentERK8MWAWVec2IfERKSt10shared_ptrI15MWAWSubDocumentEN7libmwaw15SubDocumentTypeE
_ZN19MWAWGraphicListener17handleSubDocumentERK8MWAWVec2IfERKSt10shared_ptrI15MWAWSubDocumentEN7libmwaw15SubDocumentTypeE.cold
_ZN19MWAWGraphicListener17handleSubDocumentERKSt10shared_ptrI15MWAWSubDocumentEN7libmwaw15SubDocumentTypeE
_ZN19MWAWGraphicListener19insertUnicodeStringERKN10librevenge10RVNGStringE
_ZN19MWAWGraphicListener19setDocumentLanguageERKNSt7__cxx1112basic_stringIcSt11char_traitsIcESaIcEEE
_ZN19MWAWGraphicListener19setDocumentMetaDataERKN10librevenge16RVNGPropertyListE
_ZN19MWAWGraphicListener19setDocumentMetaDataERKN10librevenge16RVNGPropertyListE.cold
_ZN19MWAWGraphicListener22_handleFrameParametersERN10librevenge16RVNGPropertyListERK12MWAWPositionRK16MWAWGraphicStyle
_ZN19MWAWGraphicListener22_handleFrameParametersERN10librevenge16RVNGPropertyListERK12MWAWPositionRK16MWAWGraphicStyle.cold
_ZN19MWAWGraphicListener7setFontERK8MWAWFont
_ZN19MWAWGraphicListener7setFontERK8MWAWFont.cold
_ZN19MWAWGraphicListener8openLinkERK8MWAWLink
_ZN19MWAWGraphicListener8openLinkERK8MWAWLink.cold
_ZN19MWAWGraphicListener9_openSpanEv
_ZN19MWAWGraphicListener9_openSpanEv.cold
_ZN19MWAWGraphicListener9closeLinkEv
_ZN19MWAWGraphicListener9closeLinkEv.cold
_ZN19MWAWGraphicListener9insertEOLEb
_ZN19MWAWGraphicListener9insertTabEv
_ZN19MWAWGraphicListener9openFrameERK12MWAWPositionRK16MWAWGraphicStyle
_ZN19MWAWGraphicListener9openGroupERK12MWAWPosition
_ZN19MWAWGraphicListener9openGroupERK12MWAWPosition.cold
_ZN19MWAWGraphicListener9openLayerERKN10librevenge10RVNGStringE
_ZN19MWAWGraphicListener9openLayerERKN10librevenge10RVNGStringE.cold
_ZN19MWAWGraphicListener9openTableERK12MWAWPositionRK9MWAWTableRK16MWAWGraphicStyle
_ZN19MWAWGraphicListener9openTableERK12MWAWPositionRK9MWAWTableRK16MWAWGraphicStyle.cold
_ZN19MWAWGraphicListener9openTableERK9MWAWTable
_ZN19MWAWGraphicListener9openTableERK9MWAWTable.cold
_ZN19MWAWGraphicListenerC1ER15MWAWParserStateRK8MWAWBox2IfEPN10librevenge20RVNGDrawingInterfaceE
_ZN19MWAWGraphicListenerC1ER15MWAWParserStateRKSt6vectorI12MWAWPageSpanSaIS3_EEPN10librevenge20RVNGDrawingInterfaceE
_ZN19MWAWGraphicListenerC2ER15MWAWParserStateRK8MWAWBox2IfEPN10librevenge20RVNGDrawingInterfaceE
_ZN19MWAWGraphicListenerC2ER15MWAWParserStateRK8MWAWBox2IfEPN10librevenge20RVNGDrawingInterfaceE.cold
_ZN19MWAWGraphicListenerC2ER15MWAWParserStateRKSt6vectorI12MWAWPageSpanSaIS3_EEPN10librevenge20RVNGDrawingInterfaceE
_ZN19MWAWGraphicListenerC2ER15MWAWParserStateRKSt6vectorI12MWAWPageSpanSaIS3_EEPN10librevenge20RVNGDrawingInterfaceE.cold
_ZN19MWAWGraphicListenerD0Ev
_ZN19MWAWGraphicListenerD1Ev
_ZN19MWAWGraphicListenerD2Ev
_ZN19MWAWPictBitmapColorC1ERK8MWAWVec2IiEb
_ZN19MWAWPictBitmapColorC2ERK8MWAWVec2IiEb.lto_priv.0
_ZN19MWAWPictBitmapColorC2ERK8MWAWVec2IiEb.lto_priv.0.cold
_ZN19MWAWPictBitmapColorD0Ev
_ZN19MWAWPictBitmapColorD1Ev.lto_priv.0
_ZN19MWAWPictBitmapColorD2Ev.lto_priv.0
_ZN19MacWrtProStructures10readPageIIERKSt10shared_ptrI10MWAWStreamEiRN27MacWrtProStructuresInternal4PageE.isra.0
_ZN19MacWrtProStructures10readPageIIERKSt10shared_ptrI10MWAWStreamEiRN27MacWrtProStructuresInternal4PageE.isra.0.cold
_ZN19MacWrtProStructures10readStringESt10shared_ptrI15MWAWInputStreamERNSt7__cxx1112basic_stringIcSt11char_traitsIcESaIcEEE
_ZN19MacWrtProStructures11createZonesERSt10shared_ptrI10MWAWStreamEi
_ZN19MacWrtProStructures11createZonesERSt10shared_ptrI10MWAWStreamEi.cold
_ZN19MacWrtProStructures12readFontsDefERSt10shared_ptrI10MWAWStreamE
_ZN19MacWrtProStructures12readFontsDefERSt10shared_ptrI10MWAWStreamE.cold
_ZN19MacWrtProStructures13createZonesIIERSt10shared_ptrI10MWAWStreamEi
_ZN19MacWrtProStructures13createZonesIIERSt10shared_ptrI10MWAWStreamEi.cold
_ZN19MacWrtProStructures13readFontsNameERSt10shared_ptrI10MWAWStreamE
_ZN19MacWrtProStructures13readFontsNameERSt10shared_ptrI10MWAWStreamE.cold
_ZN19MacWrtProStructures13readParagraphERSt10shared_ptrI10MWAWStreamERN27MacWrtProStructuresInternal9ParagraphE.constprop.0
_ZN19MacWrtProStructures13readParagraphERSt10shared_ptrI10MWAWStreamERN27MacWrtProStructuresInternal9ParagraphE.constprop.0.cold
_ZN19MacWrtProStructures14readCharStylesERSt10shared_ptrI10MWAWStreamE
_ZN19MacWrtProStructures14readCharStylesERSt10shared_ptrI10MWAWStreamE.cold
_ZN19MacWrtProStructures14readParagraphsERSt10shared_ptrI10MWAWStreamE
_ZN19MacWrtProStructures14readParagraphsERSt10shared_ptrI10MWAWStreamE.cold
_ZN19MacWrtProStructures19buildPageStructuresEv
_ZN19MacWrtProStructures19buildPageStructuresEv.cold
_ZN19MacWrtProStructures20buildTableStructuresEv
_ZN19MacWrtProStructures20buildTableStructuresEv.cold
_ZN19MacWrtProStructures4sendEib
_ZN19MacWrtProStructures4sendEib.cold
_ZN19MacWrtProStructures8readFontERSt10shared_ptrI10MWAWStreamERN27MacWrtProStructuresInternal4FontE
_ZN19MacWrtProStructures8readFontERSt10shared_ptrI10MWAWStreamERN27MacWrtProStructuresInternal4FontE.cold
_ZN19MacWrtProStructures9readStyleERSt10shared_ptrI10MWAWStreamEi.isra.0
_ZN19MacWrtProStructures9readStyleERSt10shared_ptrI10MWAWStreamEi.isra.0.cold
_ZN19MacWrtProStructuresD0Ev
_ZN19MacWrtProStructuresD1Ev
_ZN19MacWrtProStructuresD2Ev
_ZN19MsWrdParserInternal11SubDocument5parseERSt10shared_ptrI12MWAWListenerEN7libmwaw15SubDocumentTypeE
_ZN19MsWrdParserInternal11SubDocument5parseERSt10shared_ptrI12MWAWListenerEN7libmwaw15SubDocumentTypeE.cold
_ZN19MsWrdParserInternal11SubDocumentD0Ev
_ZN19MsWrdParserInternal11SubDocumentD1Ev
_ZN19MsWrdParserInternal11SubDocumentD2Ev
_ZN19MsWrdParserInternal5StateD1Ev
_ZN19MsWrdParserInternal5StateD2Ev
_ZN19MsWrdParserInternal6ObjectD1Ev
_ZN19MsWrdParserInternal6ObjectD2Ev
_ZN19OdcGeneratorPrivate16getAddressStringEPKN10librevenge22RVNGPropertyListVectorE
_ZN19OdcGeneratorPrivate16getAddressStringEPKN10librevenge22RVNGPropertyListVectorE.cold
_ZN19OdcGeneratorPrivate17getChartStyleNameEi
_ZN19OdcGeneratorPrivate17getChartStyleNameEi.cold
_ZN19OdcGeneratorPrivate19writeTargetDocumentEP18OdfDocumentHandler13OdfStreamType
_ZN19OdcGeneratorPrivate19writeTargetDocumentEP18OdfDocumentHandler13OdfStreamType.cold
_ZN19OdcGeneratorPrivateD0Ev
_ZN19OdcGeneratorPrivateD1Ev
_ZN19OdcGeneratorPrivateD2Ev
_ZN19OdgGeneratorPrivate19writeTargetDocumentEP18OdfDocumentHandler13OdfStreamType
_ZN19OdgGeneratorPrivate19writeTargetDocumentEP18OdfDocumentHandler13OdfStreamType.cold
_ZN19OdgGeneratorPrivate36updatePageSpanPropertiesToCreatePageERN10librevenge16RVNGPropertyListE
_ZN19OdgGeneratorPrivate36updatePageSpanPropertiesToCreatePageERN10librevenge16RVNGPropertyListE.cold
_ZN19OdgGeneratorPrivateD0Ev
_ZN19OdgGeneratorPrivateD1Ev
_ZN19OdgGeneratorPrivateD2Ev
_ZN19OdpGeneratorPrivate16openTextBoxFrameERKN10librevenge16RVNGPropertyListE
_ZN19OdpGeneratorPrivate16openTextBoxFrameERKN10librevenge16RVNGPropertyListE.cold
_ZN19OdpGeneratorPrivate19writeTargetDocumentEP18OdfDocumentHandler13OdfStreamType
_ZN19OdpGeneratorPrivate19writeTargetDocumentEP18OdfDocumentHandler13OdfStreamType.cold
_ZN19OdpGeneratorPrivate36updatePageSpanPropertiesToCreatePageERN10librevenge16RVNGPropertyListE
_ZN19OdpGeneratorPrivate36updatePageSpanPropertiesToCreatePageERN10librevenge16RVNGPropertyListE.cold
_ZN19OdpGeneratorPrivateD0Ev
_ZN19OdpGeneratorPrivateD1Ev
_ZN19OdpGeneratorPrivateD2Ev
_ZN19OdsGeneratorPrivate14canAddNewShapeEb.constprop.0
_ZN19OdsGeneratorPrivate14canAddNewShapeEb.constprop.0.cold
_ZN19OdsGeneratorPrivate19writeTargetDocumentEP18OdfDocumentHandler13OdfStreamType
_ZN19OdsGeneratorPrivate19writeTargetDocumentEP18OdfDocumentHandler13OdfStreamType.cold
_ZN19OdsGeneratorPrivate5closeENS_7CommandE
_ZN19OdsGeneratorPrivate8getStateEv
_ZN19OdsGeneratorPrivateD0Ev
_ZN19OdsGeneratorPrivateD1Ev
_ZN19OdsGeneratorPrivateD2Ev
_ZN19OdtGeneratorPrivate19writeTargetDocumentEP18OdfDocumentHandler13OdfStreamType
_ZN19OdtGeneratorPrivate19writeTargetDocumentEP18OdfDocumentHandler13OdfStreamType.cold
_ZN19OdtGeneratorPrivate8getStateEv
_ZN19OdtGeneratorPrivateD0Ev
_ZN19OdtGeneratorPrivateD1Ev
_ZN19OdtGeneratorPrivateD2Ev
_ZN19RagTime5Spreadsheet22readSpreadsheetClusterER12RagTime5Zonei
_ZN19RagTime5Spreadsheet22readSpreadsheetClusterER12RagTime5Zonei.cold
_ZN19RagTime5Spreadsheet4sendERN27RagTime5SpreadsheetInternal5SheetESt10shared_ptrI12MWAWListenerERK12MWAWPositioni
_ZN19RagTime5Spreadsheet4sendERN27RagTime5SpreadsheetInternal5SheetESt10shared_ptrI12MWAWListenerERK12MWAWPositioni.cold
_ZN19RagTime5SpreadsheetD0Ev
_ZN19RagTime5SpreadsheetD1Ev
_ZN19RagTime5SpreadsheetD2Ev
_ZN19Scanner_MetaHandler13CacheFileDataEv
_ZN19Scanner_MetaHandler13CacheFileDataEv.cold
_ZN19Scanner_MetaHandlerD0Ev
_ZN19Scanner_MetaHandlerD1Ev
_ZN19Scanner_MetaHandlerD2Ev
_ZN19ScoopParserInternal11SubDocument5parseERSt10shared_ptrI12MWAWListenerEN7libmwaw15SubDocumentTypeE
_ZN19ScoopParserInternal11SubDocument5parseERSt10shared_ptrI12MWAWListenerEN7libmwaw15SubDocumentTypeE.cold
_ZN19ScoopParserInternal11SubDocumentD0Ev
_ZN19ScoopParserInternal11SubDocumentD1Ev
_ZN19ScoopParserInternal11SubDocumentD2Ev
_ZN19ScoopParserInternal5ShapeC1ERKS0_
_ZN19ScoopParserInternal5ShapeC2ERKS0_.lto_priv.0
_ZN19ScoopParserInternal5ShapeC2ERKS0_.lto_priv.0.cold
_ZN19ScoopParserInternal5ShapeD1Ev
_ZN19ScoopParserInternal5ShapeD2Ev.lto_priv.0
_ZN19ScoopParserInternal5State12initPatternsEv.part.0
_ZN19ScoopParserInternal5StateD1Ev
_ZN19ScoopParserInternal5StateD2Ev.lto_priv.0
_ZN19ScoopParserInternal8TextZoneD1Ev
_ZN19ScoopParserInternal8TextZoneD2Ev.lto_priv.0
_ZN19ScoopParserInternal8TextZoneaSERKS0_.isra.0
_ZN19ScoopParserInternal8TextZoneaSERKS0_.isra.0.cold
_ZN19ScoopParserInternal9ParagraphC1ERKS0_
_ZN19ScoopParserInternal9ParagraphC2ERKS0_.lto_priv.0
_ZN19ScoopParserInternal9ParagraphC2ERKS0_.lto_priv.0.cold
_ZN19ScoopParserInternal9ParagraphD1Ev
_ZN19ScoopParserInternal9ParagraphD2Ev.lto_priv.0
_ZN19SectionStyleManager5cleanEv
_ZN19SectionStyleManagerD0Ev
_ZN19SectionStyleManagerD1Ev.lto_priv.0
_ZN19SectionStyleManagerD2Ev.lto_priv.0
_ZN19SonyHDV_MetaHandler10ProcessXMPEv
_ZN19SonyHDV_MetaHandler10ProcessXMPEv.cold
_ZN19SonyHDV_MetaHandler10UpdateFileEb
_ZN19SonyHDV_MetaHandler10UpdateFileEb.cold
_ZN19SonyHDV_MetaHandler13CacheFileDataEv
_ZN19SonyHDV_MetaHandler13CacheFileDataEv.cold
_ZN19SonyHDV_MetaHandler13WriteTempFileEP6XMP_IO
_ZN19SonyHDV_MetaHandler14GetFileModDateEP12XMP_DateTime
_ZN19SonyHDV_MetaHandler14GetFileModDateEP12XMP_DateTime.cold
_ZN19SonyHDV_MetaHandler16MakeClipFilePathEPNSt7__cxx1112basic_stringIcSt11char_traitsIcESaIcEEEPKcb.constprop.0
_ZN19SonyHDV_MetaHandler16MakeLegacyDigestEPNSt7__cxx1112basic_stringIcSt11char_traitsIcESaIcEEE
_ZN19SonyHDV_MetaHandler16MakeLegacyDigestEPNSt7__cxx1112basic_stringIcSt11char_traitsIcESaIcEEE.cold
_ZN19SonyHDV_MetaHandler17FillMetadataFilesEPSt6vectorINSt7__cxx1112basic_stringIcSt11char_traitsIcESaIcEEESaIS6_EE
_ZN19SonyHDV_MetaHandler17FillMetadataFilesEPSt6vectorINSt7__cxx1112basic_stringIcSt11char_traitsIcESaIcEEESaIS6_EE.cold
_ZN19SonyHDV_MetaHandler17MakeIndexFilePathERNSt7__cxx1112basic_stringIcSt11char_traitsIcESaIcEEERKS5_S8_.constprop.0
_ZN19SonyHDV_MetaHandler17MakeIndexFilePathERNSt7__cxx1112basic_stringIcSt11char_traitsIcESaIcEEERKS5_S8_.constprop.0.cold
_ZN19SonyHDV_MetaHandler18IsMetadataWritableEv
_ZN19SonyHDV_MetaHandler18IsMetadataWritableEv.cold
_ZN19SonyHDV_MetaHandler19GetSerializeOptionsEv
_ZN19SonyHDV_MetaHandler23FillAssociatedResourcesEPSt6vectorINSt7__cxx1112basic_stringIcSt11char_traitsIcESaIcEEESaIS6_EE
_ZN19SonyHDV_MetaHandler23FillAssociatedResourcesEPSt6vectorINSt7__cxx1112basic_stringIcSt11char_traitsIcESaIcEEESaIS6_EE.cold
_ZN19SonyHDV_MetaHandlerD0Ev
_ZN19SonyHDV_MetaHandlerD1Ev
_ZN19SonyHDV_MetaHandlerD2Ev
_ZN19StyleParserInternal4FontD1Ev
_ZN19StyleParserInternal4FontD2Ev
_ZN19StyleParserInternal5StateD1Ev
_ZN19StyleParserInternal5StateD2Ev.lto_priv.0
_ZN19TimeConversionUtils29ConvertSamplesToSMPTETimecodeERNSt7__cxx1112basic_stringIcSt11char_traitsIcESaIcEEElmRKS5_.constprop.0
_ZN19TimeConversionUtilsL24ConvertSamplesToTimecodeERNSt7__cxx1112basic_stringIcSt11char_traitsIcESaIcEEElmlbbbbbbb.constprop.0
_ZN19TimeConversionUtilsL24ConvertSamplesToTimecodeERNSt7__cxx1112basic_stringIcSt11char_traitsIcESaIcEEElmlbbbbbbb.constprop.0.cold
_ZN19Trivial_MetaHandler10UpdateFileEb
_ZN19Trivial_MetaHandler13WriteTempFileEP6XMP_IO
_ZN19WingzParserInternal4CellD0Ev
_ZN19WingzParserInternal4CellD1Ev
_ZN19WingzParserInternal4CellD2Ev
_ZN19WingzParserInternal5StyleD1Ev
_ZN19XDCAMEX_MetaHandler10ProcessXMPEv
_ZN19XDCAMEX_MetaHandler10ProcessXMPEv.cold
_ZN19XDCAMEX_MetaHandler10UpdateFileEb
_ZN19XDCAMEX_MetaHandler10UpdateFileEb.cold
_ZN19XDCAMEX_MetaHandler13CacheFileDataEv
_ZN19XDCAMEX_MetaHandler13CacheFileDataEv.cold
_ZN19XDCAMEX_MetaHandler13WriteTempFileEP6XMP_IO
_ZN19XDCAMEX_MetaHandler14GetFileModDateEP12XMP_DateTime
_ZN19XDCAMEX_MetaHandler14GetFileModDateEP12XMP_DateTime.cold
_ZN19XDCAMEX_MetaHandler16MakeClipFilePathEPNSt7__cxx1112basic_stringIcSt11char_traitsIcESaIcEEEPKcb
_ZN19XDCAMEX_MetaHandler16MakeLegacyDigestEPNSt7__cxx1112basic_stringIcSt11char_traitsIcESaIcEEE
_ZN19XDCAMEX_MetaHandler17FillMetadataFilesEPSt6vectorINSt7__cxx1112basic_stringIcSt11char_traitsIcESaIcEEESaIS6_EE
_ZN19XDCAMEX_MetaHandler17FillMetadataFilesEPSt6vectorINSt7__cxx1112basic_stringIcSt11char_traitsIcESaIcEEESaIS6_EE.cold
_ZN19XDCAMEX_MetaHandler18IsMetadataWritableEv
_ZN19XDCAMEX_MetaHandler18IsMetadataWritableEv.cold
_ZN19XDCAMEX_MetaHandler19GetSerializeOptionsEv
_ZN19XDCAMEX_MetaHandler23FillAssociatedResourcesEPSt6vectorINSt7__cxx1112basic_stringIcSt11char_traitsIcESaIcEEESaIS6_EE
_ZN19XDCAMEX_MetaHandler23FillAssociatedResourcesEPSt6vectorINSt7__cxx1112basic_stringIcSt11char_traitsIcESaIcEEESaIS6_EE.cold
_ZN19XDCAMEX_MetaHandlerD0Ev
_ZN19XDCAMEX_MetaHandlerD1Ev
_ZN19XDCAMEX_MetaHandlerD2Ev
_ZN19XMP_ProgressTracker12NotifyClientEb
_ZN19XMP_ProgressTracker12NotifyClientEb.cold
_ZN19XMP_ProgressTracker9BeginWorkEf
_ZN19XMP_ProgressTracker9BeginWorkEf.cold
_ZN20Canvas5GraphInternal11SubDocument5parseERSt10shared_ptrI12MWAWListenerEN7libmwaw15SubDocumentTypeE
_ZN20Canvas5GraphInternal11SubDocument5parseERSt10shared_ptrI12MWAWListenerEN7libmwaw15SubDocumentTypeE.cold
_ZN20Canvas5GraphInternal11SubDocumentC1ER12Canvas5GraphRKSt10shared_ptrI15MWAWInputStreamERKNS_5ShapeERKNS_9ShapeDataE
_ZN20Canvas5GraphInternal11SubDocumentC2ER12Canvas5GraphRKSt10shared_ptrI15MWAWInputStreamERKNS_5ShapeERKNS_9ShapeDataE.lto_priv.0
_ZN20Canvas5GraphInternal11SubDocumentC2ER12Canvas5GraphRKSt10shared_ptrI15MWAWInputStreamERKNS_5ShapeERKNS_9ShapeDataE.lto_priv.0.cold
_ZN20Canvas5GraphInternal11SubDocumentD0Ev
_ZN20Canvas5GraphInternal11SubDocumentD1Ev
_ZN20Canvas5GraphInternal11SubDocumentD2Ev.lto_priv.0
_ZN20Canvas5GraphInternal9ShapeDataC1Ev
_ZN20Canvas5GraphInternal9ShapeDataC2Ev
_ZN20Canvas5GraphInternal9ShapeDataC2Ev.cold
_ZN20Canvas5GraphInternal9ShapeDataD1Ev
_ZN20Canvas5GraphInternal9ShapeDataD2Ev.lto_priv.0
_ZN20Canvas5GraphInternal9intersectERK8MWAWBox2IfERK8MWAWVec2IfES7_
_ZN20Canvas5GraphInternal9intersectERK8MWAWBox2IfERK8MWAWVec2IfES7_.cold
_ZN20Canvas5GraphInternal9intersectERK8MWAWVec2IfES3_S3_S3_RS1_
_ZN20Canvas5GraphInternal9intersectERK8MWAWVec2IfES3_S3_S3_RS1_.cold
_ZN20Canvas5ImageInternal9VKFLShapeD1Ev
_ZN20Canvas5ImageInternal9VKFLShapeD2Ev
_ZN20CanvasParserInternal7Decoder10initOutputERSt10shared_ptrI15MWAWInputStreamEm
_ZN20CanvasParserInternal7Decoder10initOutputERSt10shared_ptrI15MWAWInputStreamEm.cold
_ZN20CanvasParserInternal7Decoder6decodeEl
_ZN20CanvasParserInternal7Decoder6decodeEl.cold
_ZN20CanvasParserInternal7DecoderD1Ev
_ZN20CanvasParserInternal7DecoderD2Ev.lto_priv.0
_ZN20ClarisWksSpreadsheet15sendSpreadsheetEiSt10shared_ptrI12MWAWListenerE
_ZN20ClarisWksSpreadsheet15sendSpreadsheetEiSt10shared_ptrI12MWAWListenerE.cold
_ZN20ClarisWksSpreadsheet17readRowHeightZoneERN28ClarisWksSpreadsheetInternal11SpreadsheetE
_ZN20ClarisWksSpreadsheet17readRowHeightZoneERN28ClarisWksSpreadsheetInternal11SpreadsheetE.cold
_ZN20ClarisWksSpreadsheetD0Ev
_ZN20ClarisWksSpreadsheetD1Ev
_ZN20ClarisWksSpreadsheetD2Ev
_ZN20FullWrtGraphInternal11SubDocument5parseERSt10shared_ptrI12MWAWListenerEN7libmwaw15SubDocumentTypeE
_ZN20FullWrtGraphInternal11SubDocumentD0Ev
_ZN20FullWrtGraphInternal11SubDocumentD1Ev
_ZN20FullWrtGraphInternal11SubDocumentD2Ev
_ZN20FullWrtGraphInternal7SideBarD0Ev
_ZN20FullWrtGraphInternal7SideBarD1Ev
_ZN20FullWrtGraphInternal7SideBarD2Ev
_ZN20GreatWksTextInternal4ZoneC1ERKS0_
_ZN20GreatWksTextInternal4ZoneC1Ev
_ZN20GreatWksTextInternal4ZoneC2ERKS0_.lto_priv.0
_ZN20GreatWksTextInternal4ZoneC2ERKS0_.lto_priv.0.cold
_ZN20GreatWksTextInternal4ZoneC2Ev.lto_priv.0
_ZN20GreatWksTextInternal4ZoneD1Ev
_ZN20GreatWksTextInternal4ZoneD2Ev.lto_priv.0
_ZN20ISOBaseMedia_Manager10NoteChangeEv
_ZN20ISOBaseMedia_Manager11AddChildBoxEPKvjS1_jPKh.constprop.0
_ZN20ISOBaseMedia_Manager11AddChildBoxEPKvjS1_jPKh.constprop.0.cold
_ZN20ISOBaseMedia_Manager11WipeBoxFreeEP6XMP_IOmj.part.0
_ZN20ISOBaseMedia_Manager11WipeBoxFreeEP6XMP_IOmj.part.0.cold
_ZN20ISOBaseMedia_Manager14WriteBoxHeaderEP6XMP_IOjm.constprop.0
_ZN20ISOBaseMedia_Manager14WriteBoxHeaderEP6XMP_IOjm.constprop.0.cold
_ZN20ISOBaseMedia_Manager6SetBoxEPKvS1_jPKh.constprop.0
_ZN20ISOBaseMedia_Manager6SetBoxEPKvS1_jPKh.constprop.0.cold
_ZN20ISOBaseMedia_Manager7BoxInfoC1Ev
_ZN20ISOBaseMedia_Manager7BoxInfoC2Ev.lto_priv.0
_ZN20ISOBaseMedia_ManagerD0Ev
_ZN20ISOBaseMedia_ManagerD1Ev
_ZN20ISOBaseMedia_ManagerD2Ev
_ZN20InDesign_MetaHandler13CacheFileDataEv
_ZN20InDesign_MetaHandler13CacheFileDataEv.cold
_ZN20InDesign_MetaHandler14NoteXMPRemovalEP6XMP_IO
_ZN20InDesign_MetaHandler14WriteXMPPrefixEP6XMP_IO
_ZN20InDesign_MetaHandler14WriteXMPSuffixEP6XMP_IO
_ZN20InDesign_MetaHandler16NoteXMPInsertionEP6XMP_IO
_ZN20InDesign_MetaHandler17CaptureFileEndingEP6XMP_IO
_ZN20InDesign_MetaHandler17RestoreFileEndingEP6XMP_IO
_ZN20InDesign_MetaHandlerD0Ev
_ZN20InDesign_MetaHandlerD1Ev
_ZN20InDesign_MetaHandlerD2Ev
_ZN20JazzSSParserInternal4CellD0Ev
_ZN20JazzSSParserInternal4CellD1Ev
_ZN20JazzSSParserInternal4CellD2Ev
_ZN20JazzSSParserInternal5StateD1Ev
_ZN20JazzSSParserInternal5StateD2Ev.lto_priv.0
_ZN20MWAWDocumentInternal23getTextParserFromHeaderERSt10shared_ptrI15MWAWInputStreamERKS0_I14MWAWRSRCParserEP10MWAWHeader
_ZN20MWAWDocumentInternal23getTextParserFromHeaderERSt10shared_ptrI15MWAWInputStreamERKS0_I14MWAWRSRCParserEP10MWAWHeader.cold
_ZN20MWAWDocumentInternal26getGraphicParserFromHeaderERSt10shared_ptrI15MWAWInputStreamERKS0_I14MWAWRSRCParserEP10MWAWHeader
_ZN20MWAWDocumentInternal26getGraphicParserFromHeaderERSt10shared_ptrI15MWAWInputStreamERKS0_I14MWAWRSRCParserEP10MWAWHeader.cold
_ZN20MWAWDocumentInternal30getSpreadsheetParserFromHeaderERSt10shared_ptrI15MWAWInputStreamERKS0_I14MWAWRSRCParserEP10MWAWHeader
_ZN20MWAWDocumentInternal30getSpreadsheetParserFromHeaderERSt10shared_ptrI15MWAWInputStreamERKS0_I14MWAWRSRCParserEP10MWAWHeader.cold
_ZN20MWAWDocumentInternal31getPresentationParserFromHeaderERSt10shared_ptrI15MWAWInputStreamERKS0_I14MWAWRSRCParserEP10MWAWHeader
_ZN20MWAWDocumentInternal31getPresentationParserFromHeaderERSt10shared_ptrI15MWAWInputStreamERKS0_I14MWAWRSRCParserEP10MWAWHeader.cold
_ZN20MWAWDocumentInternal9getHeaderERSt10shared_ptrI15MWAWInputStreamERKS0_I14MWAWRSRCParserEb
_ZN20MWAWDocumentInternal9getHeaderERSt10shared_ptrI15MWAWInputStreamERKS0_I14MWAWRSRCParserEb.cold
_ZN20MWAWPageSpanInternal11SubDocument5parseERSt10shared_ptrI12MWAWListenerEN7libmwaw15SubDocumentTypeE
_ZN20MWAWPageSpanInternal11SubDocumentD0Ev
_ZN20MWAWPageSpanInternal11SubDocumentD1Ev
_ZN20MWAWPageSpanInternal11SubDocumentD2Ev
_ZN20MacWrtParserInternal11InformationD1Ev
_ZN20MacWrtParserInternal11InformationD2Ev.lto_priv.0
_ZN20MacWrtParserInternal11SubDocument5parseERSt10shared_ptrI12MWAWListenerEN7libmwaw15SubDocumentTypeE
_ZN20MacWrtParserInternal11SubDocumentD0Ev
_ZN20MacWrtParserInternal11SubDocumentD1Ev
_ZN20MacWrtParserInternal11SubDocumentD2Ev
_ZN20MsWrd1ParserInternal11SubDocument5parseERSt10shared_ptrI12MWAWListenerEN7libmwaw15SubDocumentTypeE
_ZN20MsWrd1ParserInternal11SubDocumentD0Ev
_ZN20MsWrd1ParserInternal11SubDocumentD1Ev
_ZN20MsWrd1ParserInternal11SubDocumentD2Ev
_ZN20MsWrd1ParserInternal4FontC1Ev
_ZN20MsWrd1ParserInternal4FontC2Ev.lto_priv.0
_ZN20MsWrd1ParserInternal4FontC2Ev.lto_priv.0.cold
_ZN20MsWrd1ParserInternal4FontD1Ev
_ZN20MsWrd1ParserInternal5StateD1Ev
_ZN20MsWrd1ParserInternal5StateD2Ev.lto_priv.0
_ZN20MsWrd1ParserInternal9ParagraphD0Ev
_ZN20MsWrd1ParserInternal9ParagraphD1Ev
_ZN20MsWrd1ParserInternal9ParagraphD2Ev
_ZN20NisusWrtTextInternal11SubDocument5parseERSt10shared_ptrI12MWAWListenerEN7libmwaw15SubDocumentTypeE
_ZN20NisusWrtTextInternal11SubDocument5parseERSt10shared_ptrI12MWAWListenerEN7libmwaw15SubDocumentTypeE.cold
_ZN20NisusWrtTextInternal11SubDocumentD0Ev
_ZN20NisusWrtTextInternal11SubDocumentD1Ev.lto_priv.0
_ZN20NisusWrtTextInternal11SubDocumentD2Ev.lto_priv.0
_ZN20NisusWrtTextInternal4FontD1Ev
_ZN20NisusWrtTextInternal4FontD2Ev.lto_priv.0
_ZN20NisusWrtTextInternal5StateD1Ev
_ZN20NisusWrtTextInternal5StateD2Ev.lto_priv.0
_ZN20NisusWrtTextInternal8FootnoteD1Ev
_ZN20NisusWrtTextInternal8FootnoteD2Ev.lto_priv.0
_ZN20NisusWrtTextInternal9ParagraphD0Ev
_ZN20NisusWrtTextInternal9ParagraphD1Ev
_ZN20NisusWrtTextInternal9ParagraphD2Ev
_ZN20RagTime5StyleManager11readFormatsERN22RagTime5ClusterManager7ClusterE
_ZN20RagTime5StyleManager11readFormatsERN22RagTime5ClusterManager7ClusterE.cold
_ZN20RagTime5StyleManager12GraphicStyle11updateColorEbiRKSt6vectorI9MWAWColorSaIS2_EE.part.0.isra.0
_ZN20RagTime5StyleManager12GraphicStyle4readERSt10shared_ptrI15MWAWInputStreamERKN21RagTime5StructManager5FieldERKSt6vectorI9MWAWColorSaISA_EE
_ZN20RagTime5StyleManager12GraphicStyle4readERSt10shared_ptrI15MWAWInputStreamERKN21RagTime5StructManager5FieldERKSt6vectorI9MWAWColorSaISA_EE.cold
_ZN20RagTime5StyleManager12GraphicStyleD0Ev
_ZN20RagTime5StyleManager12GraphicStyleD1Ev
_ZN20RagTime5StyleManager12GraphicStyleD2Ev
_ZN20RagTime5StyleManager16updateTextStylesEmRKNS_9TextStyleERKSt6vectorIS0_SaIS0_EERKSt8multimapImmSt4lessImESaISt4pairIKmmEEERSt3setImSA_SaImEE
_ZN20RagTime5StyleManager16updateTextStylesEmRKNS_9TextStyleERKSt6vectorIS0_SaIS0_EERKSt8multimapImmSt4lessImESaISt4pairIKmmEEERSt3setImSA_SaImEE.cold
_ZN20RagTime5StyleManager17readGraphicStylesERN22RagTime5ClusterManager7ClusterE
_ZN20RagTime5StyleManager17readGraphicStylesERN22RagTime5ClusterManager7ClusterE.cold
_ZN20RagTime5StyleManager19updateGraphicStylesEmRKNS_12GraphicStyleERKSt6vectorIS0_SaIS0_EERKSt8multimapImmSt4lessImESaISt4pairIKmmEEERSt3setImSA_SaImEE
_ZN20RagTime5StyleManager19updateGraphicStylesEmRKNS_12GraphicStyleERKSt6vectorIS0_SaIS0_EERKSt8multimapImmSt4lessImESaISt4pairIKmmEEERSt3setImSA_SaImEE.cold
_ZN20RagTime5StyleManager9TextStyle4readERKN21RagTime5StructManager5FieldE
_ZN20RagTime5StyleManager9TextStyle4readERKN21RagTime5StructManager5FieldE.cold
_ZN20RagTime5StyleManager9TextStyleC1ERKS0_
_ZN20RagTime5StyleManager9TextStyleC2ERKS0_
_ZN20RagTime5StyleManager9TextStyleC2ERKS0_.cold
_ZN20RagTime5StyleManager9TextStyleD0Ev
_ZN20RagTime5StyleManager9TextStyleD1Ev
_ZN20RagTime5StyleManager9TextStyleD2Ev
_ZN20RagTime5TextInternal11ClusterTextD0Ev
_ZN20RagTime5TextInternal11ClusterTextD1Ev
_ZN20RagTime5TextInternal11ClusterTextD2Ev
_ZN20RagTime5TextInternal11SubDocument5parseERSt10shared_ptrI12MWAWListenerEN7libmwaw15SubDocumentTypeE
_ZN20RagTime5TextInternal11SubDocument5parseERSt10shared_ptrI12MWAWListenerEN7libmwaw15SubDocumentTypeE.cold
_ZN20RagTime5TextInternal11SubDocumentD0Ev
_ZN20RagTime5TextInternal11SubDocumentD1Ev
_ZN20RagTime5TextInternal11SubDocumentD2Ev
_ZN20RagTime5TextInternal11TextCParser10getClusterEv
_ZN20RagTime5TextInternal11TextCParser10parseFieldERKN21RagTime5StructManager5FieldEiRN7libmwaw11DebugStreamE
_ZN20RagTime5TextInternal11TextCParser13parseDataZoneERSt10shared_ptrI15MWAWInputStreamEliiRN7libmwaw11DebugStreamE.isra.0
_ZN20RagTime5TextInternal11TextCParser13parseDataZoneERSt10shared_ptrI15MWAWInputStreamEliiRN7libmwaw11DebugStreamE.isra.0.cold
_ZN20RagTime5TextInternal11TextCParser14parseZoneBlockERSt10shared_ptrI15MWAWInputStreamEliiRN7libmwaw11DebugStreamE
_ZN20RagTime5TextInternal11TextCParser14parseZoneBlockERSt10shared_ptrI15MWAWInputStreamEliiRN7libmwaw11DebugStreamE.cold
_ZN20RagTime5TextInternal11TextCParser15parseHeaderZoneERSt10shared_ptrI15MWAWInputStreamEliiRN7libmwaw11DebugStreamE
_ZN20RagTime5TextInternal11TextCParser15parseHeaderZoneERSt10shared_ptrI15MWAWInputStreamEliiRN7libmwaw11DebugStreamE.cold
_ZN20RagTime5TextInternal11TextCParser7endZoneEv
_ZN20RagTime5TextInternal11TextCParser9parseZoneERSt10shared_ptrI15MWAWInputStreamEliiRN7libmwaw11DebugStreamE
_ZN20RagTime5TextInternal11TextCParserD0Ev
_ZN20RagTime5TextInternal11TextCParserD1Ev
_ZN20RagTime5TextInternal11TextCParserD2Ev
_ZN20RagTime5TextInternal15ClustListParser9parseDataERSt10shared_ptrI15MWAWInputStreamElR12RagTime5ZoneiRN7libmwaw11DebugStreamE
_ZN20RagTime5TextInternal15ClustListParser9parseDataERSt10shared_ptrI15MWAWInputStreamElR12RagTime5ZoneiRN7libmwaw11DebugStreamE.cold
_ZN20RagTime5TextInternal15ClustListParserD0Ev
_ZN20RagTime5TextInternal15ClustListParserD1Ev
_ZN20RagTime5TextInternal15ClustListParserD2Ev
_ZN20RagTime5TextInternal19BlockCellListParser9parseDataERSt10shared_ptrI15MWAWInputStreamElR12RagTime5ZoneiRN7libmwaw11DebugStreamE
_ZN20RagTime5TextInternal19BlockCellListParser9parseDataERSt10shared_ptrI15MWAWInputStreamElR12RagTime5ZoneiRN7libmwaw11DebugStreamE.cold
_ZN20RagTime5TextInternal19BlockCellListParserD0Ev
_ZN20RagTime5TextInternal19BlockCellListParserD1Ev
_ZN20RagTime5TextInternal19BlockCellListParserD2Ev
_ZN20WriteNowEntryManager3addERK13WriteNowEntry
_ZN20WriteNowEntryManager3addERK13WriteNowEntry.cold
_ZN20WriteNowTextInternal12ContentZonesD1Ev
_ZN20WriteNowTextInternal12ContentZonesD2Ev.lto_priv.0
_ZN20WriteNowTextInternal4Cell11sendContentESt10shared_ptrI12MWAWListenerER9MWAWTable
_ZN20WriteNowTextInternal4Cell11sendContentESt10shared_ptrI12MWAWListenerER9MWAWTable.cold
_ZN20WriteNowTextInternal4CellD0Ev
_ZN20WriteNowTextInternal4CellD1Ev
_ZN20WriteNowTextInternal4CellD2Ev
_ZN20WriteNowTextInternal5StateD1Ev
_ZN20WriteNowTextInternal5StateD2Ev.lto_priv.0
_ZN20WriteNowTextInternal5StyleC1ERKS0_
_ZN20WriteNowTextInternal5StyleC2ERKS0_.lto_priv.0
_ZN20WriteNowTextInternal5StyleC2ERKS0_.lto_priv.0.cold
_ZN20WriteNowTextInternal5StyleD1Ev
_ZN20WriteNowTextInternal5StyleD2Ev.lto_priv.0
_ZN20WriteNowTextInternal5TableD0Ev
_ZN20WriteNowTextInternal5TableD1Ev
_ZN20WriteNowTextInternal5TableD2Ev
_ZN20WriteNowTextInternal9ParagraphD0Ev
_ZN20WriteNowTextInternal9ParagraphD1Ev
_ZN20WriteNowTextInternal9ParagraphD2Ev
_ZN20XDCAMFAM_MetaHandler11GetClipUmidERNSt7__cxx1112basic_stringIcSt11char_traitsIcESaIcEEE
_ZN20XDCAMFAM_MetaHandler11GetClipUmidERNSt7__cxx1112basic_stringIcSt11char_traitsIcESaIcEEE.cold
_ZN20XDCAMFAM_MetaHandler12GetInfoFilesERSt6vectorINSt7__cxx1112basic_stringIcSt11char_traitsIcESaIcEEESaIS6_EES6_
_ZN20XDCAMFAM_MetaHandler12GetInfoFilesERSt6vectorINSt7__cxx1112basic_stringIcSt11char_traitsIcESaIcEEESaIS6_EES6_.cold
_ZN20XDCAMFAM_MetaHandler16GetPlanningFilesERSt6vectorINSt7__cxx1112basic_stringIcSt11char_traitsIcESaIcEEESaIS6_EES6_
_ZN20XDCAMFAM_MetaHandler16GetPlanningFilesERSt6vectorINSt7__cxx1112basic_stringIcSt11char_traitsIcESaIcEEESaIS6_EES6_.cold
_ZN20XDCAMFAM_MetaHandler16MakeClipFilePathEPNSt7__cxx1112basic_stringIcSt11char_traitsIcESaIcEEEPKcb
_ZN20XDCAMFAM_MetaHandler16SetPathVariablesERKNSt7__cxx1112basic_stringIcSt11char_traitsIcESaIcEEE
_ZN20XDCAMFAM_MetaHandler16SetPathVariablesERKNSt7__cxx1112basic_stringIcSt11char_traitsIcESaIcEEE.cold
_ZN20XDCAMFAM_MetaHandler19GetMediaProMetadataEP8TXMPMetaINSt7__cxx1112basic_stringIcSt11char_traitsIcESaIcEEEERKS6_b
_ZN20XDCAMFAM_MetaHandler19GetMediaProMetadataEP8TXMPMetaINSt7__cxx1112basic_stringIcSt11char_traitsIcESaIcEEEERKS6_b.cold
_ZN20XDCAMFAM_MetaHandler23FillAssociatedResourcesEPSt6vectorINSt7__cxx1112basic_stringIcSt11char_traitsIcESaIcEEESaIS6_EE
_ZN20XDCAMFAM_MetaHandler23FillAssociatedResourcesEPSt6vectorINSt7__cxx1112basic_stringIcSt11char_traitsIcESaIcEEESaIS6_EE.cold
_ZN20XDCAMFAM_MetaHandlerD0Ev
_ZN20XDCAMFAM_MetaHandlerD1Ev
_ZN20XDCAMFAM_MetaHandlerD2Ev
_ZN20XDCAMSAM_MetaHandler11GetClipUmidERNSt7__cxx1112basic_stringIcSt11char_traitsIcESaIcEEE
_ZN20XDCAMSAM_MetaHandler11GetClipUmidERNSt7__cxx1112basic_stringIcSt11char_traitsIcESaIcEEE.cold
_ZN20XDCAMSAM_MetaHandler16MakeClipFilePathEPNSt7__cxx1112basic_stringIcSt11char_traitsIcESaIcEEEPKcb
_ZN20XDCAMSAM_MetaHandler16SetPathVariablesERKNSt7__cxx1112basic_stringIcSt11char_traitsIcESaIcEEE
_ZN20XDCAMSAM_MetaHandler16SetPathVariablesERKNSt7__cxx1112basic_stringIcSt11char_traitsIcESaIcEEE.cold
_ZN20XDCAMSAM_MetaHandler23FillAssociatedResourcesEPSt6vectorINSt7__cxx1112basic_stringIcSt11char_traitsIcESaIcEEESaIS6_EE
_ZN20XDCAMSAM_MetaHandler23FillAssociatedResourcesEPSt6vectorINSt7__cxx1112basic_stringIcSt11char_traitsIcESaIcEEESaIS6_EE.cold
_ZN20XDCAMSAM_MetaHandlerD0Ev
_ZN20XDCAMSAM_MetaHandlerD1Ev
_ZN20XDCAMSAM_MetaHandlerD2Ev
_ZN21BeagleWksTextInternal11SubDocument5parseERSt10shared_ptrI12MWAWListenerEN7libmwaw15SubDocumentTypeE
_ZN21BeagleWksTextInternal11SubDocument5parseERSt10shared_ptrI12MWAWListenerEN7libmwaw15SubDocumentTypeE.cold
_ZN21BeagleWksTextInternal11SubDocumentD0Ev
_ZN21BeagleWksTextInternal11SubDocumentD1Ev.lto_priv.0
_ZN21BeagleWksTextInternal11SubDocumentD2Ev.lto_priv.0
_ZN21BeagleWksTextInternal7SectionD0Ev
_ZN21BeagleWksTextInternal7SectionD1Ev
_ZN21BeagleWksTextInternal7SectionD2Ev
_ZN21ClarisWksDbaseContent11readContentEv
_ZN21ClarisWksDbaseContent11readContentEv.cold
_ZN21ClarisWksDbaseContent11readFormulaERK8MWAWVec2IiElRSt6vectorIN15MWAWCellContent18FormulaInstructionESaIS6_EERNSt7__cxx1112basic_stringIcSt11char_traitsIcESaIcEEE
_ZN21ClarisWksDbaseContent11readFormulaERK8MWAWVec2IiElRSt6vectorIN15MWAWCellContent18FormulaInstructionESaIS6_EERNSt7__cxx1112basic_stringIcSt11char_traitsIcESaIcEEE.cold
_ZN21ClarisWksDbaseContent14readRecordListERK8MWAWVec2IiERNS_6ColumnE
_ZN21ClarisWksDbaseContent14readRecordListERK8MWAWVec2IiERNS_6ColumnE.cold
_ZN21ClarisWksDbaseContent17readCellInFormulaERK8MWAWVec2IiERN15MWAWCellContent18FormulaInstructionE
_ZN21ClarisWksDbaseContent17readCellInFormulaERK8MWAWVec2IiERN15MWAWCellContent18FormulaInstructionE.cold
_ZN21ClarisWksDbaseContent6RecordC1Ev
_ZN21ClarisWksDbaseContent6RecordC2Ev.lto_priv.0
_ZN21ClarisWksDbaseContent6RecordC2Ev.lto_priv.0.cold
_ZN21ClarisWksDbaseContent6RecordD1Ev
_ZN21ClarisWksDbaseContent6RecordD2Ev.lto_priv.0
_ZN21ClarisWksDbaseContentC1ER17ClarisWksDocumentb
_ZN21ClarisWksDbaseContentC2ER17ClarisWksDocumentb
_ZN21ClarisWksDbaseContentD1Ev
_ZN21ClarisWksDbaseContentD2Ev
_ZN21ClarisWksPresentation20readPresentationZoneERKN15ClarisWksStruct4DSETERK9MWAWEntryRb
_ZN21ClarisWksPresentation20readPresentationZoneERKN15ClarisWksStruct4DSETERK9MWAWEntryRb.cold
_ZN21ClarisWksPresentationD0Ev
_ZN21ClarisWksPresentationD1Ev
_ZN21ClarisWksPresentationD2Ev
_ZN21ClarisWksStyleManager10CellFormatD0Ev
_ZN21ClarisWksStyleManager10CellFormatD1Ev
_ZN21ClarisWksStyleManager10CellFormatD2Ev
_ZN21ClarisWksStyleManager12readGenStyleEi.isra.0
_ZN21ClarisWksStyleManager12readGenStyleEi.isra.0.cold
_ZN21ClarisWksStyleManager13readFontNamesEv
_ZN21ClarisWksStyleManager13readFontNamesEv.cold
_ZN21ClarisWksStyleManager13readStylesDefEii
_ZN21ClarisWksStyleManager13readStylesDefEii.cold
_ZN21ClarisWksStyleManager14readCellStylesEii
_ZN21ClarisWksStyleManager14readCellStylesEii.cold
_ZN21ClarisWksStyleManager14readFontAndPosEiRiR8MWAWFont.isra.0
_ZN21ClarisWksStyleManager14readFontAndPosEiRiR8MWAWFont.isra.0.cold
_ZN21ClarisWksStyleManager15readPatternListEl.constprop.0
_ZN21ClarisWksStyleManager15readPatternListEl.constprop.0.cold
_ZN21ClarisWksStyleManager16readGradientListEl
_ZN21ClarisWksStyleManager16readGradientListEl.cold
_ZN21ClarisWksTextInternal11SubDocument5parseERSt10shared_ptrI12MWAWListenerEN7libmwaw15SubDocumentTypeE
_ZN21ClarisWksTextInternal11SubDocument5parseERSt10shared_ptrI12MWAWListenerEN7libmwaw15SubDocumentTypeE.cold
_ZN21ClarisWksTextInternal11SubDocumentD0Ev
_ZN21ClarisWksTextInternal11SubDocumentD1Ev
_ZN21ClarisWksTextInternal11SubDocumentD2Ev
_ZN21ClarisWksTextInternal4Zone11removeChildEib
_ZN21ClarisWksTextInternal4ZoneD0Ev
_ZN21ClarisWksTextInternal4ZoneD1Ev
_ZN21ClarisWksTextInternal4ZoneD2Ev
_ZN21ClarisWksTextInternal7SectionD1Ev
_ZN21ClarisWksTextInternal7SectionD2Ev.lto_priv.0
_ZN21ClarisWksTextInternal9ParagraphD0Ev
_ZN21ClarisWksTextInternal9ParagraphD1Ev
_ZN21ClarisWksTextInternal9ParagraphD2Ev
_ZN21FullWrtParserInternal11SubDocument5parseERSt10shared_ptrI12MWAWListenerEN7libmwaw15SubDocumentTypeE
_ZN21FullWrtParserInternal11SubDocumentD0Ev
_ZN21FullWrtParserInternal11SubDocumentD1Ev
_ZN21FullWrtParserInternal11SubDocumentD2Ev
_ZN21GreatWksGraphInternal10FrameGroupD0Ev
_ZN21GreatWksGraphInternal10FrameGroupD1Ev
_ZN21GreatWksGraphInternal10FrameGroupD2Ev
_ZN21GreatWksGraphInternal10FrameShapeD0Ev
_ZN21GreatWksGraphInternal10FrameShapeD1Ev
_ZN21GreatWksGraphInternal10FrameShapeD2Ev
_ZN21GreatWksGraphInternal11SubDocument5parseERSt10shared_ptrI12MWAWListenerEN7libmwaw15SubDocumentTypeE
_ZN21GreatWksGraphInternal11SubDocument5parseERSt10shared_ptrI12MWAWListenerEN7libmwaw15SubDocumentTypeE.cold
_ZN21GreatWksGraphInternal11SubDocumentD0Ev
_ZN21GreatWksGraphInternal11SubDocumentD1Ev
_ZN21GreatWksGraphInternal11SubDocumentD2Ev
_ZN21GreatWksGraphInternal12FrameDBFieldD0Ev
_ZN21GreatWksGraphInternal12FrameDBFieldD1Ev
_ZN21GreatWksGraphInternal12FrameDBFieldD2Ev
_ZN21GreatWksGraphInternal12FramePictureD0Ev
_ZN21GreatWksGraphInternal12FramePictureD1Ev
_ZN21GreatWksGraphInternal12FramePictureD2Ev
_ZN21GreatWksGraphInternal4ZoneC1ERKS0_
_ZN21GreatWksGraphInternal4ZoneC2ERKS0_
_ZN21GreatWksGraphInternal4ZoneC2ERKS0_.cold
_ZN21GreatWksGraphInternal4ZoneD1Ev
_ZN21GreatWksGraphInternal4ZoneD2Ev.lto_priv.0
_ZN21GreatWksGraphInternal5FrameD0Ev
_ZN21GreatWksGraphInternal5FrameD1Ev
_ZN21GreatWksGraphInternal5FrameD2Ev
_ZN21GreatWksGraphInternal8FrameBadD0Ev
_ZN21GreatWksGraphInternal8FrameBadD1Ev
_ZN21GreatWksGraphInternal8FrameBadD2Ev
_ZN21GreatWksGraphInternal9FrameTextD0Ev
_ZN21GreatWksGraphInternal9FrameTextD1Ev
_ZN21GreatWksGraphInternal9FrameTextD2Ev
_ZN21MWAWFontSJISConverterC1Ev
_ZN21MWAWFontSJISConverterC2Ev
_ZN21MWAWFontSJISConverterC2Ev.cold
_ZN21MWAWOLEParserInternal6OleDefD1Ev
_ZN21MWAWOLEParserInternal6OleDefD2Ev.lto_priv.0
_ZN21MWAWOLEParserInternal7CompObj10initCLSMapEv
_ZN21MWAWPictBitmapIndexedC1ERK8MWAWVec2IiE
_ZN21MWAWPictBitmapIndexedC2ERK8MWAWVec2IiE.lto_priv.0
_ZN21MWAWPictBitmapIndexedC2ERK8MWAWVec2IiE.lto_priv.0.cold
_ZN21MWAWPictBitmapIndexedD0Ev
_ZN21MWAWPictBitmapIndexedD1Ev.lto_priv.0
_ZN21MWAWPictBitmapIndexedD2Ev.lto_priv.0
_ZN21MWAWSpreadsheetParserD2Ev
_ZN21MacDraft5StyleManager12readResourceER9MWAWEntryb
_ZN21MacDraft5StyleManager12readResourceER9MWAWEntryb.cold
_ZN21MacDraft5StyleManager13readResourcesEv.isra.0
_ZN21MacDraft5StyleManager13readResourcesEv.isra.0.cold
_ZN21MacDraft5StyleManager18updateSurfaceStyleB5cxx11EiiR16MWAWGraphicStyle
_ZN21MacDraft5StyleManager18updateSurfaceStyleB5cxx11EiiR16MWAWGraphicStyle.cold
_ZN21MacDraft5StyleManagerD0Ev
_ZN21MacDraft5StyleManagerD1Ev
_ZN21MacDraft5StyleManagerD2Ev
_ZN21MacDrawParserInternal11SubDocument5parseERSt10shared_ptrI12MWAWListenerEN7libmwaw15SubDocumentTypeE
_ZN21MacDrawParserInternal11SubDocument5parseERSt10shared_ptrI12MWAWListenerEN7libmwaw15SubDocumentTypeE.cold
_ZN21MacDrawParserInternal11SubDocumentD0Ev
_ZN21MacDrawParserInternal11SubDocumentD1Ev
_ZN21MacDrawParserInternal11SubDocumentD2Ev
_ZN21MacDrawParserInternal5ShapeD1Ev
_ZN21MacDrawParserInternal5ShapeD2Ev
_ZN21MindWrtParserInternal11SubDocument5parseERSt10shared_ptrI12MWAWListenerEN7libmwaw15SubDocumentTypeE
_ZN21MindWrtParserInternal11SubDocumentD0Ev
_ZN21MindWrtParserInternal11SubDocumentD1Ev
_ZN21MindWrtParserInternal11SubDocumentD2Ev
_ZN21MindWrtParserInternal5StateD1Ev
_ZN21MindWrtParserInternal5StateD2Ev.lto_priv.0
_ZN21MindWrtParserInternal8LineInfoD1Ev
_ZN21MindWrtParserInternal8LineInfoD2Ev.lto_priv.0
_ZN21MindWrtParserInternal8ZoneInfo12updateListIdERKNS_14ListPropertiesER15MWAWListManager
_ZN21MindWrtParserInternal8ZoneInfo12updateListIdERKNS_14ListPropertiesER15MWAWListManager.cold
_ZN21MsWksDBParserInternal4FormC1ERKS0_
_ZN21MsWksDBParserInternal4FormC2ERKS0_.lto_priv.0
_ZN21MsWksDBParserInternal4FormC2ERKS0_.lto_priv.0.cold
_ZN21MsWksDBParserInternal5StateD1Ev
_ZN21MsWksDBParserInternal5StateD2Ev.lto_priv.0
_ZN21MsWksDBParserInternal8FormTypeD1Ev
_ZN21MsWksDBParserInternal8FormTypeD2Ev.lto_priv.0
_ZN21MsWksDBParserInternal9FieldTypeD0Ev
_ZN21MsWksDBParserInternal9FieldTypeD1Ev
_ZN21MsWksDBParserInternal9FieldTypeD2Ev
_ZN21MsWksDocumentInternal11SubDocument5parseERSt10shared_ptrI12MWAWListenerEN7libmwaw15SubDocumentTypeE
_ZN21MsWksDocumentInternal11SubDocument5parseERSt10shared_ptrI12MWAWListenerEN7libmwaw15SubDocumentTypeE.cold
_ZN21MsWksDocumentInternal11SubDocumentD0Ev
_ZN21MsWksDocumentInternal11SubDocumentD1Ev
_ZN21MsWksDocumentInternal11SubDocumentD2Ev
_ZN21MsWksDocumentInternal5State10getPaletteEi
_ZN21MsWksDocumentInternal5StateD1Ev
_ZN21MsWksDocumentInternal5StateD2Ev.lto_priv.0
_ZN21MsWksSSParserInternal11SpreadsheetD1Ev
_ZN21MsWksSSParserInternal11SpreadsheetD2Ev.lto_priv.0
_ZN21MsWksSSParserInternal11SubDocument5parseERSt10shared_ptrI12MWAWListenerEN7libmwaw15SubDocumentTypeE
_ZN21MsWksSSParserInternal11SubDocumentD0Ev
_ZN21MsWksSSParserInternal11SubDocumentD1Ev
_ZN21MsWksSSParserInternal11SubDocumentD2Ev
_ZN21MsWksSSParserInternal4CellD0Ev
_ZN21MsWksSSParserInternal4CellD1Ev
_ZN21MsWksSSParserInternal4CellD2Ev
_ZN21NisusWrtGraphInternal11SubDocument5parseERSt10shared_ptrI12MWAWListenerEN7libmwaw15SubDocumentTypeE
_ZN21NisusWrtGraphInternal11SubDocument5parseERSt10shared_ptrI12MWAWListenerEN7libmwaw15SubDocumentTypeE.cold
_ZN21NisusWrtGraphInternal11SubDocumentD0Ev
_ZN21NisusWrtGraphInternal11SubDocumentD1Ev
_ZN21NisusWrtGraphInternal11SubDocumentD2Ev
_ZN21OrderedListLevelStyleD0Ev
_ZN21OrderedListLevelStyleD1Ev
_ZN21OrderedListLevelStyleD2Ev
_ZN21PackageFormat_Support19AddResourceIfExistsEPSt6vectorINSt7__cxx1112basic_stringIcSt11char_traitsIcESaIcEEESaIS6_EERKS6_
_ZN21PackageFormat_Support19AddResourceIfExistsEPSt6vectorINSt7__cxx1112basic_stringIcSt11char_traitsIcESaIcEEESaIS6_EERKS6_PKcSD_
_ZN21PackageFormat_Support19AddResourceIfExistsEPSt6vectorINSt7__cxx1112basic_stringIcSt11char_traitsIcESaIcEEESaIS6_EERKS6_PKcSD_.cold
_ZN21ParagraphStyleManager5cleanEv
_ZN21ParagraphStyleManager9findOrAddERKN10librevenge16RVNGPropertyListEN5Style4ZoneE
_ZN21ParagraphStyleManager9findOrAddERKN10librevenge16RVNGPropertyListEN5Style4ZoneE.cold
_ZN21ParagraphStyleManagerD0Ev
_ZN21ParagraphStyleManagerD1Ev.lto_priv.0
_ZN21ParagraphStyleManagerD2Ev.lto_priv.0
_ZN21RagTime5ChartInternal11SettingZoneD1Ev
_ZN21RagTime5ChartInternal12ChartCParser10getClusterEv
_ZN21RagTime5ChartInternal12ChartCParser10parseFieldERKN21RagTime5StructManager5FieldEiRN7libmwaw11DebugStreamE
_ZN21RagTime5ChartInternal12ChartCParser13parseDataZoneERSt10shared_ptrI15MWAWInputStreamEliiRN7libmwaw11DebugStreamE
_ZN21RagTime5ChartInternal12ChartCParser13parseDataZoneERSt10shared_ptrI15MWAWInputStreamEliiRN7libmwaw11DebugStreamE.cold
_ZN21RagTime5ChartInternal12ChartCParser17getNewZoneToParseEv
_ZN21RagTime5ChartInternal12ChartCParser20insertZoneToBeParsedEiRKNS0_8ZoneTypeEb
_ZN21RagTime5ChartInternal12ChartCParser7endZoneEv
_ZN21RagTime5ChartInternal12ChartCParser7endZoneEv.cold
_ZN21RagTime5ChartInternal12ChartCParser9parseZoneERSt10shared_ptrI15MWAWInputStreamEliiRN7libmwaw11DebugStreamE
_ZN21RagTime5ChartInternal12ChartCParserD0Ev
_ZN21RagTime5ChartInternal12ChartCParserD1Ev
_ZN21RagTime5ChartInternal12ChartCParserD2Ev
_ZN21RagTime5ChartInternal12ClusterChartD0Ev
_ZN21RagTime5ChartInternal12ClusterChartD1Ev
_ZN21RagTime5ChartInternal12ClusterChartD2Ev
_ZN21RagTime5ChartInternal12DoubleParser9parseDataERSt10shared_ptrI15MWAWInputStreamElR12RagTime5ZoneiRN7libmwaw11DebugStreamE
_ZN21RagTime5ChartInternal12DoubleParserD0Ev
_ZN21RagTime5ChartInternal12DoubleParserD1Ev
_ZN21RagTime5ChartInternal12DoubleParserD2Ev
_ZN21RagTime5ChartInternal12UnknownZone3D1Ev
_ZN21RagTime5ChartInternal12UnknownZone3D2Ev.lto_priv.0
_ZN21RagTime5ChartInternal15ClustListParser9parseDataERSt10shared_ptrI15MWAWInputStreamElR12RagTime5ZoneiRN7libmwaw11DebugStreamE
_ZN21RagTime5ChartInternal15ClustListParser9parseDataERSt10shared_ptrI15MWAWInputStreamElR12RagTime5ZoneiRN7libmwaw11DebugStreamE.cold
_ZN21RagTime5ChartInternal15ClustListParserD0Ev
_ZN21RagTime5ChartInternal15ClustListParserD1Ev
_ZN21RagTime5ChartInternal15ClustListParserD2Ev
_ZN21RagTime5ChartInternal15SerieTypeParser9parseDataERSt10shared_ptrI15MWAWInputStreamElR12RagTime5ZoneiRN7libmwaw11DebugStreamE
_ZN21RagTime5ChartInternal15SerieTypeParserD0Ev
_ZN21RagTime5ChartInternal15SerieTypeParserD1Ev
_ZN21RagTime5ChartInternal15SerieTypeParserD2Ev
_ZN21RagTime5ChartInternal16ChildTZoneParser9parseDataERSt10shared_ptrI15MWAWInputStreamElR12RagTime5ZoneiRN7libmwaw11DebugStreamE
_ZN21RagTime5ChartInternal16ChildTZoneParserD0Ev
_ZN21RagTime5ChartInternal16ChildTZoneParserD1Ev
_ZN21RagTime5ChartInternal16ChildTZoneParserD2Ev
_ZN21RagTime5ChartInternal18ZoneUnknown1Parser9parseDataERSt10shared_ptrI15MWAWInputStreamElR12RagTime5ZoneiRN7libmwaw11DebugStreamE
_ZN21RagTime5ChartInternal18ZoneUnknown1ParserD0Ev
_ZN21RagTime5ChartInternal18ZoneUnknown1ParserD1Ev
_ZN21RagTime5ChartInternal18ZoneUnknown1ParserD2Ev
_ZN21RagTime5ChartInternal18ZoneUnknown3Parser9parseDataERSt10shared_ptrI15MWAWInputStreamElR12RagTime5ZoneiRN7libmwaw11DebugStreamE
_ZN21RagTime5ChartInternal18ZoneUnknown3ParserD0Ev
_ZN21RagTime5ChartInternal18ZoneUnknown3ParserD1Ev
_ZN21RagTime5ChartInternal18ZoneUnknown3ParserD2Ev
_ZN21RagTime5GraphInternal11FloatParser9parseDataERSt10shared_ptrI15MWAWInputStreamElR12RagTime5ZoneiRN7libmwaw11DebugStreamE
_ZN21RagTime5GraphInternal11FloatParserD0Ev
_ZN21RagTime5GraphInternal11FloatParserD1Ev
_ZN21RagTime5GraphInternal11FloatParserD2Ev
_ZN21RagTime5GraphInternal11PictCParser10getClusterEv
_ZN21RagTime5GraphInternal11PictCParser10parseFieldERKN21RagTime5StructManager5FieldEiRN7libmwaw11DebugStreamE
_ZN21RagTime5GraphInternal11PictCParser17getNewZoneToParseEv
_ZN21RagTime5GraphInternal11PictCParser7endZoneEv
_ZN21RagTime5GraphInternal11PictCParser9parseZoneERSt10shared_ptrI15MWAWInputStreamEliiRN7libmwaw11DebugStreamE
_ZN21RagTime5GraphInternal11PictCParser9parseZoneERSt10shared_ptrI15MWAWInputStreamEliiRN7libmwaw11DebugStreamE.cold
_ZN21RagTime5GraphInternal11PictCParserD0Ev
_ZN21RagTime5GraphInternal11PictCParserD1Ev
_ZN21RagTime5GraphInternal11PictCParserD2Ev
_ZN21RagTime5GraphInternal11SubDocument5parseERSt10shared_ptrI12MWAWListenerEN7libmwaw15SubDocumentTypeE
_ZN21RagTime5GraphInternal11SubDocument5parseERSt10shared_ptrI12MWAWListenerEN7libmwaw15SubDocumentTypeE.cold
_ZN21RagTime5GraphInternal11SubDocumentD0Ev
_ZN21RagTime5GraphInternal11SubDocumentD1Ev
_ZN21RagTime5GraphInternal11SubDocumentD2Ev
_ZN21RagTime5GraphInternal13ButtonCParser10getClusterEv
_ZN21RagTime5GraphInternal13ButtonCParser10parseFieldERKN21RagTime5StructManager5FieldEiRN7libmwaw11DebugStreamE
_ZN21RagTime5GraphInternal13ButtonCParser17getNewZoneToParseEv
_ZN21RagTime5GraphInternal13ButtonCParser7endZoneEv
_ZN21RagTime5GraphInternal13ButtonCParser9parseZoneERSt10shared_ptrI15MWAWInputStreamEliiRN7libmwaw11DebugStreamE
_ZN21RagTime5GraphInternal13ButtonCParser9parseZoneERSt10shared_ptrI15MWAWInputStreamEliiRN7libmwaw11DebugStreamE.cold
_ZN21RagTime5GraphInternal13ButtonCParserD0Ev
_ZN21RagTime5GraphInternal13ButtonCParserD1Ev
_ZN21RagTime5GraphInternal13ButtonCParserD2Ev
_ZN21RagTime5GraphInternal13ClusterButtonD0Ev
_ZN21RagTime5GraphInternal13ClusterButtonD1Ev
_ZN21RagTime5GraphInternal13ClusterButtonD2Ev
_ZN21RagTime5GraphInternal13IntListParser9parseDataERSt10shared_ptrI15MWAWInputStreamElR12RagTime5ZoneiRN7libmwaw11DebugStreamE
_ZN21RagTime5GraphInternal13IntListParserD0Ev
_ZN21RagTime5GraphInternal13IntListParserD1Ev
_ZN21RagTime5GraphInternal13IntListParserD2Ev
_ZN21RagTime5GraphInternal14ClusterGraphicD0Ev
_ZN21RagTime5GraphInternal14ClusterGraphicD1Ev
_ZN21RagTime5GraphInternal14ClusterGraphicD2Ev
_ZN21RagTime5GraphInternal14ClusterPictureD0Ev
_ZN21RagTime5GraphInternal14ClusterPictureD1Ev
_ZN21RagTime5GraphInternal14ClusterPictureD2Ev
_ZN21RagTime5GraphInternal14GraphicCParser10getClusterEv
_ZN21RagTime5GraphInternal14GraphicCParser10parseFieldERKN21RagTime5StructManager5FieldEiRN7libmwaw11DebugStreamE
_ZN21RagTime5GraphInternal14GraphicCParser13parseDataZoneERSt10shared_ptrI15MWAWInputStreamEliiRN7libmwaw11DebugStreamE
_ZN21RagTime5GraphInternal14GraphicCParser13parseDataZoneERSt10shared_ptrI15MWAWInputStreamEliiRN7libmwaw11DebugStreamE.cold
_ZN21RagTime5GraphInternal14GraphicCParser15parseHeaderZoneERSt10shared_ptrI15MWAWInputStreamEliiRN7libmwaw11DebugStreamE.constprop.0
_ZN21RagTime5GraphInternal14GraphicCParser15parseHeaderZoneERSt10shared_ptrI15MWAWInputStreamEliiRN7libmwaw11DebugStreamE.constprop.0.cold
_ZN21RagTime5GraphInternal14GraphicCParser15setExpectedTypeEii
_ZN21RagTime5GraphInternal14GraphicCParser17getNewZoneToParseEv
_ZN21RagTime5GraphInternal14GraphicCParser7endZoneEv
_ZN21RagTime5GraphInternal14GraphicCParser9parseZoneERSt10shared_ptrI15MWAWInputStreamEliiRN7libmwaw11DebugStreamE
_ZN21RagTime5GraphInternal14GraphicCParserD0Ev
_ZN21RagTime5GraphInternal14GraphicCParserD1Ev
_ZN21RagTime5GraphInternal14GraphicCParserD2Ev
_ZN21RagTime5GraphInternal15ClustListParser9parseDataERSt10shared_ptrI15MWAWInputStreamElR12RagTime5ZoneiRN7libmwaw11DebugStreamE
_ZN21RagTime5GraphInternal15ClustListParser9parseDataERSt10shared_ptrI15MWAWInputStreamElR12RagTime5ZoneiRN7libmwaw11DebugStreamE.cold
_ZN21RagTime5GraphInternal15ClustListParserD0Ev
_ZN21RagTime5GraphInternal15ClustListParserD1Ev
_ZN21RagTime5GraphInternal15ClustListParserD2Ev
_ZN21RagTime5GraphInternal5State14getPictureTypeERKNSt7__cxx1112basic_stringIcSt11char_traitsIcESaIcEEE
_ZN21RagTime5StructManager10DataParser9parseDataERSt10shared_ptrI15MWAWInputStreamElR12RagTime5ZoneiRN7libmwaw11DebugStreamE
_ZN21RagTime5StructManager10DataParserC1ERKNSt7__cxx1112basic_stringIcSt11char_traitsIcESaIcEEE
_ZN21RagTime5StructManager10DataParserC2ERKNSt7__cxx1112basic_stringIcSt11char_traitsIcESaIcEEE
_ZN21RagTime5StructManager10DataParserD0Ev
_ZN21RagTime5StructManager10DataParserD1Ev
_ZN21RagTime5StructManager10DataParserD2Ev
_ZN21RagTime5StructManager11FieldParser10parseFieldERNS_5FieldER12RagTime5ZoneiRN7libmwaw11DebugStreamE
_ZN21RagTime5StructManager11FieldParser16parseHeaderFieldERNS_5FieldER12RagTime5ZoneiRN7libmwaw11DebugStreamE
_ZN21RagTime5StructManager11FieldParserD0Ev
_ZN21RagTime5StructManager11FieldParserD1Ev
_ZN21RagTime5StructManager11FieldParserD2Ev
_ZN21RagTime5StructManager14readDataIdListESt10shared_ptrI15MWAWInputStreamEiRSt6vectorIiSaIiEE
_ZN21RagTime5StructManager14readDataIdListESt10shared_ptrI15MWAWInputStreamEiRSt6vectorIiSaIiEE.cold
_ZN21RagTime5StructManager17readUnicodeStringESt10shared_ptrI15MWAWInputStreamElRN10librevenge10RVNGStringE
_ZN21RagTime5StructManager18readCompressedLongERSt10shared_ptrI15MWAWInputStreamElRl
_ZN21RagTime5StructManager18readCompressedLongERSt10shared_ptrI15MWAWInputStreamElRl.cold
_ZN21RagTime5StructManager19GObjPropFieldParser10parseFieldERNS_5FieldER12RagTime5ZoneiRN7libmwaw11DebugStreamE
_ZN21RagTime5StructManager19GObjPropFieldParserD0Ev
_ZN21RagTime5StructManager19GObjPropFieldParserD1Ev.lto_priv.0
_ZN21RagTime5StructManager19GObjPropFieldParserD2Ev.lto_priv.0
_ZN21RagTime5StructManager5FieldC1ERKS0_
_ZN21RagTime5StructManager5FieldC1Ev
_ZN21RagTime5StructManager5FieldC2ERKS0_.lto_priv.0
_ZN21RagTime5StructManager5FieldC2ERKS0_.lto_priv.0.cold
_ZN21RagTime5StructManager5FieldC2Ev.lto_priv.0
_ZN21RagTime5StructManager5FieldC2Ev.lto_priv.0.cold
_ZN21RagTime5StructManager5FieldD1Ev
_ZN21RagTime5StructManager5FieldD2Ev.lto_priv.0
_ZN21RagTime5StructManager9printTypeB5cxx11Em
_ZN21RagTime5StructManager9printTypeB5cxx11Em.cold
_ZN21RagTime5StructManager9readFieldESt10shared_ptrI15MWAWInputStreamElRN7libmwaw9DebugFileERNS_5FieldEl.isra.0
_ZN21RagTime5StructManager9readFieldESt10shared_ptrI15MWAWInputStreamElRN7libmwaw9DebugFileERNS_5FieldEl.isra.0.cold
_ZN21RagTimeParserInternal11SubDocument5parseERSt10shared_ptrI12MWAWListenerEN7libmwaw15SubDocumentTypeE
_ZN21RagTimeParserInternal11SubDocument5parseERSt10shared_ptrI12MWAWListenerEN7libmwaw15SubDocumentTypeE.cold
_ZN21RagTimeParserInternal11SubDocumentD0Ev
_ZN21RagTimeParserInternal11SubDocumentD1Ev
_ZN21RagTimeParserInternal11SubDocumentD2Ev
_ZN21RagTimeParserInternal5StateD1Ev
_ZN21RagTimeParserInternal5StateD2Ev
_ZN21RagTimeParserInternal7PatternD0Ev
_ZN21RagTimeParserInternal7PatternD1Ev
_ZN21RagTimeParserInternal7PatternD2Ev
_ZN21StudentWritingCParser11checkHeaderEP10MWAWHeaderb
_ZN21StudentWritingCParser11checkHeaderEP10MWAWHeaderb.cold
_ZN21StudentWritingCParser11createZonesEv
_ZN21StudentWritingCParser11createZonesEv.cold
_ZN21StudentWritingCParser11sendPictureERK12MWAWPositioni.isra.0
_ZN21StudentWritingCParser11sendPictureERK12MWAWPositioni.isra.0.cold
_ZN21StudentWritingCParser13readFontsListERK9MWAWEntry
_ZN21StudentWritingCParser13readFontsListERK9MWAWEntry.cold
_ZN21StudentWritingCParser13readParagraphERN29StudentWritingCParserInternal4ZoneE.isra.0
_ZN21StudentWritingCParser13readParagraphERN29StudentWritingCParserInternal4ZoneE.isra.0.cold
_ZN21StudentWritingCParser13readPrintInfoEv
_ZN21StudentWritingCParser13readPrintInfoEv.cold
_ZN21StudentWritingCParser14createDocumentEPN10librevenge17RVNGTextInterfaceE
_ZN21StudentWritingCParser14createDocumentEPN10librevenge17RVNGTextInterfaceE.cold
_ZN21StudentWritingCParser5parseEPN10librevenge17RVNGTextInterfaceE
_ZN21StudentWritingCParser5parseEPN10librevenge17RVNGTextInterfaceE.cold
_ZN21StudentWritingCParser8sendTextERKN29StudentWritingCParserInternal4ZoneES3_b
_ZN21StudentWritingCParser8sendTextERKN29StudentWritingCParserInternal4ZoneES3_b.cold
_ZN21StudentWritingCParser8sendZoneEi
_ZN21StudentWritingCParser8sendZoneEi.cold
_ZN21StudentWritingCParserC1ERKSt10shared_ptrI15MWAWInputStreamERKS0_I14MWAWRSRCParserEP10MWAWHeader
_ZN21StudentWritingCParserC2ERKSt10shared_ptrI15MWAWInputStreamERKS0_I14MWAWRSRCParserEP10MWAWHeader
_ZN21StudentWritingCParserC2ERKSt10shared_ptrI15MWAWInputStreamERKS0_I14MWAWRSRCParserEP10MWAWHeader.cold
_ZN21StudentWritingCParserD0Ev
_ZN21StudentWritingCParserD1Ev
_ZN21StudentWritingCParserD2Ev
_ZN22BeagleWksStructManager11readFormulaElRK8MWAWVec2IiERSt6vectorIN15MWAWCellContent18FormulaInstructionESaIS6_EERNSt7__cxx1112basic_stringIcSt11char_traitsIcESaIcEEE
_ZN22BeagleWksStructManager11readFormulaElRK8MWAWVec2IiERSt6vectorIN15MWAWCellContent18FormulaInstructionESaIS6_EERNSt7__cxx1112basic_stringIcSt11char_traitsIcESaIcEEE.cold
_ZN22BeagleWksStructManager11readPictureEiRN10librevenge14RVNGBinaryDataEb
_ZN22BeagleWksStructManager11readPictureEiRN10librevenge14RVNGBinaryDataEb.cold
_ZN22BeagleWksStructManager13readFontNamesERK9MWAWEntry.isra.0
_ZN22BeagleWksStructManager13readFontNamesERK9MWAWEntry.isra.0.cold
_ZN22BeagleWksStructManager13readFontStyleERK9MWAWEntry.isra.0
_ZN22BeagleWksStructManager13readFontStyleERK9MWAWEntry.isra.0.cold
_ZN22BeagleWksStructManager16readDocumentInfoEv
_ZN22BeagleWksStructManager16readDocumentInfoEv.cold
_ZN22BeagleWksStructManager17readCellInFormulaE8MWAWVec2IiERN15MWAWCellContent18FormulaInstructionE
_ZN22BeagleWksStructManager17readCellInFormulaE8MWAWVec2IiERN15MWAWCellContent18FormulaInstructionE.cold
_ZN22BeagleWksStructManager23readDocumentPreferencesEv
_ZN22BeagleWksStructManager23readDocumentPreferencesEv.cold
_ZN22BeagleWksStructManager5FrameD1Ev
_ZN22BeagleWksStructManager5FrameD2Ev.lto_priv.0
_ZN22BeagleWksStructManager8readwPosERK9MWAWEntry.isra.0
_ZN22BeagleWksStructManager8readwPosERK9MWAWEntry.isra.0.cold
_ZN22BeagleWksStructManager9readFrameERK9MWAWEntry.isra.0
_ZN22BeagleWksStructManager9readFrameERK9MWAWEntry.isra.0.cold
_ZN22BeagleWksStructManagerC1ERKSt10shared_ptrI15MWAWParserStateE
_ZN22BeagleWksStructManagerC2ERKSt10shared_ptrI15MWAWParserStateE
_ZN22BeagleWksStructManagerC2ERKSt10shared_ptrI15MWAWParserStateE.cold
_ZN22BeagleWksStructManagerD1Ev
_ZN22BeagleWksStructManagerD2Ev
_ZN22ClarisDrawStyleManager10readArrowsEv
_ZN22ClarisDrawStyleManager10readArrowsEv.cold
_ZN22ClarisDrawStyleManager10readRulersEv
_ZN22ClarisDrawStyleManager10readRulersEv.cold
_ZN22ClarisDrawStyleManager13readColorListEv
_ZN22ClarisDrawStyleManager13readColorListEv.cold
_ZN22ClarisDrawStyleManager15readPatternListEv
_ZN22ClarisDrawStyleManager15readPatternListEv.cold
_ZN22ClarisDrawStyleManager16readGradientListEv
_ZN22ClarisDrawStyleManager16readGradientListEv.cold
_ZN22ClarisDrawStyleManager9readDashsEv
_ZN22ClarisDrawStyleManager9readDashsEv.cold
_ZN22ClarisDrawStyleManagerD0Ev
_ZN22ClarisDrawStyleManagerD1Ev
_ZN22ClarisDrawStyleManagerD2Ev
_ZN22ClarisDrawTextInternal4DSETD0Ev
_ZN22ClarisDrawTextInternal4DSETD1Ev
_ZN22ClarisDrawTextInternal4DSETD2Ev
_ZN22ClarisDrawTextInternal5StateD1Ev
_ZN22ClarisDrawTextInternal5StateD2Ev.lto_priv.0
_ZN22ClarisDrawTextInternal9ParagraphD0Ev
_ZN22ClarisDrawTextInternal9ParagraphD1Ev
_ZN22ClarisDrawTextInternal9ParagraphD2Ev
_ZN22ClarisWksGraphInternal11SubDocument5parseERSt10shared_ptrI12MWAWListenerEN7libmwaw15SubDocumentTypeE
_ZN22ClarisWksGraphInternal11SubDocument5parseERSt10shared_ptrI12MWAWListenerEN7libmwaw15SubDocumentTypeE.cold
_ZN22ClarisWksGraphInternal11SubDocumentC1ER14ClarisWksGraphRKSt10shared_ptrI15MWAWInputStreamEiRK12MWAWPosition
_ZN22ClarisWksGraphInternal11SubDocumentC2ER14ClarisWksGraphRKSt10shared_ptrI15MWAWInputStreamEiRK12MWAWPosition.lto_priv.0
_ZN22ClarisWksGraphInternal11SubDocumentC2ER14ClarisWksGraphRKSt10shared_ptrI15MWAWInputStreamEiRK12MWAWPosition.lto_priv.0.cold
_ZN22ClarisWksGraphInternal11SubDocumentD0Ev
_ZN22ClarisWksGraphInternal11SubDocumentD1Ev
_ZN22ClarisWksGraphInternal11SubDocumentD2Ev.lto_priv.0
_ZN22ClarisWksGraphInternal11ZoneUnknownD0Ev
_ZN22ClarisWksGraphInternal11ZoneUnknownD1Ev
_ZN22ClarisWksGraphInternal11ZoneUnknownD2Ev
_ZN22ClarisWksGraphInternal4ZoneD0Ev
_ZN22ClarisWksGraphInternal4ZoneD1Ev
_ZN22ClarisWksGraphInternal4ZoneD2Ev
_ZN22ClarisWksGraphInternal5ChartD0Ev
_ZN22ClarisWksGraphInternal5ChartD1Ev
_ZN22ClarisWksGraphInternal5ChartD2Ev
_ZN22ClarisWksGraphInternal5Group11removeChildEib
_ZN22ClarisWksGraphInternal5Group11removeChildEib.cold
_ZN22ClarisWksGraphInternal5GroupD0Ev
_ZN22ClarisWksGraphInternal5GroupD1Ev
_ZN22ClarisWksGraphInternal5GroupD2Ev
_ZN22ClarisWksGraphInternal5StyleD0Ev
_ZN22ClarisWksGraphInternal5StyleD1Ev
_ZN22ClarisWksGraphInternal5StyleD2Ev
_ZN22ClarisWksGraphInternal6BitmapD0Ev
_ZN22ClarisWksGraphInternal6BitmapD1Ev
_ZN22ClarisWksGraphInternal6BitmapD2Ev
_ZN22ClarisWksGraphInternal8ZonePictC1ERKNS_4ZoneENS1_4TypeE
_ZN22ClarisWksGraphInternal8ZonePictC2ERKNS_4ZoneENS1_4TypeE.lto_priv.0
_ZN22ClarisWksGraphInternal8ZonePictD0Ev
_ZN22ClarisWksGraphInternal8ZonePictD1Ev
_ZN22ClarisWksGraphInternal8ZonePictD2Ev
_ZN22ClarisWksGraphInternal8ZoneZoneD0Ev
_ZN22ClarisWksGraphInternal8ZoneZoneD1Ev
_ZN22ClarisWksGraphInternal8ZoneZoneD2Ev
_ZN22ClarisWksGraphInternal9ZoneShapeD0Ev
_ZN22ClarisWksGraphInternal9ZoneShapeD1Ev
_ZN22ClarisWksGraphInternal9ZoneShapeD2Ev
_ZN22ClarisWksTableInternal5Table11removeChildEib
_ZN22ClarisWksTableInternal5TableD0Ev
_ZN22ClarisWksTableInternal5TableD1Ev
_ZN22ClarisWksTableInternal5TableD2Ev
_ZN22ClarisWksTableInternal9TableCell11sendContentESt10shared_ptrI12MWAWListenerER9MWAWTable
_ZN22ClarisWksTableInternal9TableCell11sendContentESt10shared_ptrI12MWAWListenerER9MWAWTable.cold
_ZN22ClarisWksTableInternal9TableCell6updateERKNS_5TableE
_ZN22ClarisWksTableInternal9TableCell6updateERKNS_5TableE.cold
_ZN22ClarisWksTableInternal9TableCellD0Ev
_ZN22ClarisWksTableInternal9TableCellD1Ev
_ZN22ClarisWksTableInternal9TableCellD2Ev
_ZN22FreeHandParserInternal11SubDocument5parseERSt10shared_ptrI12MWAWListenerEN7libmwaw15SubDocumentTypeE
_ZN22FreeHandParserInternal11SubDocumentD0Ev
_ZN22FreeHandParserInternal11SubDocumentD1Ev
_ZN22FreeHandParserInternal11SubDocumentD2Ev
_ZN22FreeHandParserInternal4FontC1Ev
_ZN22FreeHandParserInternal5ShapeC1ERKS0_
_ZN22FreeHandParserInternal5ShapeC1Ev
_ZN22FreeHandParserInternal5ShapeC2ERKS0_.lto_priv.0
_ZN22FreeHandParserInternal5ShapeC2ERKS0_.lto_priv.0.cold
_ZN22FreeHandParserInternal5ShapeC2Ev.lto_priv.0
_ZN22FreeHandParserInternal5ShapeD1Ev
_ZN22FreeHandParserInternal5ShapeD2Ev.lto_priv.0
_ZN22FreeHandParserInternal5State18updateGroupLayerIdEiRSt3setIiSt4lessIiESaIiEE
_ZN22FreeHandParserInternal5State9addZoneIdEiNS_8ZoneTypeE
_ZN22FreeHandParserInternal5StateD1Ev
_ZN22FreeHandParserInternal5StateD2Ev.lto_priv.0
_ZN22FreeHandParserInternal7TextboxD1Ev
_ZN22FreeHandParserInternal7TextboxD2Ev.lto_priv.0
_ZN22GreatWksParserInternal11SubDocument5parseERSt10shared_ptrI12MWAWListenerEN7libmwaw15SubDocumentTypeE
_ZN22GreatWksParserInternal11SubDocument5parseERSt10shared_ptrI12MWAWListenerEN7libmwaw15SubDocumentTypeE.cold
_ZN22GreatWksParserInternal11SubDocumentD0Ev
_ZN22GreatWksParserInternal11SubDocumentD1Ev
_ZN22GreatWksParserInternal11SubDocumentD2Ev
_ZN22HanMacWrdJTextInternal11SubDocument5parseERSt10shared_ptrI12MWAWListenerEN7libmwaw15SubDocumentTypeE
_ZN22HanMacWrdJTextInternal11SubDocumentD0Ev
_ZN22HanMacWrdJTextInternal11SubDocumentD1Ev
_ZN22HanMacWrdJTextInternal11SubDocumentD2Ev.lto_priv.0
_ZN22HanMacWrdJTextInternal5StateD1Ev
_ZN22HanMacWrdJTextInternal5StateD2Ev.lto_priv.0
_ZN22HanMacWrdJTextInternal7SectionC1ERKS0_
_ZN22HanMacWrdJTextInternal7SectionC2ERKS0_.lto_priv.0
_ZN22HanMacWrdJTextInternal7SectionC2ERKS0_.lto_priv.0.cold
_ZN22HanMacWrdJTextInternal7SectionD1Ev
_ZN22HanMacWrdJTextInternal7SectionD2Ev.lto_priv.0
_ZN22HanMacWrdJTextInternal8TextZoneD1Ev
_ZN22HanMacWrdJTextInternal8TextZoneD2Ev.lto_priv.0
_ZN22HanMacWrdJTextInternal9ParagraphD0Ev
_ZN22HanMacWrdJTextInternal9ParagraphD1Ev
_ZN22HanMacWrdJTextInternal9ParagraphD2Ev
_ZN22HanMacWrdKTextInternal7SectionC1ERKS0_
_ZN22HanMacWrdKTextInternal7SectionD1Ev
_ZN22HanMacWrdKTextInternal9ParagraphD0Ev
_ZN22HanMacWrdKTextInternal9ParagraphD1Ev
_ZN22HanMacWrdKTextInternal9ParagraphD2Ev
_ZN22HanMacWrdKTextInternalL10getSectionERKNS_5StateEl.lto_priv.0
_ZN22MWAWPictBitmapInternalL13addChunkInPNGEjPKhjRN10librevenge14RVNGBinaryDataE.lto_priv.0
_ZN22MWAWPictBitmapInternalL13createPNGFileEPKhjS1_jS1_jRN10librevenge14RVNGBinaryDataE.constprop.0
_ZN22MWAWPictBitmapInternalL13createPNGFileEPKhjS1_jS1_jRN10librevenge14RVNGBinaryDataE.constprop.0.cold
_ZN22MWAWPresentationParserD2Ev
_ZN22MWAWSpreadsheetDecoder10charactersERKN10librevenge10RVNGStringE
_ZN22MWAWSpreadsheetDecoder13insertElementEPKc
_ZN22MWAWSpreadsheetDecoder13insertElementEPKcRKN10librevenge16RVNGPropertyListE
_ZN22MWAWSpreadsheetDecoderD0Ev
_ZN22MWAWSpreadsheetDecoderD1Ev.lto_priv.0
_ZN22MWAWSpreadsheetDecoderD2Ev.lto_priv.0
_ZN22MWAWSpreadsheetEncoder10closeChartEv
_ZN22MWAWSpreadsheetEncoder10closeFrameEv
_ZN22MWAWSpreadsheetEncoder10closeGroupEv
_ZN22MWAWSpreadsheetEncoder10closeSheetEv
_ZN22MWAWSpreadsheetEncoder10closeTableEv
_ZN22MWAWSpreadsheetEncoder10insertTextERKN10librevenge10RVNGStringE
_ZN22MWAWSpreadsheetEncoder10openFooterERKN10librevenge16RVNGPropertyListE
_ZN22MWAWSpreadsheetEncoder10openHeaderERKN10librevenge16RVNGPropertyListE
_ZN22MWAWSpreadsheetEncoder11closeFooterEv
_ZN22MWAWSpreadsheetEncoder11closeHeaderEv
_ZN22MWAWSpreadsheetEncoder11drawEllipseERKN10librevenge16RVNGPropertyListE
_ZN22MWAWSpreadsheetEncoder11drawPolygonERKN10librevenge16RVNGPropertyListE
_ZN22MWAWSpreadsheetEncoder11endDocumentEv
_ZN22MWAWSpreadsheetEncoder11insertFieldERKN10librevenge16RVNGPropertyListE
_ZN22MWAWSpreadsheetEncoder11insertSpaceEv
_ZN22MWAWSpreadsheetEncoder11openCommentERKN10librevenge16RVNGPropertyListE
_ZN22MWAWSpreadsheetEncoder11openSectionERKN10librevenge16RVNGPropertyListE
_ZN22MWAWSpreadsheetEncoder11openTextBoxERKN10librevenge16RVNGPropertyListE
_ZN22MWAWSpreadsheetEncoder12closeCommentEv
_ZN22MWAWSpreadsheetEncoder12closeSectionEv
_ZN22MWAWSpreadsheetEncoder12closeTextBoxEv
_ZN22MWAWSpreadsheetEncoder12drawPolylineERKN10librevenge16RVNGPropertyListE
_ZN22MWAWSpreadsheetEncoder12openFootnoteERKN10librevenge16RVNGPropertyListE
_ZN22MWAWSpreadsheetEncoder12openPageSpanERKN10librevenge16RVNGPropertyListE
_ZN22MWAWSpreadsheetEncoder12openSheetRowERKN10librevenge16RVNGPropertyListE
_ZN22MWAWSpreadsheetEncoder12openTableRowERKN10librevenge16RVNGPropertyListE
_ZN22MWAWSpreadsheetEncoder13closeFootnoteEv
_ZN22MWAWSpreadsheetEncoder13closePageSpanEv
_ZN22MWAWSpreadsheetEncoder13closeSheetRowEv
_ZN22MWAWSpreadsheetEncoder13closeTableRowEv
_ZN22MWAWSpreadsheetEncoder13drawConnectorERKN10librevenge16RVNGPropertyListE
_ZN22MWAWSpreadsheetEncoder13drawRectangleERKN10librevenge16RVNGPropertyListE
_ZN22MWAWSpreadsheetEncoder13openParagraphERKN10librevenge16RVNGPropertyListE
_ZN22MWAWSpreadsheetEncoder13openSheetCellERKN10librevenge16RVNGPropertyListE
_ZN22MWAWSpreadsheetEncoder13openTableCellERKN10librevenge16RVNGPropertyListE
_ZN22MWAWSpreadsheetEncoder13startDocumentERKN10librevenge16RVNGPropertyListE
_ZN22MWAWSpreadsheetEncoder14closeParagraphEv
_ZN22MWAWSpreadsheetEncoder14closeSheetCellEv
_ZN22MWAWSpreadsheetEncoder14closeTableCellEv
_ZN22MWAWSpreadsheetEncoder14insertEquationERKN10librevenge16RVNGPropertyListE
_ZN22MWAWSpreadsheetEncoder14openChartSerieERKN10librevenge16RVNGPropertyListE
_ZN22MWAWSpreadsheetEncoder15closeChartSerieEv
_ZN22MWAWSpreadsheetEncoder15definePageStyleERKN10librevenge16RVNGPropertyListE
_ZN22MWAWSpreadsheetEncoder15getBinaryResultER18MWAWEmbeddedObject.constprop.0
_ZN22MWAWSpreadsheetEncoder15getBinaryResultER18MWAWEmbeddedObject.constprop.0.cold
_ZN22MWAWSpreadsheetEncoder15insertChartAxisERKN10librevenge16RVNGPropertyListE
_ZN22MWAWSpreadsheetEncoder15insertLineBreakEv
_ZN22MWAWSpreadsheetEncoder15openListElementERKN10librevenge16RVNGPropertyListE
_ZN22MWAWSpreadsheetEncoder16closeListElementEv
_ZN22MWAWSpreadsheetEncoder16defineChartStyleERKN10librevenge16RVNGPropertyListE
_ZN22MWAWSpreadsheetEncoder17openChartPlotAreaERKN10librevenge16RVNGPropertyListE
_ZN22MWAWSpreadsheetEncoder18closeChartPlotAreaEv
_ZN22MWAWSpreadsheetEncoder18defineEmbeddedFontERKN10librevenge16RVNGPropertyListE
_ZN22MWAWSpreadsheetEncoder18defineGraphicStyleERKN10librevenge16RVNGPropertyListE
_ZN22MWAWSpreadsheetEncoder18defineSectionStyleERKN10librevenge16RVNGPropertyListE
_ZN22MWAWSpreadsheetEncoder18insertBinaryObjectERKN10librevenge16RVNGPropertyListE
_ZN22MWAWSpreadsheetEncoder19openChartTextObjectERKN10librevenge16RVNGPropertyListE
_ZN22MWAWSpreadsheetEncoder19setDocumentMetaDataERKN10librevenge16RVNGPropertyListE
_ZN22MWAWSpreadsheetEncoder20closeChartTextObjectEv
_ZN22MWAWSpreadsheetEncoder20defineCharacterStyleERKN10librevenge16RVNGPropertyListE
_ZN22MWAWSpreadsheetEncoder20defineParagraphStyleERKN10librevenge16RVNGPropertyListE
_ZN22MWAWSpreadsheetEncoder20openOrderedListLevelERKN10librevenge16RVNGPropertyListE
_ZN22MWAWSpreadsheetEncoder21closeOrderedListLevelEv
_ZN22MWAWSpreadsheetEncoder22insertCoveredTableCellERKN10librevenge16RVNGPropertyListE
_ZN22MWAWSpreadsheetEncoder22openUnorderedListLevelERKN10librevenge16RVNGPropertyListE
_ZN22MWAWSpreadsheetEncoder23closeUnorderedListLevelEv
_ZN22MWAWSpreadsheetEncoder25defineSheetNumberingStyleERKN10librevenge16RVNGPropertyListE
_ZN22MWAWSpreadsheetEncoder8drawPathERKN10librevenge16RVNGPropertyListE
_ZN22MWAWSpreadsheetEncoder8openLinkERKN10librevenge16RVNGPropertyListE
_ZN22MWAWSpreadsheetEncoder8openSpanERKN10librevenge16RVNGPropertyListE
_ZN22MWAWSpreadsheetEncoder9closeLinkEv
_ZN22MWAWSpreadsheetEncoder9closeSpanEv
_ZN22MWAWSpreadsheetEncoder9insertTabEv
_ZN22MWAWSpreadsheetEncoder9openChartERKN10librevenge16RVNGPropertyListE
_ZN22MWAWSpreadsheetEncoder9openFrameERKN10librevenge16RVNGPropertyListE
_ZN22MWAWSpreadsheetEncoder9openGroupERKN10librevenge16RVNGPropertyListE
_ZN22MWAWSpreadsheetEncoder9openSheetERKN10librevenge16RVNGPropertyListE
_ZN22MWAWSpreadsheetEncoder9openTableERKN10librevenge16RVNGPropertyListE
_ZN22MWAWSpreadsheetEncoderC1Ev
_ZN22MWAWSpreadsheetEncoderC2Ev
_ZN22MWAWSpreadsheetEncoderC2Ev.cold
_ZN22MWAWSpreadsheetEncoderD0Ev
_ZN22MWAWSpreadsheetEncoderD1Ev
_ZN22MWAWSpreadsheetEncoderD2Ev
_ZN22MacDraftParserInternal11SubDocument5parseERSt10shared_ptrI12MWAWListenerEN7libmwaw15SubDocumentTypeE
_ZN22MacDraftParserInternal11SubDocumentD0Ev
_ZN22MacDraftParserInternal11SubDocumentD1Ev
_ZN22MacDraftParserInternal11SubDocumentD2Ev
_ZN22MacDraftParserInternal5Shape9rotateBoxERK8MWAWBox2IfEfRK8MWAWVec2IfE
_ZN22MacDraftParserInternal5Shape9rotateBoxERK8MWAWBox2IfEfRK8MWAWVec2IfE.cold
_ZN22MacDraftParserInternal5Shape9transformEfbRK8MWAWVec2IfE
_ZN22MacDraftParserInternal5Shape9transformEfbRK8MWAWVec2IfE.cold
_ZN22MacDraftParserInternal5Shape9translateERK8MWAWVec2IfE
_ZN22MacDraftParserInternal5Shape9translateERK8MWAWVec2IfE.cold
_ZN22MacDraftParserInternal5ShapeC1ERKS0_
_ZN22MacDraftParserInternal5ShapeC2ERKS0_.lto_priv.0
_ZN22MacDraftParserInternal5ShapeC2ERKS0_.lto_priv.0.cold
_ZN22MacDraftParserInternal5ShapeD1Ev
_ZN22MacDraftParserInternal5ShapeD2Ev.lto_priv.0
_ZN22MacDraftParserInternal5State12initPatternsEv
_ZN22MacDraftParserInternal5State12initPatternsEv.cold
_ZN22MacDrawProStyleManager10readArrowsERK9MWAWEntryb
_ZN22MacDrawProStyleManager10readArrowsERK9MWAWEntryb.cold
_ZN22MacDrawProStyleManager10readRulersERK9MWAWEntryb
_ZN22MacDrawProStyleManager10readRulersERK9MWAWEntryb.cold
_ZN22MacDrawProStyleManager10readStylesERA6_Kl
_ZN22MacDrawProStyleManager10readStylesERA6_Kl.cold
_ZN22MacDrawProStyleManager13readFontNamesEv.isra.0
_ZN22MacDrawProStyleManager13readFontNamesEv.isra.0.cold
_ZN22MacDrawProStyleManager13readListNamesERK9MWAWEntryi.isra.0
_ZN22MacDrawProStyleManager13readListNamesERK9MWAWEntryi.isra.0.cold
_ZN22MacDrawProStyleManager14readPaletteDefERK9MWAWEntry.isra.0
_ZN22MacDrawProStyleManager14readPaletteDefERK9MWAWEntry.isra.0.cold
_ZN22MacDrawProStyleManager17readColorPatternsERK9MWAWEntry.isra.0
_ZN22MacDrawProStyleManager17readColorPatternsERK9MWAWEntry.isra.0.cold
_ZN22MacDrawProStyleManager23readPreferencesListBoolERK9MWAWEntryi.isra.0
_ZN22MacDrawProStyleManager23readPreferencesListBoolERK9MWAWEntryi.isra.0.cold
_ZN22MacDrawProStyleManager8readPensERK9MWAWEntryb
_ZN22MacDrawProStyleManager8readPensERK9MWAWEntryb.cold
_ZN22MacDrawProStyleManager9readDashsERK9MWAWEntryb
_ZN22MacDrawProStyleManager9readDashsERK9MWAWEntryb.cold
_ZN22MacDrawProStyleManagerC1ER16MacDrawProParser
_ZN22MacDrawProStyleManagerC2ER16MacDrawProParser
_ZN22MacDrawProStyleManagerC2ER16MacDrawProParser.cold
_ZN22MacDrawProStyleManagerD0Ev
_ZN22MacDrawProStyleManagerD1Ev
_ZN22MacDrawProStyleManagerD2Ev
_ZN22MarinerWrtTextInternal4FontD1Ev
_ZN22MarinerWrtTextInternal4FontD2Ev.lto_priv.0
_ZN22MarinerWrtTextInternal4ZoneD1Ev
_ZN22MarinerWrtTextInternal4ZoneD2Ev.lto_priv.0
_ZN22MarinerWrtTextInternal5State7getZoneEi
_ZN22MarinerWrtTextInternal5State7getZoneEi.cold
_ZN22MarinerWrtTextInternal9ParagraphD0Ev
_ZN22MarinerWrtTextInternal9ParagraphD1Ev
_ZN22MarinerWrtTextInternal9ParagraphD2Ev
_ZN22MouseWrtParserInternal11SubDocument5parseERSt10shared_ptrI12MWAWListenerEN7libmwaw15SubDocumentTypeE
_ZN22MouseWrtParserInternal11SubDocumentD0Ev
_ZN22MouseWrtParserInternal11SubDocumentD1Ev
_ZN22MouseWrtParserInternal11SubDocumentD2Ev
_ZN22MouseWrtParserInternal4ZoneD1Ev
_ZN22MouseWrtParserInternal4ZoneD2Ev
_ZN22MouseWrtParserInternal5StateD1Ev
_ZN22MouseWrtParserInternal5StateD2Ev
_ZN22NisusWrtParserInternal5StateD1Ev
_ZN22NisusWrtParserInternal5StateD2Ev.lto_priv.0
_ZN22NisusWrtParserInternal8VariableD1Ev
_ZN22NisusWrtParserInternal8VariableD2Ev.lto_priv.0
_ZN22PostScript_MetaHandler10ProcessXMPEv
_ZN22PostScript_MetaHandler10ProcessXMPEv.cold
_ZN22PostScript_MetaHandler10UpdateFileEb
_ZN22PostScript_MetaHandler10UpdateFileEb.cold
_ZN22PostScript_MetaHandler11ParsePSFileEv
_ZN22PostScript_MetaHandler11ParsePSFileEv.cold
_ZN22PostScript_MetaHandler12modifyHeaderEP6XMP_IOll.isra.0
_ZN22PostScript_MetaHandler12setTokenInfoE9TokenFlagll
_ZN22PostScript_MetaHandler13CacheFileDataEv
_ZN22PostScript_MetaHandler13CacheFileDataEv.cold
_ZN22PostScript_MetaHandler13WriteTempFileEP6XMP_IO
_ZN22PostScript_MetaHandler13WriteTempFileEP6XMP_IO.cold
_ZN22PostScript_MetaHandler14FindLastPacketEv
_ZN22PostScript_MetaHandler14FindLastPacketEv.cold
_ZN22PostScript_MetaHandler15FindFirstPacketEv
_ZN22PostScript_MetaHandler15FindFirstPacketEv.cold
_ZN22PostScript_MetaHandler16RegisterKeyValueERNSt7__cxx1112basic_stringIcSt11char_traitsIcESaIcEEES6_
_ZN22PostScript_MetaHandler22ExtractDSCCommentValueER8IOBuffer19NativeMetadataIndex
_ZN22PostScript_MetaHandler24ExpandingSFDFilterUpdateERNSt7__cxx1112basic_stringIcSt11char_traitsIcESaIcEEERP6XMP_IOb.constprop.0
_ZN22PostScript_MetaHandler24ExpandingSFDFilterUpdateERNSt7__cxx1112basic_stringIcSt11char_traitsIcESaIcEEERP6XMP_IOb.constprop.0.cold
_ZN22PostScript_MetaHandlerD0Ev
_ZN22PostScript_MetaHandlerD1Ev
_ZN22PostScript_MetaHandlerD2Ev
_ZN22RagTime5ClusterManager11ClusterRootD0Ev
_ZN22RagTime5ClusterManager11ClusterRootD1Ev
_ZN22RagTime5ClusterManager11ClusterRootD2Ev
_ZN22RagTime5ClusterManager11readClusterER12RagTime5ZoneRNS_13ClusterParserEb.constprop.0
_ZN22RagTime5ClusterManager11readClusterER12RagTime5ZoneRNS_13ClusterParserEb.constprop.0.cold
_ZN22RagTime5ClusterManager11readClusterER12RagTime5ZoneRSt10shared_ptrINS_7ClusterEEi
_ZN22RagTime5ClusterManager11readClusterER12RagTime5ZoneRSt10shared_ptrINS_7ClusterEEi.cold
_ZN22RagTime5ClusterManager13ClusterParser10parseFieldERKN21RagTime5StructManager5FieldEiRN7libmwaw11DebugStreamE
_ZN22RagTime5ClusterManager13ClusterParser14readLinkHeaderERSt10shared_ptrI15MWAWInputStreamElRNS_4LinkERA4_lRNSt7__cxx1112basic_stringIcSt11char_traitsIcESaIcEEE
_ZN22RagTime5ClusterManager13ClusterParser14readLinkHeaderERSt10shared_ptrI15MWAWInputStreamElRNS_4LinkERA4_lRNSt7__cxx1112basic_stringIcSt11char_traitsIcESaIcEEE.cold
_ZN22RagTime5ClusterManager13ClusterParser17getNewZoneToParseEv
_ZN22RagTime5ClusterManager13ClusterParser7endZoneEv
_ZN22RagTime5ClusterManager13ClusterParser9parseZoneERSt10shared_ptrI15MWAWInputStreamEliiRN7libmwaw11DebugStreamE
_ZN22RagTime5ClusterManager13ClusterParser9startZoneEv
_ZN22RagTime5ClusterManager13ClusterParserC2ERS_iRKNSt7__cxx1112basic_stringIcSt11char_traitsIcESaIcEEE.lto_priv.0
_ZN22RagTime5ClusterManager13ClusterParserD2Ev
_ZN22RagTime5ClusterManager14getClusterTypeER12RagTime5Zonei.isra.0
_ZN22RagTime5ClusterManager15readFieldHeaderER12RagTime5ZonelRKNSt7__cxx1112basic_stringIcSt11char_traitsIcESaIcEEERll.constprop.0
_ZN22RagTime5ClusterManager15readFieldHeaderER12RagTime5ZonelRKNSt7__cxx1112basic_stringIcSt11char_traitsIcESaIcEEERll.constprop.0.cold
_ZN22RagTime5ClusterManager15readRootClusterER12RagTime5Zone
_ZN22RagTime5ClusterManager15readRootClusterER12RagTime5Zone.cold
_ZN22RagTime5ClusterManager18getClusterFileTypeER12RagTime5Zone.isra.0
_ZN22RagTime5ClusterManager18getClusterFileTypeER12RagTime5Zone.isra.0.cold
_ZN22RagTime5ClusterManager19getClusterDebugNameB5cxx11Ei
_ZN22RagTime5ClusterManager19getClusterDebugNameB5cxx11Ei.cold
_ZN22RagTime5ClusterManager25getClusterBasicHeaderInfoER12RagTime5ZoneRlS2_S2_.isra.0
_ZN22RagTime5ClusterManager25getClusterBasicHeaderInfoER12RagTime5ZoneRlS2_S2_.isra.0.cold
_ZN22RagTime5ClusterManager4LinkC1ERKS0_
_ZN22RagTime5ClusterManager4LinkC2ENS0_4TypeE.constprop.0
_ZN22RagTime5ClusterManager4LinkC2ERKS0_.lto_priv.0
_ZN22RagTime5ClusterManager4LinkC2ERKS0_.lto_priv.0.cold
_ZN22RagTime5ClusterManager4LinkD1Ev
_ZN22RagTime5ClusterManager4LinkD2Ev.lto_priv.0
_ZN22RagTime5ClusterManager4LinkaSERKS0_
_ZN22RagTime5ClusterManager7ClusterC1ENS0_4TypeE
_ZN22RagTime5ClusterManager7ClusterC2ENS0_4TypeE.lto_priv.0
_ZN22RagTime5ClusterManager7ClusterD0Ev
_ZN22RagTime5ClusterManager7ClusterD1Ev
_ZN22RagTime5ClusterManager7ClusterD2Ev
_ZN22RagTime5ClusterManager8NameLinkC1ERKNS_4LinkE
_ZN22RagTime5ClusterManager8NameLinkC1Ev
_ZN22RagTime5ClusterManager8NameLinkC2ERKNS_4LinkE.lto_priv.0
_ZN22RagTime5ClusterManager8NameLinkC2ERKNS_4LinkE.lto_priv.0.cold
_ZN22RagTime5ClusterManager8NameLinkC2Ev.lto_priv.0
_ZN22RagTime5ClusterManager8NameLinkD1Ev
_ZN22RagTime5ClusterManager8NameLinkD2Ev.lto_priv.0
_ZN22RagTime5ClusterManager8NameLinkaSEOS0_
_ZN22RagTime5LayoutInternal13ClusterLayoutD0Ev
_ZN22RagTime5LayoutInternal13ClusterLayoutD1Ev
_ZN22RagTime5LayoutInternal13ClusterLayoutD2Ev
_ZN22RagTime5LayoutInternal13LayoutCParser10getClusterEv
_ZN22RagTime5LayoutInternal13LayoutCParser10parseFieldERKN21RagTime5StructManager5FieldEiRN7libmwaw11DebugStreamE
_ZN22RagTime5LayoutInternal13LayoutCParser15setExpectedTypeEii
_ZN22RagTime5LayoutInternal13LayoutCParser17getNewZoneToParseEv
_ZN22RagTime5LayoutInternal13LayoutCParser7endZoneEv
_ZN22RagTime5LayoutInternal13LayoutCParser9parseZoneERSt10shared_ptrI15MWAWInputStreamEliiRN7libmwaw11DebugStreamE
_ZN22RagTime5LayoutInternal13LayoutCParser9parseZoneERSt10shared_ptrI15MWAWInputStreamEliiRN7libmwaw11DebugStreamE.cold
_ZN22RagTime5LayoutInternal13LayoutCParser9startZoneEv
_ZN22RagTime5LayoutInternal13LayoutCParserD0Ev
_ZN22RagTime5LayoutInternal13LayoutCParserD1Ev
_ZN22RagTime5LayoutInternal13LayoutCParserD2Ev
_ZN22RagTime5LayoutInternal14PageDataParser9parseDataERSt10shared_ptrI15MWAWInputStreamElR12RagTime5ZoneiRN7libmwaw11DebugStreamE
_ZN22RagTime5LayoutInternal14PageDataParserD0Ev
_ZN22RagTime5LayoutInternal14PageDataParserD1Ev
_ZN22RagTime5LayoutInternal14PageDataParserD2Ev
_ZN22RagTime5LayoutInternal15ClustListParser9parseDataERSt10shared_ptrI15MWAWInputStreamElR12RagTime5ZoneiRN7libmwaw11DebugStreamE
_ZN22RagTime5LayoutInternal15ClustListParser9parseDataERSt10shared_ptrI15MWAWInputStreamElR12RagTime5ZoneiRN7libmwaw11DebugStreamE.cold
_ZN22RagTime5LayoutInternal15ClustListParserD0Ev
_ZN22RagTime5LayoutInternal15ClustListParserD1Ev
_ZN22RagTime5LayoutInternal15ClustListParserD2Ev
_ZN22RagTime5ParserInternal11SubDocument5parseERSt10shared_ptrI12MWAWListenerEN7libmwaw15SubDocumentTypeE
_ZN22RagTime5ParserInternal11SubDocumentD0Ev
_ZN22RagTime5ParserInternal11SubDocumentD1Ev
_ZN22RagTime5ParserInternal11SubDocumentD2Ev.lto_priv.0
_ZN22ReadySetGoStyleManager15readTabulationsERSt6vectorI11MWAWTabStopSaIS1_EElPi.constprop.0
_ZN22ReadySetGoStyleManager15readTabulationsERSt6vectorI11MWAWTabStopSaIS1_EElPi.constprop.0.cold
_ZN22ReadySetGoStyleManager17readTabulationsV1ERSt6vectorI11MWAWTabStopSaIS1_EERNSt7__cxx1112basic_stringIcSt11char_traitsIcESaIcEEE.constprop.0.isra.0
_ZN22ReadySetGoStyleManager17readTabulationsV1ERSt6vectorI11MWAWTabStopSaIS1_EERNSt7__cxx1112basic_stringIcSt11char_traitsIcESaIcEEE.constprop.0.isra.0.cold
_ZN22ReadySetGoStyleManager9readStyleER8MWAWFontR13MWAWParagraphPi
_ZN22ReadySetGoStyleManager9readStyleER8MWAWFontR13MWAWParagraphPi.cold
_ZN22ReadySetGoStyleManagerD0Ev
_ZN22ReadySetGoStyleManagerD1Ev
_ZN22ReadySetGoStyleManagerD2Ev
_ZN22WriteNowParserInternal11SubDocument5parseERSt10shared_ptrI12MWAWListenerEN7libmwaw15SubDocumentTypeE
_ZN22WriteNowParserInternal11SubDocumentD0Ev
_ZN22WriteNowParserInternal11SubDocumentD1Ev
_ZN22WriteNowParserInternal11SubDocumentD2Ev
_ZN23ApplePictParserInternal11SubDocument5parseERSt10shared_ptrI12MWAWListenerEN7libmwaw15SubDocumentTypeE
_ZN23ApplePictParserInternal11SubDocumentD0Ev
_ZN23ApplePictParserInternal11SubDocumentD1Ev
_ZN23ApplePictParserInternal11SubDocumentD2Ev
_ZN23ApplePictParserInternal5State11updateStyleEN15ApplePictParser13DrawingMethodER16MWAWGraphicStyle
_ZN23ApplePictParserInternal5State14updatePositionERK8MWAWBox2IfER12MWAWPosition
_ZN23ApplePictParserInternal5State14updatePositionERK8MWAWBox2IfER12MWAWPosition.cold
_ZN23ApplePictParserInternal5StateD1Ev
_ZN23ApplePictParserInternal5StateD2Ev.lto_priv.0
_ZN23ApplePictParserInternal6Bitmap14readBitmapDataER15MWAWInputStreamb
_ZN23ApplePictParserInternal6Bitmap14readBitmapDataER15MWAWInputStreamb.cold
_ZN23ApplePictParserInternal6BitmapD1Ev
_ZN23ApplePictParserInternal6BitmapD2Ev
_ZN23ApplePictParserInternal6PixmapD1Ev
_ZN23ApplePictParserInternal6PixmapD2Ev.lto_priv.0
_ZN23ApplePictParserInternal6RegionC1Ev
_ZN23ApplePictParserInternal6RegionC2Ev.lto_priv.0
_ZN23ClarisDrawGraphInternal11SubDocument5parseERSt10shared_ptrI12MWAWListenerEN7libmwaw15SubDocumentTypeE
_ZN23ClarisDrawGraphInternal11SubDocument5parseERSt10shared_ptrI12MWAWListenerEN7libmwaw15SubDocumentTypeE.cold
_ZN23ClarisDrawGraphInternal11SubDocumentD0Ev
_ZN23ClarisDrawGraphInternal11SubDocumentD1Ev
_ZN23ClarisDrawGraphInternal11SubDocumentD2Ev
_ZN23ClarisDrawGraphInternal11ZoneUnknownD0Ev
_ZN23ClarisDrawGraphInternal11ZoneUnknownD1Ev
_ZN23ClarisDrawGraphInternal11ZoneUnknownD2Ev
_ZN23ClarisDrawGraphInternal4ZoneD0Ev
_ZN23ClarisDrawGraphInternal4ZoneD1Ev
_ZN23ClarisDrawGraphInternal4ZoneD2Ev
_ZN23ClarisDrawGraphInternal5Group11removeChildEib
_ZN23ClarisDrawGraphInternal5Group11removeChildEib.cold
_ZN23ClarisDrawGraphInternal5GroupD0Ev
_ZN23ClarisDrawGraphInternal5GroupD1Ev
_ZN23ClarisDrawGraphInternal5GroupD2Ev
_ZN23ClarisDrawGraphInternal5StateD1Ev
_ZN23ClarisDrawGraphInternal5StateD2Ev.lto_priv.0
_ZN23ClarisDrawGraphInternal5StyleD0Ev
_ZN23ClarisDrawGraphInternal5StyleD1Ev
_ZN23ClarisDrawGraphInternal5StyleD2Ev
_ZN23ClarisDrawGraphInternal6BitmapD0Ev
_ZN23ClarisDrawGraphInternal6BitmapD1Ev
_ZN23ClarisDrawGraphInternal6BitmapD2Ev
_ZN23ClarisDrawGraphInternal8ZonePictD0Ev
_ZN23ClarisDrawGraphInternal8ZonePictD1Ev
_ZN23ClarisDrawGraphInternal8ZonePictD2Ev
_ZN23ClarisDrawGraphInternal8ZoneZoneD0Ev
_ZN23ClarisDrawGraphInternal8ZoneZoneD1Ev
_ZN23ClarisDrawGraphInternal8ZoneZoneD2Ev
_ZN23ClarisDrawGraphInternal9ZoneShapeD0Ev
_ZN23ClarisDrawGraphInternal9ZoneShapeD1Ev
_ZN23ClarisDrawGraphInternal9ZoneShapeD2Ev
_ZN23ClarisWksParserInternal11SubDocument5parseERSt10shared_ptrI12MWAWListenerEN7libmwaw15SubDocumentTypeE
_ZN23ClarisWksParserInternal11SubDocument5parseERSt10shared_ptrI12MWAWListenerEN7libmwaw15SubDocumentTypeE.cold
_ZN23ClarisWksParserInternal11SubDocumentD0Ev
_ZN23ClarisWksParserInternal11SubDocumentD1Ev
_ZN23ClarisWksParserInternal11SubDocumentD2Ev
_ZN23DrawTableParserInternal11SubDocument5parseERSt10shared_ptrI12MWAWListenerEN7libmwaw15SubDocumentTypeE
_ZN23DrawTableParserInternal11SubDocumentD0Ev
_ZN23DrawTableParserInternal11SubDocumentD1Ev
_ZN23DrawTableParserInternal11SubDocumentD2Ev
_ZN23HanMacWrdJGraphInternal10ShapeGraphD0Ev
_ZN23HanMacWrdJGraphInternal10ShapeGraphD1Ev
_ZN23HanMacWrdJGraphInternal10ShapeGraphD2Ev
_ZN23HanMacWrdJGraphInternal10TableFrameD0Ev
_ZN23HanMacWrdJGraphInternal10TableFrameD1Ev
_ZN23HanMacWrdJGraphInternal10TableFrameD2Ev
_ZN23HanMacWrdJGraphInternal11SubDocument5parseERSt10shared_ptrI12MWAWListenerEN7libmwaw15SubDocumentTypeE
_ZN23HanMacWrdJGraphInternal11SubDocument5parseERSt10shared_ptrI12MWAWListenerEN7libmwaw15SubDocumentTypeE.cold
_ZN23HanMacWrdJGraphInternal11SubDocumentC2ER15HanMacWrdJGraphRKSt10shared_ptrI15MWAWInputStreamENS0_4TypeEll.constprop.0
_ZN23HanMacWrdJGraphInternal11SubDocumentC2ER15HanMacWrdJGraphRKSt10shared_ptrI15MWAWInputStreamENS0_4TypeEll.constprop.0.cold
_ZN23HanMacWrdJGraphInternal11SubDocumentC2ER15HanMacWrdJGraphRKSt10shared_ptrI15MWAWInputStreamERK12MWAWPositionNS0_4TypeEli.constprop.0
_ZN23HanMacWrdJGraphInternal11SubDocumentC2ER15HanMacWrdJGraphRKSt10shared_ptrI15MWAWInputStreamERK12MWAWPositionNS0_4TypeEli.constprop.0.cold
_ZN23HanMacWrdJGraphInternal11SubDocumentD0Ev
_ZN23HanMacWrdJGraphInternal11SubDocumentD1Ev
_ZN23HanMacWrdJGraphInternal11SubDocumentD2Ev.lto_priv.0
_ZN23HanMacWrdJGraphInternal12CommentFrameD0Ev
_ZN23HanMacWrdJGraphInternal12CommentFrameD1Ev
_ZN23HanMacWrdJGraphInternal12CommentFrameD2Ev
_ZN23HanMacWrdJGraphInternal12PictureFrameD0Ev
_ZN23HanMacWrdJGraphInternal12PictureFrameD1Ev
_ZN23HanMacWrdJGraphInternal12PictureFrameD2Ev
_ZN23HanMacWrdJGraphInternal12TextboxFrameD0Ev
_ZN23HanMacWrdJGraphInternal12TextboxFrameD1Ev
_ZN23HanMacWrdJGraphInternal12TextboxFrameD2Ev
_ZN23HanMacWrdJGraphInternal14SeparatorFrameD0Ev
_ZN23HanMacWrdJGraphInternal14SeparatorFrameD1Ev
_ZN23HanMacWrdJGraphInternal14SeparatorFrameD2Ev
_ZN23HanMacWrdJGraphInternal5FrameD0Ev
_ZN23HanMacWrdJGraphInternal5FrameD1Ev
_ZN23HanMacWrdJGraphInternal5FrameD2Ev
_ZN23HanMacWrdJGraphInternal5GroupD0Ev
_ZN23HanMacWrdJGraphInternal5GroupD1Ev
_ZN23HanMacWrdJGraphInternal5GroupD2Ev
_ZN23HanMacWrdJGraphInternal5State10initColorsEv.part.0
_ZN23HanMacWrdJGraphInternal5State12initPatternsEv.part.0
_ZN23HanMacWrdJGraphInternal5State12initPatternsEv.part.0.cold
_ZN23HanMacWrdJGraphInternal5TableD0Ev
_ZN23HanMacWrdJGraphInternal5TableD1Ev
_ZN23HanMacWrdJGraphInternal5TableD2Ev
_ZN23HanMacWrdJGraphInternal7PatternD0Ev
_ZN23HanMacWrdJGraphInternal7PatternD1Ev
_ZN23HanMacWrdJGraphInternal7PatternD2Ev
_ZN23HanMacWrdJGraphInternal9TableCell11sendContentESt10shared_ptrI12MWAWListenerER9MWAWTable
_ZN23HanMacWrdJGraphInternal9TableCellD0Ev
_ZN23HanMacWrdJGraphInternal9TableCellD1Ev
_ZN23HanMacWrdJGraphInternal9TableCellD2Ev
_ZN23HanMacWrdJGraphInternal9TextFrameD0Ev
_ZN23HanMacWrdJGraphInternal9TextFrameD1Ev
_ZN23HanMacWrdJGraphInternal9TextFrameD2Ev
_ZN23HanMacWrdKGraphInternal10ShapeGraphD0Ev
_ZN23HanMacWrdKGraphInternal10ShapeGraphD1Ev
_ZN23HanMacWrdKGraphInternal10ShapeGraphD2Ev
_ZN23HanMacWrdKGraphInternal11SubDocument5parseERSt10shared_ptrI12MWAWListenerEN7libmwaw15SubDocumentTypeE
_ZN23HanMacWrdKGraphInternal11SubDocument5parseERSt10shared_ptrI12MWAWListenerEN7libmwaw15SubDocumentTypeE.cold
_ZN23HanMacWrdKGraphInternal11SubDocumentC1ER15HanMacWrdKGraphRKSt10shared_ptrI15MWAWInputStreamENS0_4TypeEll
_ZN23HanMacWrdKGraphInternal11SubDocumentC2ER15HanMacWrdKGraphRKSt10shared_ptrI15MWAWInputStreamENS0_4TypeEll.lto_priv.0
_ZN23HanMacWrdKGraphInternal11SubDocumentC2ER15HanMacWrdKGraphRKSt10shared_ptrI15MWAWInputStreamENS0_4TypeEll.lto_priv.0.cold
_ZN23HanMacWrdKGraphInternal11SubDocumentC2ER15HanMacWrdKGraphRKSt10shared_ptrI15MWAWInputStreamERK12MWAWPositionNS0_4TypeEll.constprop.0
_ZN23HanMacWrdKGraphInternal11SubDocumentC2ER15HanMacWrdKGraphRKSt10shared_ptrI15MWAWInputStreamERK12MWAWPositionNS0_4TypeEll.constprop.0.cold
_ZN23HanMacWrdKGraphInternal11SubDocumentD0Ev
_ZN23HanMacWrdKGraphInternal11SubDocumentD1Ev
_ZN23HanMacWrdKGraphInternal11SubDocumentD2Ev.lto_priv.0
_ZN23HanMacWrdKGraphInternal12PictureFrameD0Ev
_ZN23HanMacWrdKGraphInternal12PictureFrameD1Ev
_ZN23HanMacWrdKGraphInternal12PictureFrameD2Ev
_ZN23HanMacWrdKGraphInternal13FootnoteFrameD0Ev
_ZN23HanMacWrdKGraphInternal13FootnoteFrameD1Ev
_ZN23HanMacWrdKGraphInternal13FootnoteFrameD2Ev
_ZN23HanMacWrdKGraphInternal5FrameC2ERKS0_.lto_priv.0
_ZN23HanMacWrdKGraphInternal5FrameC2ERKS0_.lto_priv.0.cold
_ZN23HanMacWrdKGraphInternal5FrameD0Ev
_ZN23HanMacWrdKGraphInternal5FrameD1Ev
_ZN23HanMacWrdKGraphInternal5FrameD2Ev
_ZN23HanMacWrdKGraphInternal5GroupD0Ev
_ZN23HanMacWrdKGraphInternal5GroupD1Ev
_ZN23HanMacWrdKGraphInternal5GroupD2Ev
_ZN23HanMacWrdKGraphInternal5State10initColorsEv.part.0
_ZN23HanMacWrdKGraphInternal5State12initPatternsEv.part.0
_ZN23HanMacWrdKGraphInternal5State12initPatternsEv.part.0.cold
_ZN23HanMacWrdKGraphInternal5TableD0Ev
_ZN23HanMacWrdKGraphInternal5TableD1Ev
_ZN23HanMacWrdKGraphInternal5TableD2Ev
_ZN23HanMacWrdKGraphInternal7PatternD0Ev
_ZN23HanMacWrdKGraphInternal7PatternD1Ev
_ZN23HanMacWrdKGraphInternal7PatternD2Ev
_ZN23HanMacWrdKGraphInternal7TextBoxD0Ev
_ZN23HanMacWrdKGraphInternal7TextBoxD1Ev
_ZN23HanMacWrdKGraphInternal7TextBoxD2Ev
_ZN23HanMacWrdKGraphInternal9TableCell11sendContentESt10shared_ptrI12MWAWListenerER9MWAWTable
_ZN23HanMacWrdKGraphInternal9TableCellD0Ev
_ZN23HanMacWrdKGraphInternal9TableCellD1Ev
_ZN23HanMacWrdKGraphInternal9TableCellD2Ev
_ZN23LightWayTxtTextInternal6HFZoneD1Ev
_ZN23LightWayTxtTextInternal6HFZoneD2Ev.lto_priv.0
_ZN23LightWayTxtTextInternal9ParagraphD0Ev
_ZN23LightWayTxtTextInternal9ParagraphD1Ev
_ZN23LightWayTxtTextInternal9ParagraphD2Ev
_ZN23MWAWPictBitmapContainerI9MWAWColorE6setRowIS0_EEviPKT_
_ZN23MWAWPictBitmapContainerI9MWAWColorED0Ev
_ZN23MWAWPictBitmapContainerI9MWAWColorED1Ev.lto_priv.0
_ZN23MWAWPictBitmapContainerI9MWAWColorED2Ev.lto_priv.0
_ZN23MWAWPictBitmapContainerIbED0Ev
_ZN23MWAWPictBitmapContainerIbED1Ev.lto_priv.0
_ZN23MWAWPictBitmapContainerIbED2Ev.lto_priv.0
_ZN23MWAWPictBitmapContainerIiE3setEiiRKi
_ZN23MWAWPictBitmapContainerIiED0Ev
_ZN23MWAWPictBitmapContainerIiED1Ev.lto_priv.0
_ZN23MWAWPictBitmapContainerIiED2Ev.lto_priv.0
_ZN23MWAWSpreadsheetListener10_closeSpanEv
_ZN23MWAWSpreadsheetListener10_flushTextEv
_ZN23MWAWSpreadsheetListener10_flushTextEv.cold
_ZN23MWAWSpreadsheetListener10closeFrameEv
_ZN23MWAWSpreadsheetListener10closeGroupEv
_ZN23MWAWSpreadsheetListener10closeGroupEv.cold
_ZN23MWAWSpreadsheetListener10closeSheetEv
_ZN23MWAWSpreadsheetListener10closeSheetEv.cold
_ZN23MWAWSpreadsheetListener10closeTableEv
_ZN23MWAWSpreadsheetListener10closeTableEv.cold
_ZN23MWAWSpreadsheetListener10insertCharEh
_ZN23MWAWSpreadsheetListener10insertNoteERK8MWAWNoteRSt10shared_ptrI15MWAWSubDocumentE
_ZN23MWAWSpreadsheetListener10insertNoteERK8MWAWNoteRSt10shared_ptrI15MWAWSubDocumentE.cold
_ZN23MWAWSpreadsheetListener11_changeListEv
_ZN23MWAWSpreadsheetListener11_changeListEv.cold
_ZN23MWAWSpreadsheetListener11endDocumentEb
_ZN23MWAWSpreadsheetListener11endDocumentEb.part.0
_ZN23MWAWSpreadsheetListener11getPageSpanEv
_ZN23MWAWSpreadsheetListener11insertBreakEN12MWAWListener9BreakTypeE
_ZN23MWAWSpreadsheetListener11insertFieldERK9MWAWField
_ZN23MWAWSpreadsheetListener11insertFieldERK9MWAWField.cold
_ZN23MWAWSpreadsheetListener11insertShapeERK12MWAWPositionRK16MWAWGraphicShapeRK16MWAWGraphicStyle
_ZN23MWAWSpreadsheetListener11insertShapeERK12MWAWPositionRK16MWAWGraphicShapeRK16MWAWGraphicStyle.cold
_ZN23MWAWSpreadsheetListener11openSectionERK11MWAWSection
_ZN23MWAWSpreadsheetListener12closeSectionEv
_ZN23MWAWSpreadsheetListener12insertFooterERKSt10shared_ptrI15MWAWSubDocumentERKN10librevenge16RVNGPropertyListE
_ZN23MWAWSpreadsheetListener12insertFooterERKSt10shared_ptrI15MWAWSubDocumentERKN10librevenge16RVNGPropertyListE.cold
_ZN23MWAWSpreadsheetListener12insertHeaderERKSt10shared_ptrI15MWAWSubDocumentERKN10librevenge16RVNGPropertyListE
_ZN23MWAWSpreadsheetListener12insertHeaderERKSt10shared_ptrI15MWAWSubDocumentERKN10librevenge16RVNGPropertyListE.cold
_ZN23MWAWSpreadsheetListener12openSheetRowEfN10librevenge8RVNGUnitEi.constprop.0
_ZN23MWAWSpreadsheetListener12openSheetRowEfN10librevenge8RVNGUnitEi.constprop.0.cold
_ZN23MWAWSpreadsheetListener12openTableRowEfN10librevenge8RVNGUnitEb
_ZN23MWAWSpreadsheetListener12openTableRowEfN10librevenge8RVNGUnitEb.cold
_ZN23MWAWSpreadsheetListener12setParagraphERK13MWAWParagraph
_ZN23MWAWSpreadsheetListener13_openPageSpanEb
_ZN23MWAWSpreadsheetListener13_openPageSpanEb.cold
_ZN23MWAWSpreadsheetListener13closeSheetRowEv
_ZN23MWAWSpreadsheetListener13closeTableRowEv
_ZN23MWAWSpreadsheetListener13insertCommentERSt10shared_ptrI15MWAWSubDocumentE
_ZN23MWAWSpreadsheetListener13insertCommentERSt10shared_ptrI15MWAWSubDocumentE.cold
_ZN23MWAWSpreadsheetListener13insertPictureERK12MWAWPositionRK18MWAWEmbeddedObjectRK16MWAWGraphicStyle
_ZN23MWAWSpreadsheetListener13insertPictureERK12MWAWPositionRK18MWAWEmbeddedObjectRK16MWAWGraphicStyle.cold
_ZN23MWAWSpreadsheetListener13insertTextBoxERK12MWAWPositionRKSt10shared_ptrI15MWAWSubDocumentERK16MWAWGraphicStyle
_ZN23MWAWSpreadsheetListener13insertTextBoxERK12MWAWPositionRKSt10shared_ptrI15MWAWSubDocumentERK16MWAWGraphicStyle.cold
_ZN23MWAWSpreadsheetListener13insertUnicodeEj
_ZN23MWAWSpreadsheetListener13openSheetCellERK8MWAWCellRK15MWAWCellContenti
_ZN23MWAWSpreadsheetListener13openSheetCellERK8MWAWCellRK15MWAWCellContenti.cold
_ZN23MWAWSpreadsheetListener13openTableCellERK8MWAWCell
_ZN23MWAWSpreadsheetListener13openTableCellERK8MWAWCell.cold
_ZN23MWAWSpreadsheetListener13startDocumentEv
_ZN23MWAWSpreadsheetListener13startDocumentEv.cold
_ZN23MWAWSpreadsheetListener14_openParagraphEv
_ZN23MWAWSpreadsheetListener14_openParagraphEv.cold
_ZN23MWAWSpreadsheetListener14closeSheetCellEv
_ZN23MWAWSpreadsheetListener14closeTableCellEv
_ZN23MWAWSpreadsheetListener15_closeParagraphEv
_ZN23MWAWSpreadsheetListener15_endSubDocumentEv
_ZN23MWAWSpreadsheetListener15insertCharacterEh
_ZN23MWAWSpreadsheetListener15insertCharacterEhRSt10shared_ptrI15MWAWInputStreamEl
_ZN23MWAWSpreadsheetListener16_popParsingStateEv
_ZN23MWAWSpreadsheetListener16_popParsingStateEv.cold
_ZN23MWAWSpreadsheetListener16_popParsingStateEv.part.0
_ZN23MWAWSpreadsheetListener17_pushParsingStateEv
_ZN23MWAWSpreadsheetListener17_pushParsingStateEv.cold
_ZN23MWAWSpreadsheetListener17addEmptyTableCellERK8MWAWVec2IiES1_
_ZN23MWAWSpreadsheetListener17addEmptyTableCellERK8MWAWVec2IiES1_.cold
_ZN23MWAWSpreadsheetListener17handleSubDocumentERKSt10shared_ptrI15MWAWSubDocumentEN7libmwaw15SubDocumentTypeE
_ZN23MWAWSpreadsheetListener17handleSubDocumentERKSt10shared_ptrI15MWAWSubDocumentEN7libmwaw15SubDocumentTypeE.cold
_ZN23MWAWSpreadsheetListener18_flushDeferredTabsEv
_ZN23MWAWSpreadsheetListener18_flushDeferredTabsEv.cold
_ZN23MWAWSpreadsheetListener19insertUnicodeStringERKN10librevenge10RVNGStringE
_ZN23MWAWSpreadsheetListener19setDocumentLanguageERKNSt7__cxx1112basic_stringIcSt11char_traitsIcESaIcEEE
_ZN23MWAWSpreadsheetListener19setDocumentMetaDataERKN10librevenge16RVNGPropertyListE
_ZN23MWAWSpreadsheetListener19setDocumentMetaDataERKN10librevenge16RVNGPropertyListE.cold
_ZN23MWAWSpreadsheetListener22_handleFrameParametersERN10librevenge16RVNGPropertyListERK12MWAWPosition
_ZN23MWAWSpreadsheetListener22_handleFrameParametersERN10librevenge16RVNGPropertyListERK12MWAWPosition.cold
_ZN23MWAWSpreadsheetListener7setFontERK8MWAWFont
_ZN23MWAWSpreadsheetListener7setFontERK8MWAWFont.cold
_ZN23MWAWSpreadsheetListener8openLinkERK8MWAWLink
_ZN23MWAWSpreadsheetListener8openLinkERK8MWAWLink.cold
_ZN23MWAWSpreadsheetListener9_openSpanEv
_ZN23MWAWSpreadsheetListener9_openSpanEv.cold
_ZN23MWAWSpreadsheetListener9closeLinkEv
_ZN23MWAWSpreadsheetListener9closeLinkEv.cold
_ZN23MWAWSpreadsheetListener9insertEOLEb
_ZN23MWAWSpreadsheetListener9insertTabEv
_ZN23MWAWSpreadsheetListener9openFrameERK12MWAWPositionRK16MWAWGraphicStyle
_ZN23MWAWSpreadsheetListener9openFrameERK12MWAWPositionRK16MWAWGraphicStyle.cold
_ZN23MWAWSpreadsheetListener9openGroupERK12MWAWPosition
_ZN23MWAWSpreadsheetListener9openGroupERK12MWAWPosition.cold
_ZN23MWAWSpreadsheetListener9openSheetERKSt6vectorIfSaIfEEN10librevenge8RVNGUnitERKS0_IiSaIiEERKNSt7__cxx1112basic_stringIcSt11char_traitsIcESaIcEEE.constprop.0
_ZN23MWAWSpreadsheetListener9openSheetERKSt6vectorIfSaIfEEN10librevenge8RVNGUnitERKS0_IiSaIiEERKNSt7__cxx1112basic_stringIcSt11char_traitsIcESaIcEEE.constprop.0.cold
_ZN23MWAWSpreadsheetListener9openTableERK9MWAWTable
_ZN23MWAWSpreadsheetListener9openTableERK9MWAWTable.cold
_ZN23MWAWSpreadsheetListenerC1ER15MWAWParserStateRK8MWAWBox2IfEPN10librevenge24RVNGSpreadsheetInterfaceE
_ZN23MWAWSpreadsheetListenerC1ER15MWAWParserStateRKSt6vectorI12MWAWPageSpanSaIS3_EEPN10librevenge24RVNGSpreadsheetInterfaceE
_ZN23MWAWSpreadsheetListenerC2ER15MWAWParserStateRK8MWAWBox2IfEPN10librevenge24RVNGSpreadsheetInterfaceE
_ZN23MWAWSpreadsheetListenerC2ER15MWAWParserStateRK8MWAWBox2IfEPN10librevenge24RVNGSpreadsheetInterfaceE.cold
_ZN23MWAWSpreadsheetListenerC2ER15MWAWParserStateRKSt6vectorI12MWAWPageSpanSaIS3_EEPN10librevenge24RVNGSpreadsheetInterfaceE
_ZN23MWAWSpreadsheetListenerC2ER15MWAWParserStateRKSt6vectorI12MWAWPageSpanSaIS3_EEPN10librevenge24RVNGSpreadsheetInterfaceE.cold
_ZN23MWAWSpreadsheetListenerD0Ev
_ZN23MWAWSpreadsheetListenerD1Ev
_ZN23MWAWSpreadsheetListenerD2Ev
_ZN23MacDraft5ParserInternal11SubDocument5parseERSt10shared_ptrI12MWAWListenerEN7libmwaw15SubDocumentTypeE
_ZN23MacDraft5ParserInternal11SubDocumentD0Ev
_ZN23MacDraft5ParserInternal11SubDocumentD1Ev
_ZN23MacDraft5ParserInternal11SubDocumentD2Ev
_ZN23MacDraft5ParserInternal5Shape9rotateBoxERK8MWAWBox2IfEfRK8MWAWVec2IfE
_ZN23MacDraft5ParserInternal5ShapeC1Ev
_ZN23MacDraft5ParserInternal5ShapeC2Ev.lto_priv.0
_ZN23MacDraft5ParserInternal5ShapeC2Ev.lto_priv.0.cold
_ZN23MacDraft5ParserInternal5ShapeD1Ev
_ZN23MacDraft5ParserInternal5ShapeD2Ev.lto_priv.0
_ZN23MacDraft5ParserInternal6Layout15updateRelationsEv
_ZN23MacDraft5ParserInternal6Layout15updateRelationsEv.cold
_ZN23MacDraft5ParserInternal6LayoutD1Ev
_ZN23MacDraft5ParserInternal6LayoutD2Ev.lto_priv.0
_ZN23MacWrtProParserInternal11SubDocument5parseERSt10shared_ptrI12MWAWListenerEN7libmwaw15SubDocumentTypeE
_ZN23MacWrtProParserInternal11SubDocumentD0Ev
_ZN23MacWrtProParserInternal11SubDocumentD1Ev
_ZN23MacWrtProParserInternal11SubDocumentD2Ev
_ZN23MarinerWrtGraphInternal11SubDocument5parseERSt10shared_ptrI12MWAWListenerEN7libmwaw15SubDocumentTypeE
_ZN23MarinerWrtGraphInternal11SubDocumentD0Ev
_ZN23MarinerWrtGraphInternal11SubDocumentD1Ev
_ZN23MarinerWrtGraphInternal11SubDocumentD2Ev
_ZN23MarinerWrtGraphInternal4ZoneD1Ev
_ZN23MarinerWrtGraphInternal4ZoneD2Ev.lto_priv.0
_ZN23MarinerWrtGraphInternal5State7getZoneEi
_ZN23MarinerWrtGraphInternal5State7getZoneEi.cold
_ZN23MsWrdTextStylesInternal5StateD1Ev
_ZN23MsWrdTextStylesInternal5StateD2Ev.lto_priv.0
_ZN23MultiplanParserInternal11SubDocument5parseERSt10shared_ptrI12MWAWListenerEN7libmwaw15SubDocumentTypeE
_ZN23MultiplanParserInternal11SubDocument5parseERSt10shared_ptrI12MWAWListenerEN7libmwaw15SubDocumentTypeE.cold
_ZN23MultiplanParserInternal11SubDocumentD0Ev
_ZN23MultiplanParserInternal11SubDocumentD1Ev
_ZN23MultiplanParserInternal11SubDocumentD2Ev
_ZN23MultiplanParserInternal5StateC1Ev
_ZN23MultiplanParserInternal5StateC2Ev.lto_priv.0
_ZN23MultiplanParserInternal5StateD1Ev
_ZN23MultiplanParserInternal5StateD2Ev.lto_priv.0
_ZN23RagTime5FormulaInternal18FunctionNameParser10parseFieldERN21RagTime5StructManager5FieldER12RagTime5ZoneiRN7libmwaw11DebugStreamE
_ZN23RagTime5FormulaInternal18FunctionNameParserD0Ev
_ZN23RagTime5FormulaInternal18FunctionNameParserD1Ev
_ZN23RagTime5FormulaInternal18FunctionNameParserD2Ev
_ZN23RagTime5FormulaInternal5StateC1Ev
_ZN23RagTime5FormulaInternal5StateC2Ev.lto_priv.0
_ZN23RagTime5FormulaInternal5StateC2Ev.lto_priv.0.cold
_ZN23ReadySetGoGraphInternal11SubDocument5parseERSt10shared_ptrI12MWAWListenerEN7libmwaw15SubDocumentTypeE
_ZN23ReadySetGoGraphInternal11SubDocumentD0Ev
_ZN23ReadySetGoGraphInternal11SubDocumentD1Ev
_ZN23ReadySetGoGraphInternal11SubDocumentD2Ev
_ZN23ReadySetGoGraphInternal5ShapeC1ENS0_4TypeE
_ZN23ReadySetGoGraphInternal5ShapeC1ERKS0_
_ZN23ReadySetGoGraphInternal5ShapeC2ENS0_4TypeE.lto_priv.0
_ZN23ReadySetGoGraphInternal5ShapeC2ENS0_4TypeE.lto_priv.0.cold
_ZN23ReadySetGoGraphInternal5ShapeC2ERKS0_.lto_priv.0
_ZN23ReadySetGoGraphInternal5ShapeC2ERKS0_.lto_priv.0.cold
_ZN23ReadySetGoGraphInternal5ShapeD1Ev
_ZN23ReadySetGoGraphInternal5ShapeD2Ev.lto_priv.0
_ZN23UnorderedListLevelStyleD0Ev
_ZN23UnorderedListLevelStyleD1Ev
_ZN23UnorderedListLevelStyleD2Ev
_ZN23WordMakerParserInternal11SubDocument5parseERSt10shared_ptrI12MWAWListenerEN7libmwaw15SubDocumentTypeE
_ZN23WordMakerParserInternal11SubDocumentD0Ev
_ZN23WordMakerParserInternal11SubDocumentD1Ev
_ZN23WordMakerParserInternal11SubDocumentD2Ev
_ZN23WordMakerParserInternal5StateD1Ev
_ZN23WordMakerParserInternal5StateD2Ev.lto_priv.0
_ZN23WriterPlsParserInternal11SubDocument5parseERSt10shared_ptrI12MWAWListenerEN7libmwaw15SubDocumentTypeE
_ZN23WriterPlsParserInternal11SubDocumentD0Ev
_ZN23WriterPlsParserInternal11SubDocumentD1Ev
_ZN23WriterPlsParserInternal11SubDocumentD2Ev
_ZN24GreatWksDBParserInternal11SubDocument5parseERSt10shared_ptrI12MWAWListenerEN7libmwaw15SubDocumentTypeE
_ZN24GreatWksDBParserInternal11SubDocument5parseERSt10shared_ptrI12MWAWListenerEN7libmwaw15SubDocumentTypeE.cold
_ZN24GreatWksDBParserInternal11SubDocumentD0Ev
_ZN24GreatWksDBParserInternal11SubDocumentD1Ev
_ZN24GreatWksDBParserInternal11SubDocumentD2Ev
_ZN24GreatWksDBParserInternal4CellD0Ev
_ZN24GreatWksDBParserInternal4CellD1Ev
_ZN24GreatWksDBParserInternal4CellD2Ev
_ZN24GreatWksDBParserInternal5FieldC1Ev
_ZN24GreatWksDBParserInternal5FieldC2Ev.lto_priv.0
_ZN24GreatWksDBParserInternal5FieldD1Ev
_ZN24GreatWksDBParserInternal5FieldD2Ev.lto_priv.0
_ZN24GreatWksDBParserInternal5StateD1Ev
_ZN24GreatWksDBParserInternal5StateD2Ev.lto_priv.0
_ZN24GreatWksDBParserInternal8Database7addCellERK8MWAWVec2IiERKNS_4CellE.isra.0
_ZN24GreatWksDBParserInternal8Database7addCellERK8MWAWVec2IiERKNS_4CellE.isra.0.cold
_ZN24GreatWksDBParserInternal8DatabaseD1Ev
_ZN24GreatWksDBParserInternal8DatabaseD2Ev.lto_priv.0
_ZN24GreatWksSSParserInternal11SpreadsheetD1Ev
_ZN24GreatWksSSParserInternal11SpreadsheetD2Ev.lto_priv.0
_ZN24GreatWksSSParserInternal11SubDocument5parseERSt10shared_ptrI12MWAWListenerEN7libmwaw15SubDocumentTypeE
_ZN24GreatWksSSParserInternal11SubDocument5parseERSt10shared_ptrI12MWAWListenerEN7libmwaw15SubDocumentTypeE.cold
_ZN24GreatWksSSParserInternal11SubDocumentD0Ev
_ZN24GreatWksSSParserInternal11SubDocumentD1Ev
_ZN24GreatWksSSParserInternal11SubDocumentD2Ev
_ZN24GreatWksSSParserInternal4CellD0Ev
_ZN24GreatWksSSParserInternal4CellD1Ev
_ZN24GreatWksSSParserInternal4CellD2Ev
_ZN24GreatWksSSParserInternal5StateD1Ev
_ZN24GreatWksSSParserInternal5StateD2Ev.lto_priv.0
_ZN24HanMacWrdJParserInternal11SubDocument5parseERSt10shared_ptrI12MWAWListenerEN7libmwaw15SubDocumentTypeE
_ZN24HanMacWrdJParserInternal11SubDocumentD0Ev
_ZN24HanMacWrdJParserInternal11SubDocumentD1Ev
_ZN24HanMacWrdJParserInternal11SubDocumentD2Ev
_ZN24HanMacWrdKParserInternal11SubDocument5parseERSt10shared_ptrI12MWAWListenerEN7libmwaw15SubDocumentTypeE
_ZN24HanMacWrdKParserInternal11SubDocumentD0Ev
_ZN24HanMacWrdKParserInternal11SubDocumentD1Ev
_ZN24HanMacWrdKParserInternal11SubDocumentD2Ev
_ZN24JazzWriterParserInternal11SubDocument5parseERSt10shared_ptrI12MWAWListenerEN7libmwaw15SubDocumentTypeE
_ZN24JazzWriterParserInternal11SubDocumentD0Ev
_ZN24JazzWriterParserInternal11SubDocumentD1Ev
_ZN24JazzWriterParserInternal11SubDocumentD2Ev
_ZN24JazzWriterParserInternal5StateD1Ev
_ZN24JazzWriterParserInternal5StateD2Ev.lto_priv.0
_ZN24MWAWPresentationListener10_closeSpanEv
_ZN24MWAWPresentationListener10_flushTextEv
_ZN24MWAWPresentationListener10_flushTextEv.cold
_ZN24MWAWPresentationListener10closeFrameEv
_ZN24MWAWPresentationListener10closeGroupEv
_ZN24MWAWPresentationListener10closeGroupEv.cold
_ZN24MWAWPresentationListener10closeTableEv
_ZN24MWAWPresentationListener10closeTableEv.cold
_ZN24MWAWPresentationListener10insertCharEh
_ZN24MWAWPresentationListener10insertNoteERK8MWAWNoteRSt10shared_ptrI15MWAWSubDocumentE
_ZN24MWAWPresentationListener11_changeListEv
_ZN24MWAWPresentationListener11_changeListEv.cold
_ZN24MWAWPresentationListener11endDocumentEb
_ZN24MWAWPresentationListener11endDocumentEb.cold
_ZN24MWAWPresentationListener11getPageSpanEv
_ZN24MWAWPresentationListener11insertBreakEN12MWAWListener9BreakTypeE
_ZN24MWAWPresentationListener11insertFieldERK9MWAWField
_ZN24MWAWPresentationListener11insertFieldERK9MWAWField.cold
_ZN24MWAWPresentationListener11insertGroupERK8MWAWBox2IfERKSt10shared_ptrI15MWAWSubDocumentE
_ZN24MWAWPresentationListener11insertShapeERK12MWAWPositionRK16MWAWGraphicShapeRK16MWAWGraphicStyle
_ZN24MWAWPresentationListener11insertShapeERK12MWAWPositionRK16MWAWGraphicShapeRK16MWAWGraphicStyle.cold
_ZN24MWAWPresentationListener11openSectionERK11MWAWSection
_ZN24MWAWPresentationListener12closeSectionEv
_ZN24MWAWPresentationListener12insertFooterERKSt10shared_ptrI15MWAWSubDocumentERKN10librevenge16RVNGPropertyListE
_ZN24MWAWPresentationListener12insertFooterERKSt10shared_ptrI15MWAWSubDocumentERKN10librevenge16RVNGPropertyListE.cold
_ZN24MWAWPresentationListener12insertHeaderERKSt10shared_ptrI15MWAWSubDocumentERKN10librevenge16RVNGPropertyListE
_ZN24MWAWPresentationListener12insertHeaderERKSt10shared_ptrI15MWAWSubDocumentERKN10librevenge16RVNGPropertyListE.cold
_ZN24MWAWPresentationListener12openTableRowEfN10librevenge8RVNGUnitEb
_ZN24MWAWPresentationListener12openTableRowEfN10librevenge8RVNGUnitEb.cold
_ZN24MWAWPresentationListener12setParagraphERK13MWAWParagraph
_ZN24MWAWPresentationListener13_openPageSpanEb.constprop.0
_ZN24MWAWPresentationListener13_openPageSpanEb.constprop.0.cold
_ZN24MWAWPresentationListener13closeTableRowEv
_ZN24MWAWPresentationListener13insertCommentERSt10shared_ptrI15MWAWSubDocumentE
_ZN24MWAWPresentationListener13insertPictureERK12MWAWPositionRK18MWAWEmbeddedObjectRK16MWAWGraphicStyle
_ZN24MWAWPresentationListener13insertPictureERK12MWAWPositionRK18MWAWEmbeddedObjectRK16MWAWGraphicStyle.cold
_ZN24MWAWPresentationListener13insertTextBoxERK12MWAWPositionRKSt10shared_ptrI15MWAWSubDocumentERK16MWAWGraphicStyle
_ZN24MWAWPresentationListener13insertTextBoxERK12MWAWPositionRKSt10shared_ptrI15MWAWSubDocumentERK16MWAWGraphicStyle.cold
_ZN24MWAWPresentationListener13insertUnicodeEj
_ZN24MWAWPresentationListener13openTableCellERK8MWAWCell
_ZN24MWAWPresentationListener13openTableCellERK8MWAWCell.cold
_ZN24MWAWPresentationListener13startDocumentEv
_ZN24MWAWPresentationListener13startDocumentEv.cold
_ZN24MWAWPresentationListener14_closePageSpanEb
_ZN24MWAWPresentationListener14_openParagraphEv
_ZN24MWAWPresentationListener14_openParagraphEv.cold
_ZN24MWAWPresentationListener14closeTableCellEv
_ZN24MWAWPresentationListener14openMasterPageERK12MWAWPageSpan
_ZN24MWAWPresentationListener14openMasterPageERK12MWAWPageSpan.cold
_ZN24MWAWPresentationListener15_closeParagraphEv
_ZN24MWAWPresentationListener15_endSubDocumentEv.part.0
_ZN24MWAWPresentationListener15insertCharacterEh
_ZN24MWAWPresentationListener15insertCharacterEhRSt10shared_ptrI15MWAWInputStreamEl
_ZN24MWAWPresentationListener15insertSlideNoteERK12MWAWPositionRSt10shared_ptrI15MWAWSubDocumentE
_ZN24MWAWPresentationListener15insertSlideNoteERK12MWAWPositionRSt10shared_ptrI15MWAWSubDocumentE.cold
_ZN24MWAWPresentationListener16_popParsingStateEv
_ZN24MWAWPresentationListener16_popParsingStateEv.cold
_ZN24MWAWPresentationListener16_popParsingStateEv.part.0
_ZN24MWAWPresentationListener17_pushParsingStateEv
_ZN24MWAWPresentationListener17_pushParsingStateEv.cold
_ZN24MWAWPresentationListener17addEmptyTableCellERK8MWAWVec2IiES1_
_ZN24MWAWPresentationListener17addEmptyTableCellERK8MWAWVec2IiES1_.cold
_ZN24MWAWPresentationListener17handleSubDocumentERK8MWAWVec2IfERKSt10shared_ptrI15MWAWSubDocumentEN7libmwaw15SubDocumentTypeE
_ZN24MWAWPresentationListener17handleSubDocumentERK8MWAWVec2IfERKSt10shared_ptrI15MWAWSubDocumentEN7libmwaw15SubDocumentTypeE.cold
_ZN24MWAWPresentationListener17handleSubDocumentERKSt10shared_ptrI15MWAWSubDocumentEN7libmwaw15SubDocumentTypeE
_ZN24MWAWPresentationListener19insertUnicodeStringERKN10librevenge10RVNGStringE
_ZN24MWAWPresentationListener19setDocumentLanguageERKNSt7__cxx1112basic_stringIcSt11char_traitsIcESaIcEEE
_ZN24MWAWPresentationListener19setDocumentMetaDataERKN10librevenge16RVNGPropertyListE
_ZN24MWAWPresentationListener19setDocumentMetaDataERKN10librevenge16RVNGPropertyListE.cold
_ZN24MWAWPresentationListener22_handleFrameParametersERN10librevenge16RVNGPropertyListERK12MWAWPositionRK16MWAWGraphicStyle
_ZN24MWAWPresentationListener22_handleFrameParametersERN10librevenge16RVNGPropertyListERK12MWAWPositionRK16MWAWGraphicStyle.cold
_ZN24MWAWPresentationListener7setFontERK8MWAWFont
_ZN24MWAWPresentationListener7setFontERK8MWAWFont.cold
_ZN24MWAWPresentationListener8openLinkERK8MWAWLink
_ZN24MWAWPresentationListener8openLinkERK8MWAWLink.cold
_ZN24MWAWPresentationListener9_openSpanEv
_ZN24MWAWPresentationListener9_openSpanEv.cold
_ZN24MWAWPresentationListener9closeLinkEv
_ZN24MWAWPresentationListener9closeLinkEv.cold
_ZN24MWAWPresentationListener9insertEOLEb
_ZN24MWAWPresentationListener9insertTabEv
_ZN24MWAWPresentationListener9openFrameERK12MWAWPositionRK16MWAWGraphicStyle
_ZN24MWAWPresentationListener9openGroupERK12MWAWPosition
_ZN24MWAWPresentationListener9openGroupERK12MWAWPosition.cold
_ZN24MWAWPresentationListener9openTableERK12MWAWPositionRK9MWAWTableRK16MWAWGraphicStyle
_ZN24MWAWPresentationListener9openTableERK12MWAWPositionRK9MWAWTableRK16MWAWGraphicStyle.cold
_ZN24MWAWPresentationListener9openTableERK9MWAWTable
_ZN24MWAWPresentationListener9openTableERK9MWAWTable.cold
_ZN24MWAWPresentationListenerC1ER15MWAWParserStateRKSt6vectorI12MWAWPageSpanSaIS3_EEPN10librevenge25RVNGPresentationInterfaceE
_ZN24MWAWPresentationListenerC2ER15MWAWParserStateRKSt6vectorI12MWAWPageSpanSaIS3_EEPN10librevenge25RVNGPresentationInterfaceE
_ZN24MWAWPresentationListenerC2ER15MWAWParserStateRKSt6vectorI12MWAWPageSpanSaIS3_EEPN10librevenge25RVNGPresentationInterfaceE.cold
_ZN24MWAWPresentationListenerD0Ev
_ZN24MWAWPresentationListenerD1Ev
_ZN24MWAWPresentationListenerD2Ev
_ZN24MWAWTextListenerInternal5StateC1Ev
_ZN24MWAWTextListenerInternal5StateC2Ev
_ZN24MWAWTextListenerInternal5StateC2Ev.cold
_ZN24MWAWTextListenerInternal5StateD1Ev
_ZN24MWAWTextListenerInternal5StateD2Ev.lto_priv.0
_ZN24MacDrawProParserInternal11SubDocument5parseERSt10shared_ptrI12MWAWListenerEN7libmwaw15SubDocumentTypeE
_ZN24MacDrawProParserInternal11SubDocument5parseERSt10shared_ptrI12MWAWListenerEN7libmwaw15SubDocumentTypeE.cold
_ZN24MacDrawProParserInternal11SubDocumentD0Ev
_ZN24MacDrawProParserInternal11SubDocumentD1Ev
_ZN24MacDrawProParserInternal11SubDocumentD2Ev.lto_priv.0
_ZN24MacDrawProParserInternal5LayerD1Ev
_ZN24MacDrawProParserInternal5LayerD2Ev.lto_priv.0
_ZN24MacDrawProParserInternal5ShapeC1EOS0_
_ZN24MacDrawProParserInternal5ShapeC2EOS0_.lto_priv.0
_ZN24MacDrawProParserInternal5ShapeC2EOS0_.lto_priv.0.cold
_ZN24MacDrawProParserInternal5ShapeD1Ev
_ZN24MacDrawProParserInternal5ShapeD2Ev.lto_priv.0
_ZN24MacDrawProParserInternal5StateD1Ev
_ZN24MacDrawProParserInternal5StateD2Ev.lto_priv.0
_ZN24MarinerWrtParserInternal11SubDocument5parseERSt10shared_ptrI12MWAWListenerEN7libmwaw15SubDocumentTypeE
_ZN24MarinerWrtParserInternal11SubDocumentD0Ev
_ZN24MarinerWrtParserInternal11SubDocumentD1Ev
_ZN24MarinerWrtParserInternal11SubDocumentD2Ev
_ZN24PowerPoint7GraphInternal10FrameGroupD0Ev
_ZN24PowerPoint7GraphInternal10FrameGroupD1Ev
_ZN24PowerPoint7GraphInternal10FrameGroupD2Ev
_ZN24PowerPoint7GraphInternal11SubDocument5parseERSt10shared_ptrI12MWAWListenerEN7libmwaw15SubDocumentTypeE
_ZN24PowerPoint7GraphInternal11SubDocumentD0Ev
_ZN24PowerPoint7GraphInternal11SubDocumentD1Ev
_ZN24PowerPoint7GraphInternal11SubDocumentD2Ev
_ZN24PowerPoint7GraphInternal12FramePolygonD0Ev
_ZN24PowerPoint7GraphInternal12FramePolygonD1Ev
_ZN24PowerPoint7GraphInternal12FramePolygonD2Ev
_ZN24PowerPoint7GraphInternal16FramePlaceholderD0Ev
_ZN24PowerPoint7GraphInternal16FramePlaceholderD1Ev
_ZN24PowerPoint7GraphInternal16FramePlaceholderD2Ev
_ZN24PowerPoint7GraphInternal5FrameD0Ev
_ZN24PowerPoint7GraphInternal5FrameD1Ev
_ZN24PowerPoint7GraphInternal5FrameD2Ev
_ZN24PowerPoint7GraphInternal5State8setFrameEPNS_5FrameE
_ZN24PowerPoint7GraphInternal5State8setFrameEPNS_5FrameE.cold
_ZN24PowerPoint7GraphInternal8FrameArcD0Ev
_ZN24PowerPoint7GraphInternal8FrameArcD1Ev
_ZN24PowerPoint7GraphInternal8FrameArcD2Ev
_ZN24PowerPoint7GraphInternal9FrameRectD0Ev
_ZN24PowerPoint7GraphInternal9FrameRectD1Ev
_ZN24PowerPoint7GraphInternal9FrameRectD2Ev
_ZN24RagTime5DocumentInternal15ClustListParser9parseDataERSt10shared_ptrI15MWAWInputStreamElR12RagTime5ZoneiRN7libmwaw11DebugStreamE
_ZN24RagTime5DocumentInternal15ClustListParser9parseDataERSt10shared_ptrI15MWAWInputStreamElR12RagTime5ZoneiRN7libmwaw11DebugStreamE.cold
_ZN24RagTime5DocumentInternal15ClustListParserD0Ev
_ZN24RagTime5DocumentInternal15ClustListParserD1Ev
_ZN24RagTime5DocumentInternal15ClustListParserD2Ev
_ZN24RagTime5DocumentInternal18DocInfoFieldParser10parseFieldERN21RagTime5StructManager5FieldER12RagTime5ZoneiRN7libmwaw11DebugStreamE
_ZN24RagTime5DocumentInternal18DocInfoFieldParser10parseFieldERN21RagTime5StructManager5FieldER12RagTime5ZoneiRN7libmwaw11DebugStreamE.cold
_ZN24RagTime5DocumentInternal18DocInfoFieldParserD0Ev
_ZN24RagTime5DocumentInternal18DocInfoFieldParserD1Ev
_ZN24RagTime5DocumentInternal18DocInfoFieldParserD2Ev
_ZN24RagTime5DocumentInternal18IndexUnicodeParser9parseDataERSt10shared_ptrI15MWAWInputStreamElR12RagTime5ZoneiRN7libmwaw11DebugStreamE
_ZN24RagTime5DocumentInternal18IndexUnicodeParser9parseDataERSt10shared_ptrI15MWAWInputStreamElR12RagTime5ZoneiRN7libmwaw11DebugStreamE.cold
_ZN24RagTime5DocumentInternal18IndexUnicodeParserD0Ev
_ZN24RagTime5DocumentInternal18IndexUnicodeParserD1Ev
_ZN24RagTime5DocumentInternal18IndexUnicodeParserD2Ev
_ZN24RagTime5PipelineInternal13UnknownParser9parseDataERSt10shared_ptrI15MWAWInputStreamElR12RagTime5ZoneiRN7libmwaw11DebugStreamE
_ZN24RagTime5PipelineInternal13UnknownParserD0Ev
_ZN24RagTime5PipelineInternal13UnknownParserD1Ev
_ZN24RagTime5PipelineInternal13UnknownParserD2Ev
_ZN24RagTime5PipelineInternal15ClustListParser9parseDataERSt10shared_ptrI15MWAWInputStreamElR12RagTime5ZoneiRN7libmwaw11DebugStreamE
_ZN24RagTime5PipelineInternal15ClustListParser9parseDataERSt10shared_ptrI15MWAWInputStreamElR12RagTime5ZoneiRN7libmwaw11DebugStreamE.cold
_ZN24RagTime5PipelineInternal15ClustListParserD0Ev
_ZN24RagTime5PipelineInternal15ClustListParserD1Ev
_ZN24RagTime5PipelineInternal15ClustListParserD2Ev
_ZN24RagTime5PipelineInternal15ClusterPipelineD0Ev
_ZN24RagTime5PipelineInternal15ClusterPipelineD1Ev
_ZN24RagTime5PipelineInternal15ClusterPipelineD2Ev
_ZN24RagTime5PipelineInternal15PipelineCParser10getClusterEv
_ZN24RagTime5PipelineInternal15PipelineCParser10parseFieldERKN21RagTime5StructManager5FieldEiRN7libmwaw11DebugStreamE
_ZN24RagTime5PipelineInternal15PipelineCParser9parseZoneERSt10shared_ptrI15MWAWInputStreamEliiRN7libmwaw11DebugStreamE
_ZN24RagTime5PipelineInternal15PipelineCParser9parseZoneERSt10shared_ptrI15MWAWInputStreamEliiRN7libmwaw11DebugStreamE.cold
_ZN24RagTime5PipelineInternal15PipelineCParserD0Ev
_ZN24RagTime5PipelineInternal15PipelineCParserD1Ev
_ZN24RagTime5PipelineInternal15PipelineCParserD2Ev
_ZN24RagTime5SSParserInternal11SubDocument5parseERSt10shared_ptrI12MWAWListenerEN7libmwaw15SubDocumentTypeE
_ZN24RagTime5SSParserInternal11SubDocumentD0Ev
_ZN24RagTime5SSParserInternal11SubDocumentD1Ev
_ZN24RagTime5SSParserInternal11SubDocumentD2Ev
_ZN24SuperPaintParserInternal11SubDocument5parseERSt10shared_ptrI12MWAWListenerEN7libmwaw15SubDocumentTypeE
_ZN24SuperPaintParserInternal11SubDocumentD0Ev
_ZN24SuperPaintParserInternal11SubDocumentD1Ev
_ZN24SuperPaintParserInternal11SubDocumentD2Ev
_ZN24SuperPaintParserInternal5ShapeC2ENS0_4TypeERK8MWAWBox2IfE.isra.0
_ZN24SuperPaintParserInternal5ShapeC2ENS0_4TypeERK8MWAWBox2IfE.isra.0.cold
_ZN24SuperPaintParserInternal5ShapeD1Ev
_ZN24SuperPaintParserInternal5ShapeD2Ev.lto_priv.0
_ZN24SuperPaintParserInternal5State8getColorEiR9MWAWColor
_ZN25BeagleWksDBParserInternal11SubDocument5parseERSt10shared_ptrI12MWAWListenerEN7libmwaw15SubDocumentTypeE
_ZN25BeagleWksDBParserInternal11SubDocument5parseERSt10shared_ptrI12MWAWListenerEN7libmwaw15SubDocumentTypeE.cold
_ZN25BeagleWksDBParserInternal11SubDocumentD0Ev
_ZN25BeagleWksDBParserInternal11SubDocumentD1Ev
_ZN25BeagleWksDBParserInternal11SubDocumentD2Ev
_ZN25BeagleWksDBParserInternal4CellD0Ev
_ZN25BeagleWksDBParserInternal4CellD1Ev
_ZN25BeagleWksDBParserInternal4CellD2Ev
_ZN25BeagleWksDBParserInternal5StateD1Ev
_ZN25BeagleWksDBParserInternal5StateD2Ev.lto_priv.0
_ZN25BeagleWksDRParserInternal11SubDocument5parseERSt10shared_ptrI12MWAWListenerEN7libmwaw15SubDocumentTypeE
_ZN25BeagleWksDRParserInternal11SubDocumentD0Ev
_ZN25BeagleWksDRParserInternal11SubDocumentD1Ev
_ZN25BeagleWksDRParserInternal11SubDocumentD2Ev
_ZN25BeagleWksDRParserInternal5ShapeD1Ev
_ZN25BeagleWksDRParserInternal5ShapeD2Ev.lto_priv.0
_ZN25BeagleWksSSParserInternal11SpreadsheetD1Ev
_ZN25BeagleWksSSParserInternal11SpreadsheetD2Ev.lto_priv.0
_ZN25BeagleWksSSParserInternal11SubDocument5parseERSt10shared_ptrI12MWAWListenerEN7libmwaw15SubDocumentTypeE
_ZN25BeagleWksSSParserInternal11SubDocument5parseERSt10shared_ptrI12MWAWListenerEN7libmwaw15SubDocumentTypeE.cold
_ZN25BeagleWksSSParserInternal11SubDocumentD0Ev
_ZN25BeagleWksSSParserInternal11SubDocumentD1Ev
_ZN25BeagleWksSSParserInternal11SubDocumentD2Ev
_ZN25BeagleWksSSParserInternal4CellD0Ev
_ZN25BeagleWksSSParserInternal4CellD1Ev
_ZN25BeagleWksSSParserInternal4CellD2Ev
_ZN25BeagleWksSSParserInternal5Chart11sendContentERKN9MWAWChart8TextZoneERSt10shared_ptrI12MWAWListenerE
_ZN25BeagleWksSSParserInternal5ChartC1ERKNSt7__cxx1112basic_stringIcSt11char_traitsIcESaIcEEER17BeagleWksSSParser
_ZN25BeagleWksSSParserInternal5ChartC2ERKNSt7__cxx1112basic_stringIcSt11char_traitsIcESaIcEEER17BeagleWksSSParser
_ZN25BeagleWksSSParserInternal5ChartC2ERKNSt7__cxx1112basic_stringIcSt11char_traitsIcESaIcEEER17BeagleWksSSParser.cold
_ZN25BeagleWksSSParserInternal5ChartD0Ev
_ZN25BeagleWksSSParserInternal5ChartD1Ev
_ZN25BeagleWksSSParserInternal5ChartD2Ev.lto_priv.0
_ZN25BeagleWksSSParserInternal5StateD1Ev
_ZN25BeagleWksSSParserInternal5StateD2Ev.lto_priv.0
_ZN25ClarisWksDatabaseInternal5FieldD1Ev
_ZN25ClarisWksDatabaseInternal5FieldD2Ev
_ZN25ClarisWksDatabaseInternal8DatabaseD0Ev
_ZN25ClarisWksDatabaseInternal8DatabaseD1Ev
_ZN25ClarisWksDatabaseInternal8DatabaseD2Ev
_ZN25ClarisWksDocumentInternal11SubDocument5parseERSt10shared_ptrI12MWAWListenerEN7libmwaw15SubDocumentTypeE
_ZN25ClarisWksDocumentInternal11SubDocument5parseERSt10shared_ptrI12MWAWListenerEN7libmwaw15SubDocumentTypeE.cold
_ZN25ClarisWksDocumentInternal11SubDocumentD0Ev
_ZN25ClarisWksDocumentInternal11SubDocumentD1Ev
_ZN25ClarisWksDocumentInternal11SubDocumentD2Ev
_ZN25ClarisWksDocumentInternal5StateD1Ev
_ZN25ClarisWksDocumentInternal5StateD2Ev.lto_priv.0
_ZN25ClarisWksSSParserInternal11SubDocument5parseERSt10shared_ptrI12MWAWListenerEN7libmwaw15SubDocumentTypeE
_ZN25ClarisWksSSParserInternal11SubDocument5parseERSt10shared_ptrI12MWAWListenerEN7libmwaw15SubDocumentTypeE.cold
_ZN25ClarisWksSSParserInternal11SubDocumentD0Ev
_ZN25ClarisWksSSParserInternal11SubDocumentD1Ev
_ZN25ClarisWksSSParserInternal11SubDocumentD2Ev
_ZN25CricketDrawParserInternal11SubDocument5parseERSt10shared_ptrI12MWAWListenerEN7libmwaw15SubDocumentTypeE
_ZN25CricketDrawParserInternal11SubDocumentD0Ev
_ZN25CricketDrawParserInternal11SubDocumentD1Ev
_ZN25CricketDrawParserInternal11SubDocumentD2Ev
_ZN25CricketDrawParserInternal5ShapeC1ERKS0_
_ZN25CricketDrawParserInternal5ShapeC2ERKS0_
_ZN25CricketDrawParserInternal5ShapeC2ERKS0_.cold
_ZN25CricketDrawParserInternal5ShapeD1Ev
_ZN25CricketDrawParserInternal5ShapeD2Ev.lto_priv.0
_ZN25CricketDrawParserInternal5State8getColorEiiR9MWAWColor
_ZN25LightWayTxtParserInternal11SubDocument5parseERSt10shared_ptrI12MWAWListenerEN7libmwaw15SubDocumentTypeE
_ZN25LightWayTxtParserInternal11SubDocument5parseERSt10shared_ptrI12MWAWListenerEN7libmwaw15SubDocumentTypeE.cold
_ZN25LightWayTxtParserInternal11SubDocumentD0Ev
_ZN25LightWayTxtParserInternal11SubDocumentD1Ev
_ZN25LightWayTxtParserInternal11SubDocumentD2Ev
_ZN25MWAWFontConverterInternal4Data15KnownConversion17getConversionMapsENSt7__cxx1112basic_stringIcSt11char_traitsIcESaIcEEE
_ZN25MWAWFontConverterInternal4Data15KnownConversion8initMapsEv
_ZN25MWAWFontConverterInternal4Data15KnownConversion8initMapsEv.cold
_ZN25MWAWFontConverterInternal4Data15KnownConversionD1Ev
_ZN25MWAWFontConverterInternal4Data15KnownConversionD2Ev.lto_priv.0
_ZN25MWAWFontConverterInternal5State10getOdtInfoEiRNSt7__cxx1112basic_stringIcSt11char_traitsIcESaIcEEERi
_ZN25MWAWFontConverterInternal5State10getOdtInfoEiRNSt7__cxx1112basic_stringIcSt11char_traitsIcESaIcEEERi.cold
_ZN25MWAWFontConverterInternal5State11updateCacheEi
_ZN25MWAWFontConverterInternal5State11updateCacheEi.cold
_ZN25MWAWFontConverterInternal5State7unicodeEihRSt10shared_ptrI15MWAWInputStreamE
_ZN25MWAWFontConverterInternal5State7unicodeEihRSt10shared_ptrI15MWAWInputStreamE.cold
_ZN25MWAWFontConverterInternal5State8initMapsEv
_ZN25PowerPoint1ParserInternal11SubDocument5parseERSt10shared_ptrI12MWAWListenerEN7libmwaw15SubDocumentTypeE
_ZN25PowerPoint1ParserInternal11SubDocument5parseERSt10shared_ptrI12MWAWListenerEN7libmwaw15SubDocumentTypeE.cold
_ZN25PowerPoint1ParserInternal11SubDocumentD0Ev
_ZN25PowerPoint1ParserInternal11SubDocumentD1Ev
_ZN25PowerPoint1ParserInternal11SubDocumentD2Ev
_ZN25PowerPoint1ParserInternal5SlideD1Ev
_ZN25PowerPoint1ParserInternal5SlideD2Ev.lto_priv.0
_ZN25PowerPoint1ParserInternal5StateC1Ev
_ZN25PowerPoint1ParserInternal5StateC2Ev.lto_priv.0
_ZN25PowerPoint1ParserInternal5StateC2Ev.lto_priv.0.cold
_ZN25PowerPoint1ParserInternal8TextZone4LineD1Ev
_ZN25PowerPoint1ParserInternal8TextZone4LineD2Ev.lto_priv.0
_ZN25PowerPoint3ParserInternal11SubDocument5parseERSt10shared_ptrI12MWAWListenerEN7libmwaw15SubDocumentTypeE
_ZN25PowerPoint3ParserInternal11SubDocumentD0Ev
_ZN25PowerPoint3ParserInternal11SubDocumentD1Ev
_ZN25PowerPoint3ParserInternal11SubDocumentD2Ev
_ZN25PowerPoint3ParserInternal16ListZoneIdParser5parseEiRSt10shared_ptrI15MWAWInputStreamERN7libmwaw9DebugFileE
_ZN25PowerPoint3ParserInternal16ListZoneIdParserD0Ev
_ZN25PowerPoint3ParserInternal16ListZoneIdParserD1Ev.lto_priv.0
_ZN25PowerPoint3ParserInternal16ListZoneIdParserD2Ev.lto_priv.0
_ZN25PowerPoint3ParserInternal19FontNameFieldParser5parseEiRSt10shared_ptrI15MWAWInputStreamERN7libmwaw9DebugFileE
_ZN25PowerPoint3ParserInternal19FontNameFieldParser5parseEiRSt10shared_ptrI15MWAWInputStreamERN7libmwaw9DebugFileE.cold
_ZN25PowerPoint3ParserInternal19FontNameFieldParserD0Ev
_ZN25PowerPoint3ParserInternal19FontNameFieldParserD1Ev
_ZN25PowerPoint3ParserInternal19FontNameFieldParserD2Ev
_ZN25PowerPoint3ParserInternal5StateC1Ev
_ZN25PowerPoint3ParserInternal5StateC2Ev.lto_priv.0
_ZN25PowerPoint3ParserInternal5StateC2Ev.lto_priv.0.cold
_ZN25PowerPoint3ParserInternal5StateD1Ev
_ZN25PowerPoint3ParserInternal5StateD2Ev.lto_priv.0
_ZN25PowerPoint3ParserInternal8TextZoneD1Ev
_ZN25PowerPoint3ParserInternal8TextZoneD2Ev.lto_priv.0
_ZN25PowerPoint7ParserInternal5State12popColorListEv
_ZN25PowerPoint7ParserInternal5State12popColorListEv.cold
_ZN25PowerPoint7ParserInternal5State13pushColorListERKSt6vectorI9MWAWColorSaIS2_EE
_ZN25PowerPoint7ParserInternal5State13pushColorListERKSt6vectorI9MWAWColorSaIS2_EE.cold
_ZN25PowerPoint7ParserInternal5StateD1Ev
_ZN25PowerPoint7ParserInternal5StateD2Ev.lto_priv.0
_ZN25SpringBoardParserInternal11SubDocument5parseERSt10shared_ptrI12MWAWListenerEN7libmwaw15SubDocumentTypeE
_ZN25SpringBoardParserInternal11SubDocument5parseERSt10shared_ptrI12MWAWListenerEN7libmwaw15SubDocumentTypeE.cold
_ZN25SpringBoardParserInternal11SubDocumentD0Ev
_ZN25SpringBoardParserInternal11SubDocumentD1Ev
_ZN25SpringBoardParserInternal11SubDocumentD2Ev
_ZN25SpringBoardParserInternal5StateD1Ev
_ZN25SpringBoardParserInternal5StateD2Ev.lto_priv.0
_ZN26CorelPainterParserInternal10ZoneHeaderD1Ev
_ZN26CorelPainterParserInternal10ZoneHeaderD2Ev
_ZN26CorelPainterParserInternal11SubDocument5parseERSt10shared_ptrI12MWAWListenerEN7libmwaw15SubDocumentTypeE
_ZN26CorelPainterParserInternal11SubDocumentD0Ev
_ZN26CorelPainterParserInternal11SubDocumentD1Ev
_ZN26CorelPainterParserInternal11SubDocumentD2Ev
_ZN26MWAWPropertyHandlerDecoder10readStringERN10librevenge15RVNGInputStreamERNS0_10RVNGStringE.isra.0
_ZN26MWAWPropertyHandlerDecoder10readStringERN10librevenge15RVNGInputStreamERNS0_10RVNGStringE.isra.0.cold
_ZN26MWAWPropertyHandlerDecoder16readPropertyListERN10librevenge15RVNGInputStreamERNS0_16RVNGPropertyListE.isra.0
_ZN26MWAWPropertyHandlerDecoder16readPropertyListERN10librevenge15RVNGInputStreamERNS0_16RVNGPropertyListE.isra.0.cold
_ZN26MWAWPropertyHandlerDecoder8readDataERKN10librevenge14RVNGBinaryDataE
_ZN26MWAWPropertyHandlerDecoder8readDataERKN10librevenge14RVNGBinaryDataE.cold
_ZN26MWAWPropertyHandlerEncoder11writeStringERKN10librevenge10RVNGStringE
_ZN26MWAWPropertyHandlerEncoder13insertElementEPKc
_ZN26MWAWPropertyHandlerEncoder13insertElementEPKc.cold
_ZN26MWAWPropertyHandlerEncoder13insertElementEPKcRKN10librevenge16RVNGPropertyListE
_ZN26MWAWPropertyHandlerEncoder13insertElementEPKcRKN10librevenge16RVNGPropertyListE.cold
_ZN26MWAWPropertyHandlerEncoder17writePropertyListERKN10librevenge16RVNGPropertyListE
_ZN26MWAWPropertyHandlerEncoder17writePropertyListERKN10librevenge16RVNGPropertyListE.cold
_ZN26MWAWPropertyHandlerEncoder7getDataERN10librevenge14RVNGBinaryDataE
_ZN26MWAWPropertyHandlerEncoder7getDataERN10librevenge14RVNGBinaryDataE.cold
_ZN26RagTimeSpreadsheetInternal10CellBorderD1Ev
_ZN26RagTimeSpreadsheetInternal10CellBorderD2Ev.lto_priv.0
_ZN26RagTimeSpreadsheetInternal10CellFormatD1Ev
_ZN26RagTimeSpreadsheetInternal10CellFormatD2Ev.lto_priv.0
_ZN26RagTimeSpreadsheetInternal11SpreadsheetD1Ev
_ZN26RagTimeSpreadsheetInternal11SpreadsheetD2Ev.lto_priv.0
_ZN26RagTimeSpreadsheetInternal4Cell15validateFormulaEv
_ZN26RagTimeSpreadsheetInternal4CellC2E8MWAWVec2IiE.constprop.0
_ZN26RagTimeSpreadsheetInternal4CellD0Ev
_ZN26RagTimeSpreadsheetInternal4CellD1Ev
_ZN26RagTimeSpreadsheetInternal4CellD2Ev
_ZN26RagTimeSpreadsheetInternal5StateD1Ev
_ZN26RagTimeSpreadsheetInternal5StateD2Ev.lto_priv.0
_ZN26ScriptWriterParserInternal11SubDocument5parseERSt10shared_ptrI12MWAWListenerEN7libmwaw15SubDocumentTypeE
_ZN26ScriptWriterParserInternal11SubDocumentD0Ev
_ZN26ScriptWriterParserInternal11SubDocumentD1Ev
_ZN26ScriptWriterParserInternal11SubDocumentD2Ev
_ZN26ScriptWriterParserInternal4PageD1Ev
_ZN26ScriptWriterParserInternal4PageD2Ev
_ZN26ScriptWriterParserInternal5FrameD1Ev
_ZN26ScriptWriterParserInternal5FrameD2Ev
_ZN26ScriptWriterParserInternal5StateD1Ev
_ZN26ScriptWriterParserInternal5StateD2Ev
_ZN27MWAWGraphicListenerInternal12GraphicStateC1ERKSt6vectorI12MWAWPageSpanSaIS2_EE
_ZN27MWAWGraphicListenerInternal12GraphicStateC2ERKSt6vectorI12MWAWPageSpanSaIS2_EE.lto_priv.0
_ZN27MWAWGraphicListenerInternal12GraphicStateC2ERKSt6vectorI12MWAWPageSpanSaIS2_EE.lto_priv.0.cold
_ZN27MWAWGraphicListenerInternal12GraphicStateD1Ev
_ZN27MWAWGraphicListenerInternal12GraphicStateD2Ev.lto_priv.0
_ZN27MWAWGraphicListenerInternal5StateC1Ev
_ZN27MWAWGraphicListenerInternal5StateC2Ev
_ZN27MWAWGraphicListenerInternal5StateC2Ev.cold
_ZN27MWAWGraphicListenerInternal5StateD1Ev
_ZN27MWAWGraphicListenerInternal5StateD2Ev.lto_priv.0
_ZN27MWAWPictBitmapContainerBoolD0Ev
_ZN27MWAWPictBitmapContainerBoolD1Ev
_ZN27MWAWPictBitmapContainerBoolD2Ev
_ZN27MacWrtProStructuresInternal4Cell11sendContentESt10shared_ptrI12MWAWListenerER9MWAWTable
_ZN27MacWrtProStructuresInternal4CellD0Ev
_ZN27MacWrtProStructuresInternal4CellD1Ev
_ZN27MacWrtProStructuresInternal4CellD2Ev
_ZN27MacWrtProStructuresInternal5StateD1Ev
_ZN27MacWrtProStructuresInternal5StateD2Ev.lto_priv.0
_ZN27MacWrtProStructuresInternal5TableD0Ev
_ZN27MacWrtProStructuresInternal5TableD1Ev
_ZN27MacWrtProStructuresInternal5TableD2Ev
_ZN27MacWrtProStructuresInternal7GraphicC1Ei
_ZN27MacWrtProStructuresInternal7GraphicC2Ei.lto_priv.0
_ZN27MacWrtProStructuresInternal9ParagraphD0Ev
_ZN27MacWrtProStructuresInternal9ParagraphD1Ev
_ZN27MacWrtProStructuresInternal9ParagraphD2Ev
_ZN27RagTime5SpreadsheetInternal12ValuesParser9parseDataERSt10shared_ptrI15MWAWInputStreamElR12RagTime5ZoneiRN7libmwaw11DebugStreamE
_ZN27RagTime5SpreadsheetInternal12ValuesParser9parseDataERSt10shared_ptrI15MWAWInputStreamElR12RagTime5ZoneiRN7libmwaw11DebugStreamE.cold
_ZN27RagTime5SpreadsheetInternal12ValuesParserD0Ev
_ZN27RagTime5SpreadsheetInternal12ValuesParserD1Ev
_ZN27RagTime5SpreadsheetInternal12ValuesParserD2Ev
_ZN27RagTime5SpreadsheetInternal13CellPLCParser9parseDataERSt10shared_ptrI15MWAWInputStreamElR12RagTime5ZoneiRN7libmwaw11DebugStreamE
_ZN27RagTime5SpreadsheetInternal13CellPLCParser9parseDataERSt10shared_ptrI15MWAWInputStreamElR12RagTime5ZoneiRN7libmwaw11DebugStreamE.cold
_ZN27RagTime5SpreadsheetInternal13CellPLCParserD0Ev
_ZN27RagTime5SpreadsheetInternal13CellPLCParserD1Ev
_ZN27RagTime5SpreadsheetInternal13CellPLCParserD2Ev
_ZN27RagTime5SpreadsheetInternal15ClustListParser9parseDataERSt10shared_ptrI15MWAWInputStreamElR12RagTime5ZoneiRN7libmwaw11DebugStreamE
_ZN27RagTime5SpreadsheetInternal15ClustListParser9parseDataERSt10shared_ptrI15MWAWInputStreamElR12RagTime5ZoneiRN7libmwaw11DebugStreamE.cold
_ZN27RagTime5SpreadsheetInternal15ClustListParserD0Ev
_ZN27RagTime5SpreadsheetInternal15ClustListParserD1Ev
_ZN27RagTime5SpreadsheetInternal15ClustListParserD2Ev
_ZN27RagTime5SpreadsheetInternal18ClusterSpreadsheetC1Ev
_ZN27RagTime5SpreadsheetInternal18ClusterSpreadsheetC2Ev.lto_priv.0
_ZN27RagTime5SpreadsheetInternal18ClusterSpreadsheetD0Ev
_ZN27RagTime5SpreadsheetInternal18ClusterSpreadsheetD1Ev
_ZN27RagTime5SpreadsheetInternal18ClusterSpreadsheetD2Ev
_ZN27RagTime5SpreadsheetInternal18SpreadsheetCParser10getClusterEv
_ZN27RagTime5SpreadsheetInternal18SpreadsheetCParser10parseFieldERKN21RagTime5StructManager5FieldEiRN7libmwaw11DebugStreamE
_ZN27RagTime5SpreadsheetInternal18SpreadsheetCParser13parseDataZoneERSt10shared_ptrI15MWAWInputStreamEliiRN7libmwaw11DebugStreamE
_ZN27RagTime5SpreadsheetInternal18SpreadsheetCParser13parseDataZoneERSt10shared_ptrI15MWAWInputStreamEliiRN7libmwaw11DebugStreamE.cold
_ZN27RagTime5SpreadsheetInternal18SpreadsheetCParser15setExpectedTypeEii
_ZN27RagTime5SpreadsheetInternal18SpreadsheetCParser17getNewZoneToParseEv
_ZN27RagTime5SpreadsheetInternal18SpreadsheetCParser7endZoneEv
_ZN27RagTime5SpreadsheetInternal18SpreadsheetCParser9parseZoneERSt10shared_ptrI15MWAWInputStreamEliiRN7libmwaw11DebugStreamE
_ZN27RagTime5SpreadsheetInternal18SpreadsheetCParser9parseZoneERSt10shared_ptrI15MWAWInputStreamEliiRN7libmwaw11DebugStreamE.cold
_ZN27RagTime5SpreadsheetInternal18SpreadsheetCParserD0Ev
_ZN27RagTime5SpreadsheetInternal18SpreadsheetCParserD1Ev
_ZN27RagTime5SpreadsheetInternal18SpreadsheetCParserD2Ev
_ZN27RagTime5SpreadsheetInternal5Sheet12setPLCValuesERK8MWAWVec3IiES4_ii
_ZN27RagTime5SpreadsheetInternal5Sheet12setPLCValuesERK8MWAWVec3IiES4_ii.cold
_ZN27RagTime5SpreadsheetInternal5Sheet25increasePlaneSizeIfNeededEi
_ZN27RagTime5SpreadsheetInternal5Sheet25increasePlaneSizeIfNeededEi.cold
_ZN27RagTime5SpreadsheetInternal5Sheet5Plane6updateERKS0_RK8MWAWBox2IiEii
_ZN27RagTime5SpreadsheetInternal5Sheet5Plane6updateERKS0_RK8MWAWBox2IiEii.cold
_ZN27RagTime5SpreadsheetInternal5Sheet5Plane9splitRowsERK8MWAWVec2IiE
_ZN27RagTime5SpreadsheetInternal5Sheet5Plane9splitRowsERK8MWAWVec2IiE.cold
_ZN27RagTime5SpreadsheetInternal5SheetC1Ev
_ZN27RagTime5SpreadsheetInternal5SheetC2Ev.lto_priv.0
_ZN27RagTime5SpreadsheetInternal5SheetC2Ev.lto_priv.0.cold
_ZN27RagTime5SpreadsheetInternal5SheetD1Ev
_ZN27RagTime5SpreadsheetInternal5SheetD2Ev
_ZN27RagTime5SpreadsheetInternal9BorderPLCC1ERKSt6vectorIiSaIiEE
_ZN27RagTime5SpreadsheetInternal9BorderPLCC2ERKSt6vectorIiSaIiEE
_ZN27RagTime5SpreadsheetInternal9BorderPLCC2ERKSt6vectorIiSaIiEE.cold
_ZN28ClarisWksSpreadsheetInternal11SpreadsheetD0Ev
_ZN28ClarisWksSpreadsheetInternal11SpreadsheetD1Ev
_ZN28ClarisWksSpreadsheetInternal11SpreadsheetD2Ev
_ZN28RagTime5StyleManagerInternal15TextFieldParser10parseFieldERN21RagTime5StructManager5FieldER12RagTime5ZoneiRN7libmwaw11DebugStreamE
_ZN28RagTime5StyleManagerInternal15TextFieldParser10parseFieldERN21RagTime5StructManager5FieldER12RagTime5ZoneiRN7libmwaw11DebugStreamE.cold
_ZN28RagTime5StyleManagerInternal15TextFieldParser16parseHeaderFieldERN21RagTime5StructManager5FieldER12RagTime5ZoneiRN7libmwaw11DebugStreamE
_ZN28RagTime5StyleManagerInternal15TextFieldParserD0Ev
_ZN28RagTime5StyleManagerInternal15TextFieldParserD1Ev
_ZN28RagTime5StyleManagerInternal15TextFieldParserD2Ev
_ZN28RagTime5StyleManagerInternal16ColorFieldParser10parseFieldERN21RagTime5StructManager5FieldER12RagTime5ZoneiRN7libmwaw11DebugStreamE
_ZN28RagTime5StyleManagerInternal16ColorFieldParserD0Ev
_ZN28RagTime5StyleManagerInternal16ColorFieldParserD1Ev
_ZN28RagTime5StyleManagerInternal16ColorFieldParserD2Ev
_ZN28RagTime5StyleManagerInternal18GraphicFieldParser10parseFieldERN21RagTime5StructManager5FieldER12RagTime5ZoneiRN7libmwaw11DebugStreamE
_ZN28RagTime5StyleManagerInternal18GraphicFieldParser10parseFieldERN21RagTime5StructManager5FieldER12RagTime5ZoneiRN7libmwaw11DebugStreamE.cold
_ZN28RagTime5StyleManagerInternal18GraphicFieldParser16parseHeaderFieldERN21RagTime5StructManager5FieldER12RagTime5ZoneiRN7libmwaw11DebugStreamE
_ZN28RagTime5StyleManagerInternal18GraphicFieldParser16parseHeaderFieldERN21RagTime5StructManager5FieldER12RagTime5ZoneiRN7libmwaw11DebugStreamE.cold
_ZN28RagTime5StyleManagerInternal18GraphicFieldParserD0Ev
_ZN28RagTime5StyleManagerInternal18GraphicFieldParserD1Ev
_ZN28RagTime5StyleManagerInternal18GraphicFieldParserD2Ev
_ZN29ClarisWksPresentationInternal11SubDocument5parseERSt10shared_ptrI12MWAWListenerEN7libmwaw15SubDocumentTypeE
_ZN29ClarisWksPresentationInternal11SubDocument5parseERSt10shared_ptrI12MWAWListenerEN7libmwaw15SubDocumentTypeE.cold
_ZN29ClarisWksPresentationInternal11SubDocumentD0Ev
_ZN29ClarisWksPresentationInternal11SubDocumentD1Ev.lto_priv.0
_ZN29ClarisWksPresentationInternal11SubDocumentD2Ev.lto_priv.0
_ZN29ClarisWksPresentationInternal12Presentation11removeChildEib
_ZN29ClarisWksPresentationInternal12PresentationD0Ev
_ZN29ClarisWksPresentationInternal12PresentationD1Ev
_ZN29ClarisWksPresentationInternal12PresentationD2Ev
_ZN29ClarisWksStyleManagerInternal5State19setDefaultColorListEi.part.0
_ZN29ClarisWksStyleManagerInternal5State21setDefaultPatternListEi.part.0
_ZN29ClarisWksStyleManagerInternal5State21setDefaultPatternListEi.part.0.cold
_ZN29ClarisWksStyleManagerInternal5State22setDefaultGradientListEi.part.0
_ZN29ClarisWksStyleManagerInternal5StateD1Ev
_ZN29ClarisWksStyleManagerInternal5StateD2Ev.lto_priv.0
_ZN29ClarisWksStyleManagerInternal7PatternD0Ev
_ZN29ClarisWksStyleManagerInternal7PatternD1Ev
_ZN29ClarisWksStyleManagerInternal7PatternD2Ev
_ZN29MacDraft5StyleManagerInternal5State10initArrowsEv
_ZN29MacDraft5StyleManagerInternal5State10initArrowsEv.cold
_ZN29MacDraft5StyleManagerInternal5State12initPatternsEv
_ZN29MacDraft5StyleManagerInternal5State12initPatternsEv.cold
_ZN29MacDraft5StyleManagerInternal6Pixmap14readPixmapDataER15MWAWInputStream
_ZN29MacDraft5StyleManagerInternal6Pixmap14readPixmapDataER15MWAWInputStream.cold
_ZN29StudentWritingCParserInternal10LWZDecoder9decodeRecEjRSt6vectorIhSaIhEE
_ZN29StudentWritingCParserInternal10LWZDecoder9decodeRecEjRSt6vectorIhSaIhEE.cold
_ZN29StudentWritingCParserInternal10LWZDecoder9decodeRecEjRSt6vectorIhSaIhEE.part.0.lto_priv.0
_ZN29StudentWritingCParserInternal11SubDocument5parseERSt10shared_ptrI12MWAWListenerEN7libmwaw15SubDocumentTypeE
_ZN29StudentWritingCParserInternal11SubDocumentD0Ev
_ZN29StudentWritingCParserInternal11SubDocumentD1Ev
_ZN29StudentWritingCParserInternal11SubDocumentD2Ev
_ZN30ClarisDrawStyleManagerInternal5State10initColorsEv
_ZN30ClarisDrawStyleManagerInternal5State13initGradientsEv
_ZN30ClarisDrawStyleManagerInternal5State14initBWPatternsEv
_ZN30ClarisDrawStyleManagerInternal5State14initBWPatternsEv.cold
_ZN30MacDrawProStyleManagerInternal5State10initColorsEv.part.0
_ZN30RagTime5ClusterManagerInternal11RootCParser10getClusterEv
_ZN30RagTime5ClusterManagerInternal11RootCParser10parseFieldERKN21RagTime5StructManager5FieldEiRN7libmwaw11DebugStreamE
_ZN30RagTime5ClusterManagerInternal11RootCParser13parseDataZoneERSt10shared_ptrI15MWAWInputStreamEliiRN7libmwaw11DebugStreamE
_ZN30RagTime5ClusterManagerInternal11RootCParser13parseDataZoneERSt10shared_ptrI15MWAWInputStreamEliiRN7libmwaw11DebugStreamE.cold
_ZN30RagTime5ClusterManagerInternal11RootCParser15setExpectedTypeEii
_ZN30RagTime5ClusterManagerInternal11RootCParser17getNewZoneToParseEv
_ZN30RagTime5ClusterManagerInternal11RootCParser7endZoneEv
_ZN30RagTime5ClusterManagerInternal11RootCParser9parseZoneERSt10shared_ptrI15MWAWInputStreamEliiRN7libmwaw11DebugStreamE
_ZN30RagTime5ClusterManagerInternal11RootCParser9parseZoneERSt10shared_ptrI15MWAWInputStreamEliiRN7libmwaw11DebugStreamE.cold
_ZN30RagTime5ClusterManagerInternal11RootCParserD0Ev
_ZN30RagTime5ClusterManagerInternal11RootCParserD1Ev
_ZN30RagTime5ClusterManagerInternal11RootCParserD2Ev
_ZN30RagTime5ClusterManagerInternal12ClusterSoundD0Ev
_ZN30RagTime5ClusterManagerInternal12ClusterSoundD1Ev
_ZN30RagTime5ClusterManagerInternal12ClusterSoundD2Ev
_ZN30RagTime5ClusterManagerInternal12GroupCParser10getClusterEv
_ZN30RagTime5ClusterManagerInternal12GroupCParser10parseFieldERKN21RagTime5StructManager5FieldEiRN7libmwaw11DebugStreamE
_ZN30RagTime5ClusterManagerInternal12GroupCParser7endZoneEv
_ZN30RagTime5ClusterManagerInternal12GroupCParser9parseZoneERSt10shared_ptrI15MWAWInputStreamEliiRN7libmwaw11DebugStreamE
_ZN30RagTime5ClusterManagerInternal12GroupCParser9parseZoneERSt10shared_ptrI15MWAWInputStreamEliiRN7libmwaw11DebugStreamE.cold
_ZN30RagTime5ClusterManagerInternal12GroupCParserD0Ev
_ZN30RagTime5ClusterManagerInternal12GroupCParserD1Ev
_ZN30RagTime5ClusterManagerInternal12GroupCParserD2Ev
_ZN30RagTime5ClusterManagerInternal12SoundCParser10getClusterEv
_ZN30RagTime5ClusterManagerInternal12SoundCParser10parseFieldERKN21RagTime5StructManager5FieldEiRN7libmwaw11DebugStreamE
_ZN30RagTime5ClusterManagerInternal12SoundCParser17getNewZoneToParseEv
_ZN30RagTime5ClusterManagerInternal12SoundCParser7endZoneEv
_ZN30RagTime5ClusterManagerInternal12SoundCParser9parseZoneERSt10shared_ptrI15MWAWInputStreamEliiRN7libmwaw11DebugStreamE
_ZN30RagTime5ClusterManagerInternal12SoundCParser9parseZoneERSt10shared_ptrI15MWAWInputStreamEliiRN7libmwaw11DebugStreamE.cold
_ZN30RagTime5ClusterManagerInternal12SoundCParserC1ER22RagTime5ClusterManageri
_ZN30RagTime5ClusterManagerInternal12SoundCParserC2ER22RagTime5ClusterManageri
_ZN30RagTime5ClusterManagerInternal12SoundCParserC2ER22RagTime5ClusterManageri.cold
_ZN30RagTime5ClusterManagerInternal12SoundCParserD0Ev
_ZN30RagTime5ClusterManagerInternal12SoundCParserD1Ev
_ZN30RagTime5ClusterManagerInternal12SoundCParserD2Ev
_ZN30RagTime5ClusterManagerInternal12StyleCParser10getClusterEv
_ZN30RagTime5ClusterManagerInternal12StyleCParser10parseFieldERKN21RagTime5StructManager5FieldEiRN7libmwaw11DebugStreamE
_ZN30RagTime5ClusterManagerInternal12StyleCParser7endZoneEv
_ZN30RagTime5ClusterManagerInternal12StyleCParser9parseZoneERSt10shared_ptrI15MWAWInputStreamEliiRN7libmwaw11DebugStreamE
_ZN30RagTime5ClusterManagerInternal12StyleCParser9parseZoneERSt10shared_ptrI15MWAWInputStreamEliiRN7libmwaw11DebugStreamE.cold
_ZN30RagTime5ClusterManagerInternal12StyleCParserD0Ev
_ZN30RagTime5ClusterManagerInternal12StyleCParserD1Ev
_ZN30RagTime5ClusterManagerInternal12StyleCParserD2Ev
_ZN30RagTime5ClusterManagerInternal13ColPatCParser10getClusterEv
_ZN30RagTime5ClusterManagerInternal13ColPatCParser10parseFieldERKN21RagTime5StructManager5FieldEiRN7libmwaw11DebugStreamE
_ZN30RagTime5ClusterManagerInternal13ColPatCParser9parseZoneERSt10shared_ptrI15MWAWInputStreamEliiRN7libmwaw11DebugStreamE
_ZN30RagTime5ClusterManagerInternal13ColPatCParser9parseZoneERSt10shared_ptrI15MWAWInputStreamEliiRN7libmwaw11DebugStreamE.cold
_ZN30RagTime5ClusterManagerInternal13ColPatCParserD0Ev
_ZN30RagTime5ClusterManagerInternal13ColPatCParserD1Ev
_ZN30RagTime5ClusterManagerInternal13ColPatCParserD2Ev
_ZN30RagTime5ClusterManagerInternal14UnknownCParser10getClusterEv
_ZN30RagTime5ClusterManagerInternal14UnknownCParserD0Ev
_ZN30RagTime5ClusterManagerInternal14UnknownCParserD1Ev
_ZN30RagTime5ClusterManagerInternal14UnknownCParserD2Ev
_ZN30RagTime5ClusterManagerInternal16RootChildCParser10getClusterEv
_ZN30RagTime5ClusterManagerInternal16RootChildCParser10parseFieldERKN21RagTime5StructManager5FieldEiRN7libmwaw11DebugStreamE
_ZN30RagTime5ClusterManagerInternal16RootChildCParser7endZoneEv
_ZN30RagTime5ClusterManagerInternal16RootChildCParser9parseZoneERSt10shared_ptrI15MWAWInputStreamEliiRN7libmwaw11DebugStreamE
_ZN30RagTime5ClusterManagerInternal16RootChildCParser9parseZoneERSt10shared_ptrI15MWAWInputStreamEliiRN7libmwaw11DebugStreamE.cold
_ZN30RagTime5ClusterManagerInternal16RootChildCParserC1ER22RagTime5ClusterManageri
_ZN30RagTime5ClusterManagerInternal16RootChildCParserC2ER22RagTime5ClusterManageri.lto_priv.0
_ZN30RagTime5ClusterManagerInternal16RootChildCParserC2ER22RagTime5ClusterManageri.lto_priv.0.cold
_ZN30RagTime5ClusterManagerInternal16RootChildCParserD0Ev
_ZN30RagTime5ClusterManagerInternal16RootChildCParserD1Ev
_ZN30RagTime5ClusterManagerInternal16RootChildCParserD2Ev
_ZN31MWAWSpreadsheetListenerInternal13DocumentStateD1Ev
_ZN31MWAWSpreadsheetListenerInternal13DocumentStateD2Ev.lto_priv.0
_ZN31MWAWSpreadsheetListenerInternal5StateC1Ev
_ZN31MWAWSpreadsheetListenerInternal5StateC2Ev
_ZN31MWAWSpreadsheetListenerInternal5StateC2Ev.cold
_ZN31MWAWSpreadsheetListenerInternal5StateD1Ev
_ZN31MWAWSpreadsheetListenerInternal5StateD2Ev.lto_priv.0
_ZN32MWAWPresentationListenerInternal12GraphicStateD1Ev
_ZN32MWAWPresentationListenerInternal12GraphicStateD2Ev.lto_priv.0
_ZN32MWAWPresentationListenerInternal5StateC1Ev
_ZN32MWAWPresentationListenerInternal5StateC2Ev
_ZN32MWAWPresentationListenerInternal5StateC2Ev.cold
_ZN32MWAWPresentationListenerInternal5StateD1Ev
_ZN32MWAWPresentationListenerInternal5StateD2Ev.lto_priv.0
_ZN32MacWrtProStructuresListenerState11sendSectionEi
_ZN32MacWrtProStructuresListenerState11sendSectionEi.cold
_ZN32MacWrtProStructuresListenerState7newPageEb.isra.0
_ZN32MacWrtProStructuresListenerState7newPageEb.isra.0.cold
_ZN32MacWrtProStructuresListenerStateC1ERKSt10shared_ptrI19MacWrtProStructuresEbi
_ZN32MacWrtProStructuresListenerStateC2ERKSt10shared_ptrI19MacWrtProStructuresEbi
_ZN32MacWrtProStructuresListenerStateC2ERKSt10shared_ptrI19MacWrtProStructuresEbi.cold
_ZN3Atk10NoOpObject13get_base_typeEv
_ZN3Atk10NoOpObject8get_typeEv
_ZN3Atk10NoOpObject9gobj_copyEv
_ZN3Atk10NoOpObjectC1EOS0_
_ZN3Atk10NoOpObjectC1EP14_AtkNoOpObject
