_RINvCs156ziVgmoVN_3log16set_logger_innerNCNvB2_10set_logger0EB2_
_RINvCs3BVb74IIvUm_8smallvec10infallibleuECs9okOORQVQBp_11parking_lot
_RINvCs4Ra6QXC7Q85_10widestring12decode_utf32INtNtNtNtCsiL7B6CFZHyD_4core4iter8adapters6copied6CopiedINtNtNtBP_5slice4iter4ItermEEEB2_
_RINvCs5KhTJ13vvrI_3log16set_logger_innerNCNvB2_10set_logger0EB2_
_RINvCs5LQ9Q6pHthj_13data_encoding10encode_padNtB2_2N5NtB2_2BfNtB2_2OnEB2_
_RINvCs5LQ9Q6pHthj_13data_encoding12encode_blockNtB2_2N4NtB2_2BtEB2_
_RINvCs5LQ9Q6pHthj_13data_encoding14encode_pad_lenNtB2_2N5NtB2_2OnEB2_
_RINvCs5LQ9Q6pHthj_13data_encoding15decode_wrap_mutNtB2_2N3NtB2_2BfBU_NtB2_2BtEB2_
_RINvCs5LQ9Q6pHthj_13data_encoding15encode_wrap_lenNtB2_2N4INtB2_2OshENtB2_2OnEB2_
_RINvCs5LQ9Q6pHthj_13data_encoding15encode_wrap_mutNtB2_2N5NtB2_2BtNtB2_2OnINtB2_2OsTjRShEEEB2_
_RINvCs5LQ9Q6pHthj_13data_encoding9vectorizeNCINvB2_10encode_mutNtB2_2N6NtB2_2BtE0EB2_
_RINvCs7ZMi3tqp9G3_8indenter8indentedINtNtCs9FARr6NRyzd_10color_eyre7writers17ReadyHeaderWritereQNtNtCsiL7B6CFZHyD_4core3fmt9FormatterEEBD_
_RINvCs9Zm4YucmSZV_13data_encoding10encode_padNtB2_2N3NtB2_2BtINtB2_2OshEEB2_
_RINvCs9Zm4YucmSZV_13data_encoding12encode_blockNtB2_2N1NtB2_2BfEB2_
_RINvCs9Zm4YucmSZV_13data_encoding14encode_pad_lenNtB2_2N2INtB2_2OshEEB2_
_RINvCs9Zm4YucmSZV_13data_encoding15decode_wrap_mutNtB2_2N2NtB2_2BfBU_NtB2_2BtEB2_
_RINvCs9Zm4YucmSZV_13data_encoding15encode_wrap_lenNtB2_2N2INtB2_2OshENtB2_2OnEB2_
_RINvCs9Zm4YucmSZV_13data_encoding15encode_wrap_mutNtB2_2N4NtB2_2BtNtB2_2OnINtB2_2OsTjRShEEEB2_
_RINvCs9Zm4YucmSZV_13data_encoding9vectorizeNCINvB2_10encode_mutNtB2_2N2NtB2_2BfE0EB2_
_RINvCs9aJIYchcVbh_13data_encoding10encode_padNtB2_2N3NtB2_2BtINtB2_2OshEEB2_
_RINvCs9aJIYchcVbh_13data_encoding12encode_blockNtB2_2N1NtB2_2BfEB2_
_RINvCs9aJIYchcVbh_13data_encoding14encode_pad_lenNtB2_2N2INtB2_2OshEEB2_
_RINvCs9aJIYchcVbh_13data_encoding15decode_wrap_mutNtB2_2N2NtB2_2BfBU_NtB2_2BtEB2_
_RINvCs9aJIYchcVbh_13data_encoding15encode_wrap_lenNtB2_2N2INtB2_2OshENtB2_2OnEB2_
_RINvCs9aJIYchcVbh_13data_encoding15encode_wrap_mutNtB2_2N4NtB2_2BtNtB2_2OnINtB2_2OsTjRShEEEB2_
_RINvCs9aJIYchcVbh_13data_encoding9vectorizeNCINvB2_10encode_mutNtB2_2N2NtB2_2BfE0EB2_
_RINvCsc4gMlinqfBn_3log5ok_orNtB2_5LevelNtB2_15ParseLevelErrorEB2_
_RINvCscCWi16CzCXC_13data_encoding10encode_padNtB2_2N5NtB2_2BtNtB2_2OnEB2_
_RINvCscCWi16CzCXC_13data_encoding12encode_blockNtB2_2N5NtB2_2BtEB2_
_RINvCscCWi16CzCXC_13data_encoding14encode_pad_lenNtB2_2N6NtB2_2OnEB2_
_RINvCscCWi16CzCXC_13data_encoding15decode_wrap_mutNtB2_2N3NtB2_2BfNtB2_2BtBU_EB2_
_RINvCscCWi16CzCXC_13data_encoding15encode_wrap_lenNtB2_2N4NtB2_2OnINtB2_2OsTjRShEEEB2_
_RINvCscCWi16CzCXC_13data_encoding15encode_wrap_mutNtB2_2N6NtB2_2BfINtB2_2OshENtB2_2OnEB2_
_RINvCscpgdAsQ0t7q_12synstructure18get_or_insert_withNtNtCs4EMmDgM0Qf0_3syn8generics11WhereClauseNCNvMs2_B2_NtB2_9Structure16add_trait_bounds0EB2_
_RINvCsfSQqsC9MRoJ_12num_rational26approximate_float_unsignedtdEB2_
_RINvCsh9BO6w0kI1u_12num_rational26approximate_float_unsignedtfEB2_
_RINvCsi6pTmhHIU5M_9clang_sys12with_libraryFUKCNtB2_6CXTypeElNCNvB2_20clang_getNumArgTypes0EB2_
_RINvCsi6pTmhHIU5M_9clang_sys12with_libraryFUKCNtB2_8CXCursorENtB2_8CXStringNCNvB2_38clang_Cursor_getObjCPropertySetterName0EB2_
_RINvCsi6pTmhHIU5M_9clang_sys12with_libraryFUKCNtB2_8CXCursorEmNCNvB2_38clang_CXXConstructor_isCopyConstructor0EB2_
_RINvCsi6pTmhHIU5M_9clang_sys12with_libraryFUKCNtB2_9CXCommentEmNCNvB2_43clang_ParamCommandComment_isParamIndexValid0EB2_
_RINvCsi6pTmhHIU5M_9clang_sys12with_libraryFUKCONtNtCsiL7B6CFZHyD_4core3ffi6c_voidENtB2_8CXStringNCNvB2_26clang_TargetInfo_getTriple0EB2_
_RINvCsi6pTmhHIU5M_9clang_sys12with_libraryFUKCONtNtCsiL7B6CFZHyD_4core3ffi6c_voidFKCBI_ONtB2_16CXSourceLocationmBI_EuBI_EuNCNvB2_19clang_getInclusions0EB2_
_RINvCsi6pTmhHIU5M_9clang_sys12with_libraryFUKCPNtB2_13CXIdxDeclInfoEPNtB2_28CXIdxObjCProtocolRefListInfoNCNvB2_38clang_index_getObjCProtocolRefListInfo0EB2_
_RINvCsi6pTmhHIU5M_9clang_sys12with_librarybNCNvNtB2_17clang_isStatement9is_loaded0EB2_
_RINvCsi6pTmhHIU5M_9clang_sys12with_librarybNCNvNtB2_21clang_getNullLocation9is_loaded0EB2_
_RINvCsi6pTmhHIU5M_9clang_sys12with_librarybNCNvNtB2_24clang_findIncludesInFile9is_loaded0EB2_
_RINvCsi6pTmhHIU5M_9clang_sys12with_librarybNCNvNtB2_27clang_CXXMethod_isDefaulted9is_loaded0EB2_
_RINvCsi6pTmhHIU5M_9clang_sys12with_librarybNCNvNtB2_29clang_CompileCommands_getSize9is_loaded0EB2_
_RINvCsi6pTmhHIU5M_9clang_sys12with_librarybNCNvNtB2_31clang_getDiagnosticCategoryName9is_loaded0EB2_
_RINvCsi6pTmhHIU5M_9clang_sys12with_librarybNCNvNtB2_36clang_BlockCommandComment_getNumArgs9is_loaded0EB2_
_RINvCsiFC8qzxTaou_3log16set_logger_innerNCNvB2_10set_logger0EB2_
_RINvCskN1Yzg5nTsb_11procfs_core9from_iterQINtNtNtCsiL7B6CFZHyD_4core3str4iter5SplitcENtNtCs3NZLoJsOov_3std4path7PathBufEB2_
_RINvCskuDRryey3wk_13async_channel7boundeduECsdFqYMsaiBHL_21async_global_executor
_RINvMCslmJ0Mh1KeWG_10pkg_configNtB3_14WrappedCommand4argsRINtNtCsaz9ix1H7t6h_5alloc3vec3VecNtNtNtCs2FIVCi1Wrow_3std3ffi6os_str8OsStringERB1r_EB3_
_RINvMNtCs1cxMKpSN2o4_3syn5errorNtB3_5Error3newReEB5_
_RINvMNtCs1cxMKpSN2o4_3syn9lookaheadNtB3_10Lookahead14peekINvNtNvMNtCs19S8JT9Sa42_12prettyplease4exprNtNtB13_9algorithm7Printer13expr_verbatim2kw7builtinNtB3_11TokenMarkerEEB13_
_RINvMNtCs25ZhrkksEen_5bytes5bytesNtB3_5Bytes5sliceINtNtNtCsiL7B6CFZHyD_4core3ops5range5RangejEEB5_
_RINvMNtCs2e5lBM6agA0_3mio9io_sourceINtB3_8IoSourceNtNtNtCs3NZLoJsOov_3std3net3udp9UdpSocketE5do_ioNCNvMNtNtB5_3net3udpNtB1D_9UdpSocket4peek0jEB5_
_RINvMNtCs2xTbhAl9gLb_3mio9io_sourceINtB3_8IoSourceNtNtNtNtNtCs3NZLoJsOov_3std2os4unix3net6stream10UnixStreamE5do_ioNCNvXs1_NtNtNtB5_3net3uds6streamNtB1X_10UnixStreamNtNtBW_2io5Write5flush0uEB5_
_RINvMNtCs3NZLoJsOov_3std2fsNtB3_4File4openRNtNtB5_4path7PathBufECsgwZHJb2rARN_5vcpkg
_RINvMNtCs3NZLoJsOov_3std6threadNtB3_7Builder16spawn_unchecked_NCNvMNtNtCs7v7Yapv3qqg_13futures_timer6native6globalNtB13_12HelperThread3new0uEB17_
_RINvMNtCs4EMmDgM0Qf0_3syn5errorNtB3_5Error11new_spannedRNtNtB5_8generics12GenericParamNtNtCsaz9ix1H7t6h_5alloc6string6StringECscpgdAsQ0t7q_12synstructure
_RINvMNtCs4pkFUPYosxs_9getrandom4utilNtB3_9LazyUsize11unsync_initNCINvMs_B3_NtB3_8LazyBool11unsync_initNvNtB5_3imp22is_getrandom_availableE0EB5_
_RINvMNtCs5MsBAlmYmSD_4time7parsingINtB3_10ParsedItemRShE8flat_mapNtNtNtCsiL7B6CFZHyD_4core3num7nonzero10NonZeroU16NCINvNtB3_10combinator13n_to_m_digitsKh1_Kh3_B11_E0EB5_
_RINvMNtCs5MsBAlmYmSD_4time7parsingINtB3_10ParsedItemhE3mapaNCNCNvXsb_NtB3_8parsableNtNtNtNtB5_18format_description10well_known7rfc28227Rfc2822NtNtB15_6sealed6Sealed22parse_offset_date_times1_00EB5_
_RINvMNtCs5cYH0lLSdLc_4core3cmpNtB3_8Ordering9then_withNCNvXs6_NtCsbiIvfmRIG6V_6semver5implsNtB10_13BuildMetadataNtB3_3Ord3cmps_0EB10_
_RINvMNtCs5cYH0lLSdLc_4core3stre12strip_prefixReECs4EMmDgM0Qf0_3syn
_RINvMNtCs5cYH0lLSdLc_4core3stre16trim_end_matchescECslonMRKGuc9M_13toml_datetime
_RINvMNtCs5cYH0lLSdLc_4core3stre5parseNtCs7aW8kzOiBaN_6semver7VersionECsgyZjmySQ4Ff_13rustc_version
_RINvMNtCs5cYH0lLSdLc_4core3stre5parsejECsA3zysNafLn_8num_cpus
_RINvMNtCs5cYH0lLSdLc_4core3stre5rfindcECs5Qv6yQAsokC_4http
_RINvMNtCs5cYH0lLSdLc_4core3stre6splitnReECsgyZjmySQ4Ff_13rustc_version
_RINvMNtCs5cYH0lLSdLc_4core4boolb9then_somehECs962jCWsojrm_13toml_datetime
_RINvMNtCs5cYH0lLSdLc_4core5sliceSINtNtNtB5_3mem12maybe_uninit11MaybeUninitNtCs5OyMyoNtLX0_8httparse6HeaderE17get_unchecked_mutINtNtNtB5_3ops5range7RangeTojEEB1c_
_RINvMNtCs5cYH0lLSdLc_4core5sliceSNtNtCs5tx0e2t1Md0_9toml_edit4item4Item7get_mutjEBz_
_RINvMNtCs5cYH0lLSdLc_4core5sliceSTAhj3_Bw_E16binary_search_byNCNvNtCs5hFHXnc0CYL_13unicode_width6tables25is_transparent_zero_width0EB13_
_RINvMNtCs5cYH0lLSdLc_4core5sliceSTccNtNtNtCs22NHNAcVwz0_20unicode_segmentation6tables8sentence11SentenceCatE16binary_search_byNCNvBA_25bsearch_range_value_table0EBE_
_RINvMNtCs5cYH0lLSdLc_4core5sliceSd3getjECs3paU50YnTHN_10serde_json
_RINvMNtCs5cYH0lLSdLc_4core5sliceSh3getjECs4cqC1E85Vx8_6winnow
_RINvMNtCs5cYH0lLSdLc_4core6optionINtB3_6OptionFG_ttRL0_ShETttEE7or_elseNvNtNtCsiGj4lIpfRrO_12simd_adler323imp4avx27get_impEB1d_
_RINvMNtCs5cYH0lLSdLc_4core6optionINtB3_6OptionINtNtCsaz9ix1H7t6h_5alloc3vec3VecNtNtBN_6string6StringEE18get_or_insert_withNvMBL_BI_3newECs7NbdE0zyweH_4toml
_RINvMNtCs5cYH0lLSdLc_4core6optionINtB3_6OptionINtNtCshD5YnGfk4Ix_12tracing_core10dispatcher4KindINtNtCsaz9ix1H7t6h_5alloc4sync3ArcDNtNtBN_10subscriber10SubscriberNtNtB5_6marker4SendNtB2C_4SyncEL_EEE3mapNtBL_8DispatchNCNvMs6_BL_NtBL_12WeakDispatch7upgrade0EBN_
_RINvMNtCs5cYH0lLSdLc_4core6optionINtB3_6OptionINtNtNtB5_3ptr8non_null7NonNullhEE5ok_oruECseN3EgHAt5QS_8petgraph
_RINvMNtCs5cYH0lLSdLc_4core6optionINtB3_6OptionINtNtNtCs57lu83pa5Ym_4jiff4util8rangeint4ri16Knn270f_Kn270f_EE10ok_or_elseNtNtBP_5error5ErrorNCINvMs2b_BL_BI_15try_checked_subINtBL_4ri64Knn8000000000000000_Kn7fffffffffffffff_EE0EBP_
_RINvMNtCs5cYH0lLSdLc_4core6optionINtB3_6OptionINtNtNtCsdPhejGtpz0t_4http3uri4port4PortReEE3maptNCNvMBN_NtBN_3Uri8port_u160EBP_
_RINvMNtCs5cYH0lLSdLc_4core6optionINtB3_6OptionNtNtCs2FIVCi1Wrow_3std6thread8ThreadIdE6map_oryNCNvMsd_NtNtBM_4sync14reentrant_lockNtB1B_3Tid3set0ECskmFptwX7bJS_2cc
_RINvMNtCs5cYH0lLSdLc_4core6optionINtB3_6OptionNtNtCs57lu83pa5Ym_4jiff4span4UnitE14unwrap_or_elseNCNvMss_NtNtBM_5civil8datetimeNtB1E_18DateTimeDifference23until_with_largest_unit0EBM_
_RINvMNtCs5cYH0lLSdLc_4core6optionINtB3_6OptionNtNtCsaz9ix1H7t6h_5alloc6string6StringE11map_or_elseNtNtCs2FIVCi1Wrow_3std6thread6ThreadNvMs2_B1A_B1y_11new_unnamedNvB2a_3newECsbLwEFGmkA9L_10rayon_core
_RINvMNtCs5cYH0lLSdLc_4core6optionINtB3_6OptionNtNtCskLaOWpELs51_11toml_parser6source4SpanE3mapINtNtNtB5_3ops5range5RangejENCNvMNtNtCs7NbdE0zyweH_4toml2de5errorNtB21_5Error3new0EB25_
_RINvMNtCs5cYH0lLSdLc_4core6optionINtB3_6OptionNtNtNtCs2FIVCi1Wrow_3std3ffi6os_str8OsStringE3mapNtNtBO_4path7PathBufNvYB1v_INtNtB5_7convert4FromBI_E4fromECscm8e4zVisyc_7autocfg
_RINvMNtCs5cYH0lLSdLc_4core6optionINtB3_6OptionNtNtNtCs57lu83pa5Ym_4jiff5civil7weekday7WeekdayE10ok_or_elseNtNtBO_5error5ErrorNCNvMNtNtNtBO_3fmt7strtime6formatINtB24_9FormatterINtB28_11StdFmtWriteQNtNtB5_3fmt9FormatterEE18fmt_weekday_abbrevs_0EBO_
_RINvMNtCs5cYH0lLSdLc_4core6optionINtB3_6OptionNtNtNtCs6nv0K25L1YS_14regex_automata4util6search9HalfMatchE3mapNtNtBM_10primitives9PatternIDNCNvMs2_NtNtNtBO_3nfa8thompson9backtrackNtB2k_18BoundedBacktracker16try_search_slotss0_0EBO_
_RINvMNtCs5cYH0lLSdLc_4core6optionINtB3_6OptionNtNtNtNtCs6nv0K25L1YS_14regex_automata3nfa8thompson6pikevm5CacheE18get_or_insert_withNCNvMs0_NtNtBQ_4meta8wrappersNtB2d_11PikeVMCache3get0EBQ_
_RINvMNtCs5cYH0lLSdLc_4core6optionINtB3_6OptionQNtNtCsdPhejGtpz0t_4http7request5PartsE3mapQNtNtBN_10extensions10ExtensionsNCNvMs4_BL_NtBL_7Builder14extensions_mut0EBN_
_RINvMNtCs5cYH0lLSdLc_4core6optionINtB3_6OptionRINtNtCsaz9ix1H7t6h_5alloc5boxed3BoxDINtNtNtB5_3ops8function2FnTIBK_DNtNtB5_3any3AnyNtNtB5_6marker4SendEL_EEEp6OutputuB24_NtB26_4SyncEL_EE3mapNtNvXs7_CsbLwEFGmkA9L_10rayon_coreINtB38_17ThreadPoolBuilderpENtNtB5_3fmt5Debug3fmt18ClosurePlaceholderNCNvXs7_B38_B3z_B40_3fmts_0EB38_
_RINvMNtCs5cYH0lLSdLc_4core6optionINtB3_6OptionRINtNtNtCsbgyCs3cvOro_7zerovec7zerovec5slice9ZeroSlicecEE8and_thenTcBI_ENCNvMs1_Csli4EU09fds1_14icu_normalizerINtB20_13DecompositionNtNtNtB5_3str4iter5CharsE20push_decomposition320EB20_
_RINvMNtCs5cYH0lLSdLc_4core6optionINtB3_6OptionRNtNtCs2X71yuh7ehP_12regex_syntax3ast5FlagsE3mapNtNtNtBN_3hir9translate5FlagsNCNvXs2_B1w_NtB1w_11TranslatorINtNtBL_7visitor7Visitor9visit_pre0EBN_
_RINvMNtCs5cYH0lLSdLc_4core6optionINtB3_6OptionRNtNtCs5tx0e2t1Md0_9toml_edit4repr4ReprE8and_thenINtNtNtB5_3ops5range5RangejENCNvMBL_INtBL_9FormattedbE4span0EBN_
_RINvMNtCs5cYH0lLSdLc_4core6optionINtB3_6OptionRNtNtCsaz9ix1H7t6h_5alloc6string6StringE3mapReNCNCNvXs8_NtCs4O6ck48ZfFc_5regex10re_unicodeNtB1C_12CaptureNamesNtNtNtNtB5_4iter6traits8iterator8Iterator4next00EB1E_
_RINvMNtCs5cYH0lLSdLc_4core6optionINtB3_6OptionRNtNtNtCs2FIVCi1Wrow_3std3ffi6os_str8OsStringE8and_thenRReNCNvMs4_CskmFptwX7bJS_2ccNtB1M_5Build23find_working_gnu_prefix0EB1M_
_RINvMNtCs5cYH0lLSdLc_4core6optionINtB3_6OptionRNtNtNtCseytyDyWBuek_19icu_locid_transform8provider8expander23LikelySubtagsExtendedV1E8and_thenTNtNtNtCsaCO2qWNJEWF_9icu_locid7subtags8language8LanguageNtNtB2k_6region6RegionENCNCNvMNtBP_8expanderNtB3E_22LocaleExpanderBorrowed5get_s00EBP_
_RINvMNtCs5cYH0lLSdLc_4core6optionINtB3_6OptionRReE3mapRDNtNtCs3jNsHQA6hKW_12tracing_core5field5ValueEL_NCNCNvCs1oQKbJZNed1_11tracing_log15dispatch_record00EB1J_
_RINvMNtCs5cYH0lLSdLc_4core6optionINtB3_6OptionRTNtNtCs4EMmDgM0Qf0_3syn4data7VariantNtNtBO_5token5CommaEE3mapRBK_NCNvXsw_NtBO_10punctuatedINtB1U_11PrivateIterBK_B1j_ENtNtNtNtB5_4iter6traits8iterator8Iterator4next0ECscpgdAsQ0t7q_12synstructure
_RINvMNtCs5cYH0lLSdLc_4core6optionINtB3_6OptionReE11map_or_elseNtNtCsaz9ix1H7t6h_5alloc6string6StringNCNvNtB12_3fmt6format0NvYeNtNtB12_6borrow7ToOwned8to_ownedECs9nCsezDqTf4_12regex_syntax
_RINvMNtCs5cYH0lLSdLc_4core6optionINtB3_6OptionReE6map_orIBw_bEINvNvMNtCskmFptwX7bJS_2cc5flagsNtB14_17RustcCodegenFlags14set_rustc_flag11arg_to_boolBI_EEB16_
_RINvMNtCs5cYH0lLSdLc_4core6optionINtB3_6OptionRjE8and_thenNtNtCs4O6ck48ZfFc_5regex10re_unicode5MatchNCNvMsg_BW_NtBW_8Captures4name0EBY_
_RINvMNtCs5cYH0lLSdLc_4core6optionINtB3_6OptionTReBJ_EE5ok_orNtCskmFptwX7bJS_2cc5ErrorEBY_
_RINvMNtCs5cYH0lLSdLc_4core6optionINtB3_6OptionTjjEE3mapNtNtCs4O6ck48ZfFc_5regex10re_unicode5MatchNCNvMs6_BT_NtBT_5Regex7find_at0EBV_
_RINvMNtCs5cYH0lLSdLc_4core6optionINtB3_6OptioncE6map_orjNCNvMs7_NtCs4O6ck48ZfFc_5regex5inputNtB10_4Char8len_utf80EB12_
_RINvMNtCs5cYH0lLSdLc_4core6optionINtB3_6OptionjE10ok_or_elseNtNtNtCsdPhejGtpz0t_4http6header3map14MaxSizeReachedNvMs13_BY_BW_3newECs3fINW8eOU7_5hyper
_RINvMNtCs5cYH0lLSdLc_4core6optionINtB3_6OptionjE3mapThhENCNvNtCshMd4aZtZkY7_11encoding_rs4data37jis0208_level1_kanji_shift_jis_encode0EBY_
_RINvMNtCs5cYH0lLSdLc_4core6optionINtB3_6OptionjE3mapjNCNvXsg_NtNtCsdTuBsJ9FlQ2_12aho_corasick4util9prefilterNtBX_15StartBytesThreeNtBX_10PrefilterI7find_in0EB11_
_RINvMNtCs5cYH0lLSdLc_4core6optionINtB3_6OptionjE6map_orjNCNvNtNtCsb5MyUsmU2ju_10num_bigint7biguint14multiplication8sub_signs_0EB10_
_RINvMNtCs5cYH0lLSdLc_4core6optionINtB3_6OptionmE10ok_or_elseNtNtCs9XN0b3DABn9_12regex_syntax3ast5ErrorNCNvMs2_NtBY_5parseINtB1K_7ParserIQNtB1K_6ParserE18next_capture_index0EB10_
_RINvMNtCs5cYH0lLSdLc_4core6optionINtB3_6OptionxE8and_thenxNCNvMNtNtNtCs57lu83pa5Ym_4jiff3fmt8friendly6parserNtBZ_10SpanParser16parse_unit_value0EB15_
_RINvMNtCs5cYH0lLSdLc_4core6resultINtB3_6ResultINtNtCs57lu83pa5Ym_4jiff3fmt6ParsedINtNtB5_6option6OptionINtNtNtBN_4util8rangeint4ri32Kn0_Kn3b9ac9ff_EEENtNtBN_5error5ErrorE7map_errB2o_NCINvXsm_B2q_Bv_NtB2q_12ErrorContext12with_contextB2o_NCNvMs5_NtNtBL_8temporal6parserNtB3U_14DateTimeParser15parse_time_specs1_0E0EBN_
_RINvMNtCs5cYH0lLSdLc_4core6resultINtB3_6ResultINtNtCsjRWpUytRaxp_6chrono8datetime8DateTimeNtNtNtBN_6offset5fixed11FixedOffsetENtNtBN_6format10ParseErrorE3mapIBJ_NtNtB1u_3utc3UtcENCNvXsB_BL_B2v_NtNtNtB5_3str6traits7FromStr8from_str0EBN_
_RINvMNtCs5cYH0lLSdLc_4core6resultINtB3_6ResultNtCseR94E7DXsTD_10proc_macro11TokenStreamNtBK_8LexErrorE7map_errNtNtCshS2dRy2YWOW_11proc_macro23imp8LexErrorNcNtB1K_8Compiler0EB1O_
_RINvMNtCs5cYH0lLSdLc_4core6resultINtB3_6ResultNtNtCs4EMmDgM0Qf0_3syn4expr5IndexNtNtBM_5error5ErrorE7map_errB1f_NCNvNtBK_7parsing11multi_index0EBM_
_RINvMNtCs5cYH0lLSdLc_4core6resultINtB3_6ResultNtNtCs57lu83pa5Ym_4jiff4span4SpanNtNtBM_5error5ErrorE7map_errB1f_NCINvXsm_B1h_Bv_NtB1h_12ErrorContext12with_contextB1f_NCNvMs1h_BK_NtBK_5Nudge6bubbles_0E0EBM_
_RINvMNtCs5cYH0lLSdLc_4core6resultINtB3_6ResultNtNtCs69trJGxV1wW_7syscall8schemev210NewFdFlagsNtNtCsOFqGmZRkrE_8bitflags6parser10ParseErrorE3mapNtNvBK_s_1__16InternalBitFlagsNCNvXsa_B2j_B2h_NtNtNtB5_3str6traits7FromStr8from_str0EBM_
_RINvMNtCs5cYH0lLSdLc_4core6resultINtB3_6ResultNtNtCsdPhejGtpz0t_4http8response5PartsNtNtBM_5error5ErrorE8and_thenBI_NCNvMs4_BK_NtBK_7Builder7version0EBM_
_RINvMNtCs5cYH0lLSdLc_4core6resultINtB3_6ResultNtNtNtCs57lu83pa5Ym_4jiff2tz6offset6OffsetNtNtBO_5error5ErrorE7map_errB1o_NCINvXsm_B1q_Bv_NtB1q_12ErrorContext12with_contextB1o_NCNvMs4_NtNtNtBO_3fmt8temporal6parserNtB2U_14ParsedTimeZone14into_time_zones_0E0EBO_
_RINvMNtCs5cYH0lLSdLc_4core6resultINtB3_6ResultNtNtNtCs6nv0K25L1YS_14regex_automata4util10primitives10SmallIndexNtBK_15SmallIndexErrorE7map_errNtNtBM_8captures14GroupInfoErrorNCINvMs6_B2i_NtB2i_14GroupInfoInner18add_explicit_groupRINtNtCsaz9ix1H7t6h_5alloc4sync3ArceEE0EBO_
_RINvMNtCs5cYH0lLSdLc_4core6resultINtB3_6ResultNtNtNtCsdTuBsJ9FlQ2_12aho_corasick4util10primitives7StateIDNtBK_12StateIDErrorE7map_errNtNtBM_5error10BuildErrorNCNvMs_NtNtBO_3nfa13noncontiguousNtB2D_3NFA11alloc_match0EBO_
_RINvMNtCs5cYH0lLSdLc_4core6resultINtB3_6ResultPNtNtCslAsTBdF7oRw_16parking_lot_core11parking_lot10ThreadDataNtNtNtCs2FIVCi1Wrow_3std6thread5local11AccessErrorE14unwrap_or_elseNCINvBL_16with_thread_dataNtBL_10ParkResultNCINvBL_4parkNCNvMs_NtCs9okOORQVQBp_11parking_lot4onceNtB3O_4Once14call_once_slow0NCB3J_s_0NCB3J_s0_0E0Es_0EB3Q_
_RINvMNtCs5cYH0lLSdLc_4core6resultINtB3_6ResultTlNtNtCs9oW1mCSfvtA_7socket28sockaddr8SockAddrENtNtNtCs2FIVCi1Wrow_3std2io5error5ErrorE3mapTNtNtBO_6socket6SocketBK_ENCNvMB2e_B2c_10accept_raw0EBO_
_RINvMNtCs5cYH0lLSdLc_4core6resultINtB3_6ResulthNtNtNtB5_3num5error13ParseIntErrorE7map_errNtNtCs4XELHzqRgoO_8bitflags6parser10ParseErrorNCNvXs4_NtB1u_6traitshNtB1s_8ParseHex9parse_hex0EB1u_
_RINvMNtCs5cYH0lLSdLc_4core6resultINtB3_6ResultjNtCs8v0VABUG8rU_14rustc_demangle18SizeLimitExhaustedE3mapuNCNvXs1_BL_NtBL_8DemangleNtNtB5_3fmt7Display3fmt0EBL_
_RINvMNtCs5cYH0lLSdLc_4core6resultINtB3_6ResultjNtNtNtNtCs57lu83pa5Ym_4jiff6shared4util5error5ErrorE7map_errBJ_NCNvMs0_NtBP_4tzifNtB1S_6Header5parses2_0EBR_
_RINvMNtCs5cYH0lLSdLc_4core6resultINtB3_6ResultlNtNtNtB5_3num5error15TryFromIntErrorE14unwrap_or_elseNCNvXs59_NtNtCs57lu83pa5Ym_4jiff4util8rangeintINtB1J_4ri32Knna72fb60_Kna72fb60_EINtB1J_8TryRFromINtB1J_5ri128Knn80000000000000000000000000000000_Kn7fffffffffffffffffffffffffffffff_EE9try_rfroms0_0EB1N_
_RINvMNtCs5cYH0lLSdLc_4core6resultINtB3_6ResultlNtNtNtCs2FIVCi1Wrow_3std2io5error5ErrorE3mapbNCNvMs0_NtCskW2IniEFxkb_7socket26socketNtB1A_6Socket14ip_transparent0EB1C_
_RINvMNtCs5cYH0lLSdLc_4core6resultINtB3_6ResultlNtNtNtCs2FIVCi1Wrow_3std2io5error5ErrorE3mapmNCNvMs1_NtCskW2IniEFxkb_7socket26socketNtB1A_6Socket15multicast_if_v60EB1C_
_RINvMNtCs5cYH0lLSdLc_4core6resultINtB3_6ResultlNtNtNtNtCs57lu83pa5Ym_4jiff6shared4util5error5ErrorE7map_errBJ_NCNvMsd_NtBP_5posixNtB1S_6Parser30parse_posix_julian_day_no_leap0EBR_
_RINvMNtCs5cYH0lLSdLc_4core6resultINtB3_6ResultuNtCsiFC8qzxTaou_3log14SetLoggerErrorE7map_errNtNtCslN86gTjml9v_18tracing_subscriber4util12TryInitErrorINvMs_B1u_B1s_3newBJ_EEB1w_
_RINvMNtCs5cYH0lLSdLc_4core6resultINtB3_6ResultuNtNtCs9XN0b3DABn9_12regex_syntax7unicode13CaseFoldErrorE7map_errNtNtBN_3hir5ErrorNCNvXs2_NtB1N_9translateNtB2a_11TranslatorINtNtNtBN_3ast7visitor7Visitor30visit_class_set_binary_op_post0EBN_
_RINvMNtCs5cYH0lLSdLc_4core6resultINtB3_6ResultuNtNtNtCs7NbdE0zyweH_4toml2de5error5ErrorE3mapINtNtB5_6option6OptionuENcNtB1s_4Some0EBP_
_RINvMNtCs5cYH0lLSdLc_4core6resultINtB3_6ResultyNtNtNtB5_3num5error13ParseIntErrorE7map_errNtNtCsENb7Y4CisD_8bitflags6parser10ParseErrorNCNvXss_NtB1u_6traitsyNtB1s_8ParseHex9parse_hex0EB1u_
_RINvMNtCs7AKWECV11r_5hyper5errorNtB3_5Error11find_sourceNtB3_8TimedOutEB5_
_RINvMNtCs8tYJmzWdmkM_3mio9io_sourceINtB3_8IoSourceNtNtNtNtNtCs3NZLoJsOov_3std2os4unix3net6stream10UnixStreamE5do_ioNCNvXs0_NtNtNtB5_3net3uds6streamRNtB1X_10UnixStreamNtNtBW_2io4Read4read0jEB5_
_RINvMNtCs9CeMAa3GKYH_12erased_serde3anyNtB3_3Any4viewNtCs4TgSHYTQ7no_9serde_fmt17DebugTupleVariantECsbpMoz2BpSnY_9value_bag
_RINvMNtCs9noQX08EQGk_10libloading4safeNtB3_7Library3getINtNtCsiL7B6CFZHyD_4core6option6OptionFUKCNtCsi6pTmhHIU5M_9clang_sys6CXTypemEB1x_EEB1z_
_RINvMNtCs9noQX08EQGk_10libloading4safeNtB3_7Library3getINtNtCsiL7B6CFZHyD_4core6option6OptionFUKCONtCsi6pTmhHIU5M_9clang_sys21CXCodeCompleteResultsmEmEEB1A_
_RINvMNtCs9noQX08EQGk_10libloading4safeNtB3_7Library3getINtNtCsiL7B6CFZHyD_4core6option6OptionFUKCONtNtBW_3ffi6c_voidlEmEECsi6pTmhHIU5M_9clang_sys
_RINvMNtCsNuVMdpUCz9_17crossbeam_channel7contextNtB3_7Context4withNCNvNtB5_6select9run_ready0INtNtCs5cYH0lLSdLc_4core6option6OptionjEEB5_
_RINvMNtCsacvvxWq5n6T_3nix5errnoNtNtB3_6consts5Errno6resultlEB5_
_RINvMNtCsaz9ix1H7t6h_5alloc5sliceSNtNtCs9nCsezDqTf4_12regex_syntax3hir3Hir8into_vecNtNtB5_5alloc6GlobalEBA_
_RINvMNtCsb4rfMCCqXFm_10dissimilar5rangeNtB3_5Range11starts_withAcj2_EB5_
_RINvMNtCsby9wAIILX7F_7tinystr7int_opsNtB3_8Aligned416from_ascii_bytesKj3_ECsaCO2qWNJEWF_9icu_locid
_RINvMNtCscepARLWIjoM_3mio9io_sourceINtB3_8IoSourceNtNtNtCs3NZLoJsOov_3std3net3tcp9TcpStreamE5do_ioNCNvXs1_NtNtNtB5_3net3tcp6streamNtB1G_9TcpStreamNtNtBS_2io5Write5write0jEB5_
_RINvMNtCseXY6b7LfkWH_10rayon_core5sleepNtB3_5Sleep13no_work_foundNCNvMs8_NtB5_8registryNtB19_12WorkerThread15wait_until_cold0EB5_
_RINvMNtCsgHzzm1HDSE9_11serde_bytes7bytebufNtB3_7ByteBuf4fromINtNtCshgx866xcH9W_5alloc3vec3VechEEB5_
_RINvMNtCshgx866xcH9W_5alloc5sliceSINtNtCsiL7B6CFZHyD_4core6option6OptionINtNtB5_4sync3ArceEE8into_vecNtNtB5_5alloc6GlobalECsfcZx8z6uiNH_14regex_automata
_RINvMNtCshgx866xcH9W_5alloc5sliceSNtNtB5_6string6String8into_vecNtNtB5_5alloc6GlobalECsi6pTmhHIU5M_9clang_sys
_RINvMNtCshgx866xcH9W_5alloc5sliceSNtNtCseDWgqLcbJaL_12unicode_bidi8implicit11BracketPair11sort_by_keyjNCINvBy_22identify_bracket_pairsNtNtBA_9char_data17HardcodedBidiDataE0EBA_
_RINvMNtCshgx866xcH9W_5alloc5sliceSNtNtNtNtCs8u8Bt1oxYji_14regex_automata3nfa8thompson12literal_trie5State8into_vecNtNtB5_5alloc6GlobalEBE_
_RINvMNtCshgx866xcH9W_5alloc5sliceSTxNtNtCseJ4fYN2mE0W_14parse_zoneinfo11transitions13FixedTimespanE7sort_byNCNvMs0_BA_NtBA_23FixedTimespanSetBuilder5build0EBC_
_RINvMNtCsiL7B6CFZHyD_4core3cmpNtB3_8Ordering9then_withNCNCNvMs_NtCsc4n4A3lNZxw_14android_tzdata6tzdataNtBZ_5Index10find_entry00EB11_
_RINvMNtCsiL7B6CFZHyD_4core3f32f16to_int_uncheckedxECskrh2G7GktFm_12num_rational
_RINvMNtCsiL7B6CFZHyD_4core3stre10split_oncecECsdQOuFCjTNPx_17http_range_header
_RINvMNtCsiL7B6CFZHyD_4core3stre11starts_withReECseGdTMJZQwVf_6dotenv
_RINvMNtCsiL7B6CFZHyD_4core3stre12strip_prefixReECs455279n054P_10iri_string
_RINvMNtCsiL7B6CFZHyD_4core3stre12strip_suffixcECsjQAgS81B8HG_7getopts
_RINvMNtCsiL7B6CFZHyD_4core3stre13get_uncheckedINtNtNtB5_3ops5range9RangeFromjEECseOG0iAxnQYr_9cssparser
_RINvMNtCsiL7B6CFZHyD_4core3stre16trim_end_matchescECs19S8JT9Sa42_12prettyplease
_RINvMNtCsiL7B6CFZHyD_4core3stre3getINtNtNtB5_3ops5range7RangeTojEECs1dEy6nitbLR_7console
_RINvMNtCsiL7B6CFZHyD_4core3stre4findReECsi6pTmhHIU5M_9clang_sys
_RINvMNtCsiL7B6CFZHyD_4core3stre5parseNtNtCs20txnxQ5U84_7bindgen8features11RustEditionEBD_
_RINvMNtCsiL7B6CFZHyD_4core3stre5parsedECs1qLRX4BTaFd_10num_traits
_RINvMNtCsiL7B6CFZHyD_4core3stre5parsejECscNja5zHioLO_10num_traits
_RINvMNtCsiL7B6CFZHyD_4core3stre5parsexECsgq42crzOkKS_14parse_zoneinfo
_RINvMNtCsiL7B6CFZHyD_4core3stre5splitNtB3_12IsWhitespaceECsflH2oLbVLAX_11resolv_conf
_RINvMNtCsiL7B6CFZHyD_4core3stre5splitcECsdQOuFCjTNPx_17http_range_header
_RINvMNtCsiL7B6CFZHyD_4core3stre8containsAcj2_ECskvdpLI7AOSZ_5insta
_RINvMNtCsiL7B6CFZHyD_4core3stre8containscECsiTWm3mqjjvj_11resolv_conf
_RINvMNtCsiL7B6CFZHyD_4core3stre9ends_withcECslWI3VPFq81_12regex_syntax
_RINvMNtCsiL7B6CFZHyD_4core5sliceSINtNtB5_4cell4CellhE3getjECsOQHHItu1OU_11miniz_oxide
_RINvMNtCsiL7B6CFZHyD_4core5sliceSINtNtCsPpbALoXOFe_8bitflags6traits4FlagNtCs4NLopzIeNt3_9raw_cpuid23ThermalPowerFeaturesEcxE3getjEB1a_
_RINvMNtCsiL7B6CFZHyD_4core5sliceSINtNtCsdztlhaupdrE_8bitflags6traits4FlagNtNtNtCs7VDwacPzN0q_6rustix7process5prctl23SpeculationFeatureStateE3getjEB1f_
_RINvMNtCsiL7B6CFZHyD_4core5sliceSINtNtCsfeJIbP5z82V_8bitflags6traits4FlagNtNtNtCslc5DL33MxoQ_6rustix7process5pidfd10PidfdFlagsE3getjEB1f_
_RINvMNtCsiL7B6CFZHyD_4core5sliceSINtNtCshgx866xcH9W_5alloc3vec3VecNtNtNtCsklfhaN9lQFy_12aho_corasick4util10primitives9PatternIDE13get_uncheckedjEB18_
_RINvMNtCsiL7B6CFZHyD_4core5sliceSNtCs5YkXyS5HlmN_9addr2line12LineSequence16binary_search_byNCNvMs_Bx_INtBx_7ResUnitINtNtNtCs33TE7WC04bj_5gimli4read12endian_slice11EndianSliceNtNtB1W_9endianity12LittleEndianEE13find_location0ECsa1XupUGiia1_9backtrace
_RINvMNtCsiL7B6CFZHyD_4core5sliceSNtNtCshgx866xcH9W_5alloc6string6String16binary_search_byNCNvMNtNtCs4rHto5i1Wx6_10regex_lite3hir5parseNtB1u_6Parser16add_capture_name0EB1y_
_RINvMNtCsiL7B6CFZHyD_4core5sliceSNtNtNtNtCs9uh8emyyfsF_14regex_automata3nfa8thompson12literal_trie10Transition20binary_search_by_keyhNCNvMBx_NtBx_11LiteralTrie16get_or_add_state0EBD_
_RINvMNtCsiL7B6CFZHyD_4core5sliceSTNtNtNtCs2GX3rYzX9NP_14regex_automata4util10primitives10SmallIndexBw_E3getjEBC_
_RINvMNtCsiL7B6CFZHyD_4core5sliceSTReRSTBw_Bw_EE20binary_search_by_keyBw_NCNvNvNtCshpKpake7nJI_12regex_syntax7unicode15property_values3imp0EB1g_
_RINvMNtCsiL7B6CFZHyD_4core5sliceSThhE16binary_search_byNCNvNtCs28VqLlNV3Ow_13unicode_width6tables44starts_non_ideographic_text_presentation_seq0ECsl1kjXE5Fkqe_6miette
_RINvMNtCsiL7B6CFZHyD_4core5sliceSh11copy_withinINtNtNtB5_3ops5range5RangejEECsc9MEfsw61gC_12aho_corasick
_RINvMNtCsiL7B6CFZHyD_4core5sliceSh3getINtNtNtB5_3ops5range5RangejEECsgYs22Aa4k3g_11urlencoding
_RINvMNtCsiL7B6CFZHyD_4core5sliceSh3getjECsbOVCs4DuK2J_14rustc_demangle
_RINvMNtCsiL7B6CFZHyD_4core5sliceSh7get_mutINtNtNtB5_3ops5range7RangeTojEECsrdkPzqDeE2_8base16ct
_RINvMNtCsiL7B6CFZHyD_4core5sliceSt13get_uncheckedjECs5oNeWAV3sNL_14encode_unicode
_RINvMNtCsiL7B6CFZHyD_4core6optionINtB3_6OptionIBw_NtNtCs3NZLoJsOov_3std4path9ComponentEE18get_or_insert_withNCNvMs3_NtNtNtB5_4iter8adapters8peekableINtB1Q_8PeekableNtBO_10ComponentsE4peek0ECs8qPlBtFINoP_4glob
_RINvMNtCsiL7B6CFZHyD_4core6optionINtB3_6OptionIBw_RNtNtCshpKpake7nJI_12regex_syntax3hir10PropertiesEE18get_or_insert_withNCNvMs3_NtNtNtB5_4iter8adapters8peekableINtB23_8PeekableINtNtB25_3map3MapINtNtNtB5_5slice4iter4IterNtBP_3HirENCNvMso_BP_BN_11alternation0EE4peek0EBR_
_RINvMNtCsiL7B6CFZHyD_4core6optionINtB3_6OptionIBw_yEE18get_or_insert_withNCNvMs3_NtNtNtB5_4iter8adapters8peekableINtB1h_8PeekableINtNtNtB5_3ops5range5RangeyEE4peek0ECskt8TpxtZnof_4clap
_RINvMNtCsiL7B6CFZHyD_4core6optionINtB3_6OptionINtNtCs1cxMKpSN2o4_3syn10punctuated4PairQNtNtBN_8generics14TypeParamBoundQNtNtBN_5token4PlusEE7or_elseNCNvXsg_BL_INtBL_8PairsMutB1n_B1U_ENtNtNtNtB5_4iter6traits8iterator8Iterator4nexts_0ECs20txnxQ5U84_7bindgen
_RINvMNtCsiL7B6CFZHyD_4core6optionINtB3_6OptionINtNtCs5MsBAlmYmSD_4time7parsing10ParsedItemhEE8and_thenRShNCNvXsb_NtBL_8parsableNtNtNtNtBN_18format_description10well_known7rfc28227Rfc2822NtNtB1N_6sealed6Sealed10parse_intos4_0EBN_
_RINvMNtCsiL7B6CFZHyD_4core6optionINtB3_6OptionINtNtCsgipwDkNpecl_6chrono8datetime8DateTimeNtNtNtBN_6offset3utc3UtcEE3mapTNtNtNtBN_5naive8datetime13NaiveDateTimeNtNtCs1aYy5fH08rq_9chrono_tz13timezone_impl8TzOffsetENCNvMsb_B2A_NtB2A_7GapInfo3news0_0EB2C_
_RINvMNtCsiL7B6CFZHyD_4core6optionINtB3_6OptionINtNtCshgx866xcH9W_5alloc4sync3ArceEE7or_elseNCNvMs4_CsbPHw0ZMlxUx_2ccNtB1z_5Build23apple_deployment_target0EB1z_
_RINvMNtCsiL7B6CFZHyD_4core6optionINtB3_6OptionINtNtCshgx866xcH9W_5alloc6borrow3CoweEE3mapNtNtBN_6string6StringNCNvMNtCsc76UpEbWLyW_6multer19content_dispositionNtB1P_18ContentDisposition5parses2_0EB1R_
_RINvMNtCsiL7B6CFZHyD_4core6optionINtB3_6OptionINtNtNtB5_3ptr8non_null7NonNullNtNtNtNtCslBVC6wF8Bgr_5tokio7runtime4task4core6HeaderEE3mapNtNtB1h_3raw7RawTaskNCNvMs_B2c_B2a_14get_queue_nexts_0EB1l_
_RINvMNtCsiL7B6CFZHyD_4core6optionINtB3_6OptionINtNtNtCs9noQX08EQGk_10libloading2os4unix6SymbolFUKCEuEE10ok_or_elseIBw_NtNtBP_5error5ErrorENCINvBL_12with_dlerrorBI_NCINvMs0_BL_NtBL_7Library8get_implB1u_NCINvB2G_18get_singlethreadedB1u_E0E0B1S_E0ECsi6pTmhHIU5M_9clang_sys
_RINvMNtCsiL7B6CFZHyD_4core6optionINtB3_6OptionINtNtNtCs9noQX08EQGk_10libloading2os4unix6SymbolIBw_FUKCNtCsi6pTmhHIU5M_9clang_sys8CXCursorlmENtB1E_13CXSourceRangeEEE10ok_or_elseIBw_NtNtBP_5error5ErrorENCINvBL_12with_dlerrorBI_NCINvMs0_BL_NtBL_7Library8get_implB1u_NCINvB3G_18get_singlethreadedB1u_E0E0B2S_E0EB1E_
_RINvMNtCsiL7B6CFZHyD_4core6optionINtB3_6OptionINtNtNtCs9noQX08EQGk_10libloading2os4unix6SymbolIBw_FUKCONtNtB5_3ffi6c_voidElEEE10ok_or_elseIBw_NtNtBP_5error5ErrorENCINvBL_12with_dlerrorBI_NCINvMs0_BL_NtBL_7Library8get_implB1u_NCINvB34_18get_singlethreadedB1u_E0E0B2g_E0ECsi6pTmhHIU5M_9clang_sys
_RINvMNtCsiL7B6CFZHyD_4core6optionINtB3_6OptionINtNtNtCs9noQX08EQGk_10libloading2os4unix6SymbolIBw_FUKCPaENtCsi6pTmhHIU5M_9clang_sys8CXStringEEE10ok_or_elseIBw_NtNtBP_5error5ErrorENCINvBL_12with_dlerrorBI_NCINvMs0_BL_NtBL_7Library8get_implB1u_NCINvB3l_18get_singlethreadedB1u_E0E0B2x_E0EB1H_
_RINvMNtCsiL7B6CFZHyD_4core6optionINtB3_6OptionINtNtNtCslBVC6wF8Bgr_5tokio7runtime4task8NotifiedINtNtCshgx866xcH9W_5alloc4sync3ArcNtNtNtBN_9scheduler14current_thread6HandleEEE7or_elseNCNvMs0_B25_NtB25_4Core9next_task0EBP_
_RINvMNtCsiL7B6CFZHyD_4core6optionINtB3_6OptionNtCs2U5u7PDNbEG_3log11LevelFilterE5ok_orNtBK_15ParseLevelErrorEBK_
_RINvMNtCsiL7B6CFZHyD_4core6optionINtB3_6OptionNtCsemJ988WtEmh_7socket28ProtocolE6map_orlNCNvMNtBK_6socketNtB1t_6Socket7new_raw0EBK_
_RINvMNtCsiL7B6CFZHyD_4core6optionINtB3_6OptionNtCsi6pTmhHIU5M_9clang_sys7VersionE3mapNtNtCshgx866xcH9W_5alloc6string6StringNCNCNvBK_18clang_getArraySize00EBK_
_RINvMNtCsiL7B6CFZHyD_4core6optionINtB3_6OptionNtCsi6pTmhHIU5M_9clang_sys7VersionE3mapNtNtCshgx866xcH9W_5alloc6string6StringNCNCNvBK_22clang_Cursor_getModule00EBK_
_RINvMNtCsiL7B6CFZHyD_4core6optionINtB3_6OptionNtCsi6pTmhHIU5M_9clang_sys7VersionE3mapNtNtCshgx866xcH9W_5alloc6string6StringNCNCNvBK_24clang_getTypeDeclaration00EBK_
_RINvMNtCsiL7B6CFZHyD_4core6optionINtB3_6OptionNtCsi6pTmhHIU5M_9clang_sys7VersionE3mapNtNtCshgx866xcH9W_5alloc6string6StringNCNCNvBK_27clang_createTranslationUnit00EBK_
_RINvMNtCsiL7B6CFZHyD_4core6optionINtB3_6OptionNtCsi6pTmhHIU5M_9clang_sys7VersionE3mapNtNtCshgx866xcH9W_5alloc6string6StringNCNCNvBK_29clang_Location_isFromMainFile00EBK_
_RINvMNtCsiL7B6CFZHyD_4core6optionINtB3_6OptionNtCsi6pTmhHIU5M_9clang_sys7VersionE3mapNtNtCshgx866xcH9W_5alloc6string6StringNCNCNvBK_32clang_CompileCommand_getFilename00EBK_
_RINvMNtCsiL7B6CFZHyD_4core6optionINtB3_6OptionNtCsi6pTmhHIU5M_9clang_sys7VersionE3mapNtNtCshgx866xcH9W_5alloc6string6StringNCNCNvBK_36clang_index_getObjCContainerDeclInfo00EBK_
_RINvMNtCsiL7B6CFZHyD_4core6optionINtB3_6OptionNtNtB5_4time8DurationE14unwrap_or_elseNCNvMNtNtNtCsk9QERyUqk6O_5tokio7runtime4time6sourceNtB1p_10TimeSource15instant_to_tick0EB1v_
_RINvMNtCsiL7B6CFZHyD_4core6optionINtB3_6OptionNtNtCs1cxMKpSN2o4_3syn8generics11WhereClauseE18get_or_insert_withNCNvMs_BK_NtBK_8Generics17make_where_clause0EBM_
_RINvMNtCsiL7B6CFZHyD_4core6optionINtB3_6OptionNtNtCs3NZLoJsOov_3std4path7PathBufE14unwrap_or_elseNCNvNtCsflIikro5Wyu_8dirs_sys19target_unix_not_mac13user_dir_file0EB1D_
_RINvMNtCsiL7B6CFZHyD_4core6optionINtB3_6OptionNtNtCs3NZLoJsOov_3std4time7InstantE3mapBI_NCNCNvNtCs1FXadDcHq25_17crossbeam_channel6select9run_ready00EB1w_
_RINvMNtCsiL7B6CFZHyD_4core6optionINtB3_6OptionNtNtCs6c37mDEUb8k_12regex_syntax3hir12ClassUnicodeE5ok_orNtNtBM_7unicode5ErrorEBM_
_RINvMNtCsiL7B6CFZHyD_4core6optionINtB3_6OptionNtNtCsczE7PKsO40l_4http6status10StatusCodeE10ok_or_elseNtBK_17InvalidStatusCodeNvMsa_BK_B1B_3newEBM_
_RINvMNtCsiL7B6CFZHyD_4core6optionINtB3_6OptionNtNtCshDAon63rG69_10ttf_parser6parser8Offset16E8and_thenRShNCNvMs0_NtNtBM_6tables4mathNtB1N_15MathValueRecord3get0EBM_
_RINvMNtCsiL7B6CFZHyD_4core6optionINtB3_6OptionNtNtCshgx866xcH9W_5alloc6string6StringE14unwrap_or_elseNCNCNvCsi6pTmhHIU5M_9clang_sys18clang_isExpression0s_0EB1H_
_RINvMNtCsiL7B6CFZHyD_4core6optionINtB3_6OptionNtNtCshgx866xcH9W_5alloc6string6StringE14unwrap_or_elseNCNCNvCsi6pTmhHIU5M_9clang_sys22clang_disposeStringSet0s_0EB1H_
_RINvMNtCsiL7B6CFZHyD_4core6optionINtB3_6OptionNtNtCshgx866xcH9W_5alloc6string6StringE14unwrap_or_elseNCNCNvCsi6pTmhHIU5M_9clang_sys25clang_EvalResult_getAsInt0s_0EB1H_
_RINvMNtCsiL7B6CFZHyD_4core6optionINtB3_6OptionNtNtCshgx866xcH9W_5alloc6string6StringE14unwrap_or_elseNCNCNvCsi6pTmhHIU5M_9clang_sys27clang_getCursorAvailability0s_0EB1H_
_RINvMNtCsiL7B6CFZHyD_4core6optionINtB3_6OptionNtNtCshgx866xcH9W_5alloc6string6StringE14unwrap_or_elseNCNCNvCsi6pTmhHIU5M_9clang_sys29clang_constructUSR_ObjCMethod0s_0EB1H_
_RINvMNtCsiL7B6CFZHyD_4core6optionINtB3_6OptionNtNtCshgx866xcH9W_5alloc6string6StringE14unwrap_or_elseNCNCNvCsi6pTmhHIU5M_9clang_sys32clang_HTMLTagComment_getAsString0s_0EB1H_
_RINvMNtCsiL7B6CFZHyD_4core6optionINtB3_6OptionNtNtCshgx866xcH9W_5alloc6string6StringE14unwrap_or_elseNCNCNvCsi6pTmhHIU5M_9clang_sys37clang_InlineCommandComment_getNumArgs0s_0EB1H_
_RINvMNtCsiL7B6CFZHyD_4core6optionINtB3_6OptionNtNtCshgx866xcH9W_5alloc6string6StringE3mapBI_NvYBI_INtNtB5_7convert4IntoBI_E4intoECs8c3TJ3X0nJ2_3ini
_RINvMNtCsiL7B6CFZHyD_4core6optionINtB3_6OptionNtNtCshgx866xcH9W_5alloc6string6StringE6filterNCNvMs7_NtNtCs20txnxQ5U84_7bindgen2ir2tyNtB1A_4Type13from_clang_tys1_0EB1E_
_RINvMNtCsiL7B6CFZHyD_4core6optionINtB3_6OptionNtNtCskN1Yzg5nTsb_11procfs_core7keyring8KeyFlagsE10ok_or_elseNtNtCsdztlhaupdrE_8bitflags6parser10ParseErrorNCINvB1J_8from_strBI_Es_0EBM_
_RINvMNtCsiL7B6CFZHyD_4core6optionINtB3_6OptionNtNtNtB5_3num7nonzero12NonZeroUsizeE3mapINtNtNtB5_3ops5range7RangeTojENCNvMNtCs455279n054P_10iri_string10componentsNtB1V_8Splitter12scheme_range0EB1X_
_RINvMNtCsiL7B6CFZHyD_4core6optionINtB3_6OptionNtNtNtCs1DT2mKzNIQv_4jiff5civil4date4DateE3mapsNCNCNvMs1_NtNtNtBO_3fmt7strtime7printerINtB1D_9FormatterNtB1F_13DefaultCustomE18fmt_iso_week_year200EBO_
_RINvMNtCsiL7B6CFZHyD_4core6optionINtB3_6OptionNtNtNtCs20txnxQ5U84_7bindgen2ir7context6TypeIdE3mapTBI_INtNtCshgx866xcH9W_5alloc3vec3VecBI_EENCNCNvXs2_NtNtBM_8analysis9sizednessNtB2n_17SizednessAnalysisNtB2p_17MonotoneFramework3new00EBO_
_RINvMNtCsiL7B6CFZHyD_4core6optionINtB3_6OptionNtNtNtCs2GX3rYzX9NP_14regex_automata4util6search9HalfMatchE3mapTBI_jENCNCNvYINtNtNtBO_3dfa5dense3DFAINtNtCshgx866xcH9W_5alloc3vec3VecmEENtNtB21_9automaton9Automaton14try_search_rev00EBO_
_RINvMNtCsiL7B6CFZHyD_4core6optionINtB3_6OptionNtNtNtCs2UqitWCaGEJ_14regex_automata4util6search9HalfMatchE3mapTBI_jENCNCNvMs_NtNtBO_6hybrid3dfaNtB1Y_3DFA14try_search_fwd00EBO_
_RINvMNtCsiL7B6CFZHyD_4core6optionINtB3_6OptionNtNtNtCs3NZLoJsOov_3std3ffi6os_str8OsStringE8and_thenNtNtBO_4path7PathBufNCNvNtCs73ztbjO6fBx_6ignore9gitignore21excludes_file_default0EB1Z_
_RINvMNtCsiL7B6CFZHyD_4core6optionINtB3_6OptionNtNtNtCs7VDwacPzN0q_6rustix7process5pidfd10PidfdFlagsE10ok_or_elseNtNtCsdztlhaupdrE_8bitflags6parser10ParseErrorNCINvB1O_8from_strBI_Es_0EBO_
_RINvMNtCsiL7B6CFZHyD_4core6optionINtB3_6OptionNtNtNtCs8u8Bt1oxYji_14regex_automata4util6search4SpanE3mapNtNtNtCscZCgdd1uAPc_5regex5regex6string5MatchNCNvMsa_B1G_NtB1G_8Captures3get0EB1K_
_RINvMNtCsiL7B6CFZHyD_4core6optionINtB3_6OptionNtNtNtCs9uh8emyyfsF_14regex_automata4util6search4SpanE3mapNtBK_5MatchNCNvXs0_NtNtBO_4meta8strategyINtB1X_3PreNtNtNtBM_9prefilter6memchr7Memchr3ENtB1X_8Strategy6searchs_0EBO_
_RINvMNtCsiL7B6CFZHyD_4core6optionINtB3_6OptionNtNtNtCsc9MEfsw61gC_12aho_corasick4util6search5MatchE6map_orNtNtBM_9prefilter9CandidateNcNtB1G_5Match0EBO_
_RINvMNtCsiL7B6CFZHyD_4core6optionINtB3_6OptionNtNtNtCshDAon63rG69_10ttf_parser6tables4cpal9BgraColorE3mapNtBO_9RgbaColorNCNvMBK_NtBK_5Table3get0EBO_
_RINvMNtCsiL7B6CFZHyD_4core6optionINtB3_6OptionNtNtNtCshfzWP1bsRXe_14regex_automata4util6search5MatchE3mapNtBK_9HalfMatchNCNvXs0_NtNtBO_4meta8strategyINtB22_3PreNtNtNtBM_9prefilter6memchr6MemchrENtB22_8Strategy11search_half0EBO_
_RINvMNtCsiL7B6CFZHyD_4core6optionINtB3_6OptionNtNtNtCslc5DL33MxoQ_6rustix3net5types11SocketFlagsE10ok_or_elseNtNtCsfeJIbP5z82V_8bitflags6parser10ParseErrorNCINvB1L_8from_strBI_Es_0EBO_
_RINvMNtCsiL7B6CFZHyD_4core6optionINtB3_6OptionNtNtNtNtCsiMH1ImEuv9R_6rustix7backend2fs5types14FallocateFlagsE10ok_or_elseNtNtCs83M1ESKWGqG_8bitflags6parser10ParseErrorNCINvB1X_8from_strBI_Es_0EBQ_
_RINvMNtCsiL7B6CFZHyD_4core6optionINtB3_6OptionNtNtNtNtCslc5DL33MxoQ_6rustix7backend5mount5types21MountPropagationFlagsE10ok_or_elseNtNtCsfeJIbP5z82V_8bitflags6parser10ParseErrorNCINvB27_8from_strBI_Es_0EBQ_
_RINvMNtCsiL7B6CFZHyD_4core6optionINtB3_6OptionQINtNtCshgx866xcH9W_5alloc5boxed3BoxNtNtCs1cxMKpSN2o4_3syn8generics14TypeParamBoundEE3mapQB1i_NvYBJ_INtNtB5_7convert5AsMutB1i_E6as_mutECs20txnxQ5U84_7bindgen
_RINvMNtCsiL7B6CFZHyD_4core6optionINtB3_6OptionQNtNtCs3NZLoJsOov_3std2io10IoSliceMutE6map_orQShNCINvBL_21default_read_vectoredNCNvYNtNtBL_4util5EmptyNtBL_4Read13read_vectored0Es_0ECsaGnL1G5hXQS_9tiny_http
_RINvMNtCsiL7B6CFZHyD_4core6optionINtB3_6OptionQNtNtNtCsk9QERyUqk6O_5tokio7runtime5defer5DeferE3mapbNCNvNtNtNtBN_9scheduler12multi_thread6worker15did_defer_tasks0EBP_
_RINvMNtCsiL7B6CFZHyD_4core6optionINtB3_6OptionQTNtNtCs1cxMKpSN2o4_3syn8generics14TypeParamBoundNtNtBO_5token4PlusEE3mapINtNtBO_10punctuated4PairQBK_QB1v_ENCNvXsg_B1W_INtB1W_8PairsMutBK_B1v_ENtNtNtNtB5_4iter6traits8iterator8Iterator4next0ECs20txnxQ5U84_7bindgen
_RINvMNtCsiL7B6CFZHyD_4core6optionINtB3_6OptionRINtNtCs1VYxpr1ArYB_6object3elf15SectionHeader64NtNtBO_6endian12LittleEndianEE3mapINtNtB5_6result6ResultRSmNtNtBO_4read5ErrorENCNvMs_NtNtB2t_3elf6symbolINtB2R_11SymbolTableINtBM_12FileHeader64B1u_EE5parses0_0ECsa1XupUGiia1_9backtrace
_RINvMNtCsiL7B6CFZHyD_4core6optionINtB3_6OptionRINtNtCshgx866xcH9W_5alloc3vec3VecNtNtCsl1kjXE5Fkqe_6miette8protocol11LabeledSpanEE3mapINtNtNtNtB5_4iter8adapters6cloned6ClonedINtNtNtB5_5slice4iter4IterB1g_EENCNvXs0_NtB1k_17miette_diagnosticNtB3p_16MietteDiagnosticNtB1i_10Diagnostic6labels0EB1k_
_RINvMNtCsiL7B6CFZHyD_4core6optionINtB3_6OptionRINtNtCshgx866xcH9W_5alloc4sync3ArcNtNtCs3NZLoJsOov_3std4path4PathEE3mapRB1h_QNvYBJ_NtNtNtB5_3ops5deref5Deref5derefECsbPHw0ZMlxUx_2cc
_RINvMNtCsiL7B6CFZHyD_4core6optionINtB3_6OptionRINtNtCshgx866xcH9W_5alloc5boxed3BoxNtNtCskMVLhTqFmsi_3syn2ty4TypeEE3mapRB1i_NvYBJ_INtNtB5_7convert5AsRefB1i_E6as_refECseWnAVIMley_12prettyplease
_RINvMNtCsiL7B6CFZHyD_4core6optionINtB3_6OptionRINtNtNtB5_3ptr8non_null7NonNullINtNtNtNtCshgx866xcH9W_5alloc11collections5btree4node12InternalNodeINtNtB1n_5boxed3BoxShEjEEE3mapINtB1h_6HandleINtB1h_7NodeRefNtNtB1h_6marker5DyingB2j_jNtB3i_8InternalENtB3i_4EdgeENCNvMse_B1h_IB32_B3g_B2j_jNtB3i_14LeafOrInternalE6ascend0ECsc9MEfsw61gC_12aho_corasick
_RINvMNtCsiL7B6CFZHyD_4core6optionINtB3_6OptionRINtNtNtB5_3ptr8non_null7NonNullINtNtNtNtCshgx866xcH9W_5alloc11collections5btree4node12InternalNodeNtNtNtCs20txnxQ5U84_7bindgen2ir7context6ItemIdNtNtB1j_7set_val9SetValZSTEEE3mapINtB1h_6HandleINtB1h_7NodeRefNtNtB1h_6marker5DyingB2j_B33_NtB45_8InternalENtB45_4EdgeENCNvMse_B1h_IB3P_B43_B2j_B33_NtB45_14LeafOrInternalE6ascend0EB2p_
_RINvMNtCsiL7B6CFZHyD_4core6optionINtB3_6OptionRINtNtNtB5_3ptr8non_null7NonNullINtNtNtNtCshgx866xcH9W_5alloc11collections5btree4node12InternalNodeReINtNtB1j_3set8BTreeSetNtNtCsgq42crzOkKS_14parse_zoneinfo9structure5ChildEEEE3mapINtB1h_6HandleINtB1h_7NodeRefNtNtB1h_6marker5ImmutB2j_B2l_NtB48_8InternalENtB48_4EdgeENCNvMse_B1h_IB3S_B46_B2j_B2l_NtB48_14LeafOrInternalE6ascend0EB2L_
_RINvMNtCsiL7B6CFZHyD_4core6optionINtB3_6OptionRINtNtNtCs6HoTchw45No_4http6header3map6BucketNtNtBO_5value11HeaderValueEE3mapRNtNtBO_4name10HeaderNameNCNvXsl_BM_INtBM_4KeysB1r_ENtNtNtNtB5_4iter6traits8iterator8Iterator4next0ECsl3mREbhXjXK_5hyper
_RINvMNtCsiL7B6CFZHyD_4core6optionINtB3_6OptionRNtCsgvVaqjSHDHa_9roxmltree12NamespaceIdxE3mapRNtBL_9NamespaceNCNvXsH_BL_NtBL_13NamespaceIterNtNtNtNtB5_4iter6traits8iterator8Iterator4next0EBL_
_RINvMNtCsiL7B6CFZHyD_4core6optionINtB3_6OptionRNtNtCs1cxMKpSN2o4_3syn4data7VariantE7or_elseNCNvXsw_NtBN_10punctuatedINtB1z_11PrivateIterBJ_NtNtBN_5token5CommaENtNtNtNtB5_4iter6traits8iterator8Iterator4nexts_0ECs19S8JT9Sa42_12prettyplease
_RINvMNtCsiL7B6CFZHyD_4core6optionINtB3_6OptionRNtNtCs23yxf7uxwGf_12regex_syntax3hir3HirE3mapINtNtB5_6result6ResultNtNtNtNtCshfzWP1bsRXe_14regex_automata3nfa8thompson8compiler11ThompsonRefNtNtB1S_5error10BuildErrorEQNCNvMs2_B1Q_NtB1Q_8Compiler11c_alt_slices_0EB1W_
_RINvMNtCsiL7B6CFZHyD_4core6optionINtB3_6OptionRNtNtCs3NZLoJsOov_3std4path6PrefixE3mapbNvMBL_BJ_11is_verbatimECsbPHw0ZMlxUx_2cc
_RINvMNtCsiL7B6CFZHyD_4core6optionINtB3_6OptionRNtNtCs6c37mDEUb8k_12regex_syntax3hir17ClassUnicodeRangeE6map_orbNCNvMsa_BL_NtBL_12ClassUnicode8is_ascii0EBN_
_RINvMNtCsiL7B6CFZHyD_4core6optionINtB3_6OptionRNtNtCsaaHjLwXHqQo_7tracing4span5InnerE3mapRNtNtCsC7QMccVbR7_12tracing_core4span2IdNCNvXs2_BL_IBw_B1p_EINtNtB5_7convert4FromRNtBL_4SpanE4from0EBN_
_RINvMNtCsiL7B6CFZHyD_4core6optionINtB3_6OptionRNtNtCsgsIpKNYvolR_4http7request5PartsE3mapRNtNtBN_6method6MethodNCNvMs4_BL_NtBL_7Builder10method_ref0EBN_
_RINvMNtCsiL7B6CFZHyD_4core6optionINtB3_6OptionRNtNtCshgx866xcH9W_5alloc6string6StringE3mapRSINtNtNtB5_3mem12maybe_uninit11MaybeUninithEQNCINvNtBN_3str17join_generic_copyehBJ_Es_0ECskt8TpxtZnof_4clap
_RINvMNtCsiL7B6CFZHyD_4core6optionINtB3_6OptionRNtNtCsi1PQLdatSvq_11x509_parser4x50919AlgorithmIdentifierE3mapRNtNtNtCsfcdQbM8XNhc_7asn1_rs10asn1_types3oid3OidNCNvMs5_NtBN_19signature_algorithmNtB2E_16RsaAesOaepParams18hash_algorithm_oid0EBN_
_RINvMNtCsiL7B6CFZHyD_4core6optionINtB3_6OptionRNtNtCskMVLhTqFmsi_3syn5error12ErrorMessageE3mapNtCs8fSZOX0qloS_11proc_macro211TokenStreamQNvMs_BL_BJ_16to_compile_errorEBN_
_RINvMNtCsiL7B6CFZHyD_4core6optionINtB3_6OptionRNtNtCslWI3VPFq81_12regex_syntax3hir3HirE3mapBJ_NCNvXs3_NtNtCshgx866xcH9W_5alloc3vec5drainINtB1C_5DrainBJ_ENtNtNtNtB5_4iter6traits8iterator8Iterator4next0EBN_
_RINvMNtCsiL7B6CFZHyD_4core6optionINtB3_6OptionRNtNtNtCs2GX3rYzX9NP_14regex_automata4meta8wrappers12HybridEngineE3mapNtNtNtBP_6hybrid5regex5CacheNCNvMs9_BL_NtBL_11HybridCache3new0EBP_
_RINvMNtCsiL7B6CFZHyD_4core6optionINtB3_6OptionRNtNtNtCs3NZLoJsOov_3std3ffi6os_str5OsStrE3mapINtNtCshgx866xcH9W_5alloc6borrow3CoweENvMsl_BL_BJ_15to_string_lossyECsbPHw0ZMlxUx_2cc
_RINvMNtCsiL7B6CFZHyD_4core6optionINtB3_6OptionRNtNtNtCs8u8Bt1oxYji_14regex_automata4meta8wrappers13OnePassEngineE6map_orjNCNvMs4_BL_NtBL_7OnePass12memory_usage0EBP_
_RINvMNtCsiL7B6CFZHyD_4core6optionINtB3_6OptionRNtNtNtCsfcdQbM8XNhc_7asn1_rs10asn1_types3any3AnyE8and_thenTRShNtNtBN_3oid3OidENCNvMs_NtCsi1PQLdatSvq_11x509_parser19signature_algorithmNtB26_15RsaSsaPssParams18mask_gen_algorithm0EB28_
_RINvMNtCsiL7B6CFZHyD_4core6optionINtB3_6OptionRNtNtNtCsklfhaN9lQFy_12aho_corasick4util9prefilter9PrefilterE3mapBJ_NCNvMs5_NtNtBP_3nfa10contiguousNtB1W_7Builder24build_from_noncontiguous0EBP_
_RINvMNtCsiL7B6CFZHyD_4core6optionINtB3_6OptionRNtNtNtNtCs9vszGGFNfUy_18tracing_subscriber6filter3env5field13CallsiteMatchE3mapNtBL_9SpanMatchQNCNvMs8_NtBN_9directiveINtB2o_8MatchSetBJ_E13to_span_match0EBR_
_RINvMNtCsiL7B6CFZHyD_4core6optionINtB3_6OptionRRNtNtCs23yxf7uxwGf_12regex_syntax3hir10PropertiesE8and_thenjNCINvMsn_BM_BK_5unionINtNtNtNtB5_4iter8adapters3map3MapINtNtNtB5_5slice4iter4IterNtBM_3HirENCNvMso_BM_BK_11alternation0EBJ_E0EBO_
_RINvMNtCsiL7B6CFZHyD_4core6optionINtB3_6OptionRReE3mapINtNtCsj40W3ef8J8f_12tracing_core5field12DisplayValueBI_EQINvBT_7displayBI_EEBV_
_RINvMNtCsiL7B6CFZHyD_4core6optionINtB3_6OptionRSNtNtNtCslWI3VPFq81_12regex_syntax3hir7literal7LiteralE8and_thenNtNtNtCs8u8Bt1oxYji_14regex_automata4util9prefilter9PrefilterNCNvNtNtB1R_4meta13reverse_inner9prefilter0EB1R_
_RINvMNtCsiL7B6CFZHyD_4core6optionINtB3_6OptionRShE3mapINtNtCshDAon63rG69_10ttf_parser6parser11LazyArray16NtBV_7GlyphIdENvMsi_BT_BQ_3newEBV_
_RINvMNtCsiL7B6CFZHyD_4core6optionINtB3_6OptionRShE3mapINtNtCshDAon63rG69_10ttf_parser6parser11LazyArray32NtNtNtBV_6tables4colr20BaseGlyphPaintRecordENvMso_BT_BQ_3newEBV_
_RINvMNtCsiL7B6CFZHyD_4core6optionINtB3_6OptionRShE8and_thenNtNtCshDAon63rG69_10ttf_parser3aat12LookupSingleNvYBV_NtNtBZ_6parser8FromData5parseEBZ_
_RINvMNtCsiL7B6CFZHyD_4core6optionINtB3_6OptionRShE8and_thenNtNtNtCshDAon63rG69_10ttf_parser6tables4fvar5TableNvMs0_BX_BV_5parseEB11_
_RINvMNtCsiL7B6CFZHyD_4core6optionINtB3_6OptionRShE8and_thenNtNtNtCshDAon63rG69_10ttf_parser6tables4trak5TableNvMs3_BX_BV_5parseEB11_
_RINvMNtCsiL7B6CFZHyD_4core6optionINtB3_6OptionRTNtNtCs1cxMKpSN2o4_3syn3pat3PatNtNtBO_5token2OrEE3mapRBK_NCNvXsw_NtBO_10punctuatedINtB1M_11PrivateIterBK_B1e_ENtNtNtNtB5_4iter6traits8iterator8Iterator4next0ECs19S8JT9Sa42_12prettyplease
_RINvMNtCsiL7B6CFZHyD_4core6optionINtB3_6OptionRTNtNtCse9OtA9X2qY2_18codespan_reporting10diagnostic10LabelStyleINtNtNtB5_3ops5range5RangejEReEE3mapBK_QNCNvMs4_NtNtBO_4term8rendererNtB2w_8Renderer21render_snippet_sources4_0EBO_
_RINvMNtCsiL7B6CFZHyD_4core6optionINtB3_6OptionRTNtNtNtCsc4gMlinqfBn_3log2kv3key3KeyNtNtBO_5value5ValueEE3mapjNvYBJ_NtNtBO_6source6Source5countEBQ_
_RINvMNtCsiL7B6CFZHyD_4core6optionINtB3_6OptionReE10ok_or_elseNtNtNtNtCs9vszGGFNfUy_18tracing_subscriber6filter3env5field7BadNameNCNvMs2_BZ_NtBZ_5Match5parse0EB15_
_RINvMNtCsiL7B6CFZHyD_4core6optionINtB3_6OptionReE11map_or_elseNtNtCshgx866xcH9W_5alloc6string6StringNCNvNtB12_3fmt6format0NvYeNtNtB12_6borrow7ToOwned8to_ownedECsaWj61pWL7fm_12nu_ansi_term
_RINvMNtCsiL7B6CFZHyD_4core6optionINtB3_6OptionReE14unwrap_or_elseNCNvXsd_NtNtCs8lFZGbCoHRU_5regex5regex6stringNtB19_8CapturesINtNtNtB5_3ops5index5IndexBI_E5indexs_0EB1d_
_RINvMNtCsiL7B6CFZHyD_4core6optionINtB3_6OptionReE3mapINtNtCshgx866xcH9W_5alloc4sync3ArceENCNvMs2_NtNtNtCshfzWP1bsRXe_14regex_automata3nfa8thompson8compilerNtB1x_8Compiler17add_capture_start0EB1D_
_RINvMNtCsiL7B6CFZHyD_4core6optionINtB3_6OptionReE3mapNtNtCshgx866xcH9W_5alloc6string6StringNvYBP_INtNtB5_7convert4FromBI_E4fromECs20txnxQ5U84_7bindgen
_RINvMNtCsiL7B6CFZHyD_4core6optionINtB3_6OptionReE3mapmQNCNCNvMs4_CsbPHw0ZMlxUx_2ccNtB11_5Build23apple_deployment_targets0_00EB11_
_RINvMNtCsiL7B6CFZHyD_4core6optionINtB3_6OptionReE6map_orbNCNvNtNtCshwKdUnaDEX_5serde9___private2de19flat_map_take_entry0EB11_
_RINvMNtCsiL7B6CFZHyD_4core6optionINtB3_6OptionReE8and_thenjNCNvMsj_NtNtCs20txnxQ5U84_7bindgen2ir4itemNtB13_4Item14overload_index0EB17_
_RINvMNtCsiL7B6CFZHyD_4core6optionINtB3_6OptionRhE3maphQNCNvXs8_NtNtCsgsIpKNYvolR_4http3uri9authorityNtBZ_9AuthorityNtNtB5_3cmp10PartialOrd11partial_cmps_0EB13_
_RINvMNtCsiL7B6CFZHyD_4core6optionINtB3_6OptionRhE3maphQNCNvXse_NtNtCskTUq6jwe4oO_4http3uri9authorityNtNtCshgx866xcH9W_5alloc6string6StringINtNtB5_3cmp10PartialOrdNtBZ_9AuthorityE11partial_cmps_0EB13_
_RINvMNtCsiL7B6CFZHyD_4core6optionINtB3_6OptionRhE6map_orbNCNvNtNtCs2UqitWCaGEJ_14regex_automata4util11interpolate19find_cap_ref_braced0EB11_
_RINvMNtCsiL7B6CFZHyD_4core6optionINtB3_6OptionRnE3mapNtNtCsi1qVvTIG17a_8valuable5value5ValueNvYnNtNtBT_8valuable8Valuable8as_valueEBT_
_RINvMNtCsiL7B6CFZHyD_4core6optionINtB3_6OptionTNtNtCs3NZLoJsOov_3std4path7PathBufNtNtCshgx866xcH9W_5alloc6string6StringINtNtB1l_3vec3VecmEEE3mapTBJ_B1h_ENCNvNtNtNvCsi6pTmhHIU5M_9clang_sys13load_manually5build7dynamic4finds_0EB2B_
_RINvMNtCsiL7B6CFZHyD_4core6optionINtB3_6OptionTRNtNtCshgx866xcH9W_5alloc6string6StringNtNtNtNtBO_11collections5btree7set_val9SetValZSTEE3mapBJ_NCNvXsz_NtB1q_3setINtB2p_8IntoIterBJ_ENtNtNtNtB5_4iter6traits8iterator8Iterator4next0ECsgcFSzCu6SVo_15chrono_tz_build
_RINvMNtCsiL7B6CFZHyD_4core6optionINtB3_6OptionTRhRShEE10ok_or_elseNtNtCsebUrgibTRpr_7asn1_rs5error5ErrorNCNvXs0_NtNtB16_10asn1_types4realNtB1M_4RealINtNtB5_7convert7TryFromRNtNtB1O_3any3AnyE8try_from0EB16_
_RINvMNtCsiL7B6CFZHyD_4core6optionINtB3_6OptionTjRNtNtCs1VYxpr1ArYB_6object2pe18ImageSectionHeaderEE3mapINtNtNtNtBP_4read2pe7section9PeSectionNtBN_16ImageNtHeaders32ENCNvXs2_B1G_INtB1G_17PeSectionIteratorB2f_ENtNtNtNtB5_4iter6traits8iterator8Iterator4next0EBP_
_RINvMNtCsiL7B6CFZHyD_4core6optionINtB3_6OptionTjcEE3mapcNCNvNtCs8fSZOX0qloS_11proc_macro25parse9characters_0EBY_
_RINvMNtCsiL7B6CFZHyD_4core6optionINtB3_6OptionTjjEE3mapjNCINvMNtB5_3stre4findNCNvMs0_NtCs8lqQn1C9fxI_3url4hostNtB1l_4Host12parse_opaque0E0EB1n_
_RINvMNtCsiL7B6CFZHyD_4core6optionINtB3_6OptionTjjEE3mapjNCINvMNtB5_3stre4findcE0ECs6c37mDEUb8k_12regex_syntax
_RINvMNtCsiL7B6CFZHyD_4core6optionINtB3_6OptionTjjEE8and_thenjNCNvMso_NtCs23yxf7uxwGf_12regex_syntax3hirNtB15_10Properties6concats_0EB17_
_RINvMNtCsiL7B6CFZHyD_4core6optionINtB3_6OptionbE14unwrap_or_elseNCNvMs4_CsbPHw0ZMlxUx_2ccNtB18_5Build23get_shell_escaped_flags0EB18_
_RINvMNtCsiL7B6CFZHyD_4core6optionINtB3_6OptioncE3mapTjcENCNvXs4_NtNtB5_3str4iterNtB10_11CharIndicesNtNtNtNtB5_4iter6traits12double_ended19DoubleEndedIterator9next_back0ECs8YSfaSHLRYP_4wasi
_RINvMNtCsiL7B6CFZHyD_4core6optionINtB3_6OptioncE3maptNCNvXsN_NtNtB5_3str4iterNtBX_11EncodeUtf16NtNtNtNtB5_4iter6traits8iterator8Iterator4next0ECsedCA7Tpfiji_7asn1_rs
_RINvMNtCsiL7B6CFZHyD_4core6optionINtB3_6OptionhE3mapINtNtB5_6result6ResultcuENCNCNvMs1_NtCshwiyRBDOsht_14rustc_demangle2v0NtB1n_10HexNibbles19try_parse_str_charss0_00EB1p_
_RINvMNtCsiL7B6CFZHyD_4core6optionINtB3_6OptionhE5ok_orNtNtNtNtCs1DT2mKzNIQv_4jiff5error3fmt7rfc28225ErrorEBY_
_RINvMNtCsiL7B6CFZHyD_4core6optionINtB3_6OptionhE8and_thenhNCNvMs4_NtNtCsh4ySdynPyhh_5gimli4read7arangesINtB12_12ArangeHeaderINtNtB14_12endian_slice11EndianSliceNtNtB16_9endianity12LittleEndianEjE5parse0ECs7adunahxyaw_9backtrace
_RINvMNtCsiL7B6CFZHyD_4core6optionINtB3_6OptionjE10ok_or_elseNtCshK2h5RPyNs1_9hashbrown15TryReserveErrorNCNvMs9_NtBY_3rawINtB1L_13RawTableInnerNtNtCshgx866xcH9W_5alloc5alloc6GlobalE22fallible_with_capacity0ECskTUq6jwe4oO_4http
_RINvMNtCsiL7B6CFZHyD_4core6optionINtB3_6OptionjE3mapIBw_ReENCNvXs0_NtNtB5_5array4iterINtB13_8IntoIterBO_Kj0_ENtNtNtNtB5_4iter6traits8iterator8Iterator4next0ECs9uh8emyyfsF_14regex_automata
_RINvMNtCsiL7B6CFZHyD_4core6optionINtB3_6OptionjE3mapNtCsc4gMlinqfBn_3log11LevelFilterNCNvXsd_BQ_BO_NtNtNtB5_3str6traits7FromStr8from_strs_0EBQ_
_RINvMNtCsiL7B6CFZHyD_4core6optionINtB3_6OptionjE3mapRNtNtCsaqWvr6p8cVX_6chrono6format4ItemNCNvXs0_NtNtB5_5array4iterINtB1y_8IntoIterBO_Kj1_ENtNtNtNtB5_4iter6traits8iterator8Iterator4next0EBT_
_RINvMNtCsiL7B6CFZHyD_4core6optionINtB3_6OptionjE3mapTRehBP_ENCNvNtNtCs455279n054P_10iri_string6parser3str16find_split2_holes_0EB14_
_RINvMNtCsiL7B6CFZHyD_4core6optionINtB3_6OptionjE3mapjNCNvCsdnx5lfpgmAG_11encoding_rs25checked_next_power_of_two0EBT_
_RINvMNtCsiL7B6CFZHyD_4core6optionINtB3_6OptionjE3mapjNCNvXsc_NtNtCsc9MEfsw61gC_12aho_corasick4util9prefilterNtBX_14RareBytesThreeNtBX_10PrefilterI7find_in0EB11_
_RINvMNtCsiL7B6CFZHyD_4core6optionINtB3_6OptionjE5ok_orNtNtNtCsb6BebbR1nVn_3gif6reader7decoder13DecodingErrorEBW_
_RINvMNtCsiL7B6CFZHyD_4core6optionINtB3_6OptionjE6map_orbNCNvMNtNtCs5Ng0wM7PJ5I_12regex_syntax3hir7literalNtBX_9Extractor5unions_0EB11_
_RINvMNtCsiL7B6CFZHyD_4core6optionINtB3_6OptionjE6map_orbNCNvMs2_NtNtNtCshfzWP1bsRXe_14regex_automata3nfa8thompson8compilerNtB10_8Compiler10c_at_least0EB16_
_RINvMNtCsiL7B6CFZHyD_4core6optionINtB3_6OptionjE7or_elseNCNvXs0_NtNtNtB5_4iter8adapters5chainINtB10_5ChainNtCshcLmOkTmYN7_11fixedbitset4OnesNtB1I_10DifferenceENtNtNtB14_6traits12double_ended19DoubleEndedIterator9next_backs_0EB1I_
_RINvMNtCsiL7B6CFZHyD_4core6optionINtB3_6OptionjE8and_thenRNtNtCsfjsGG03OZM8_7similar5types6DiffOpNCINvNtNtBY_10algorithms7compact19shift_diff_ops_downINtNtB1E_5utils12OffsetLookupmEB2o_Es1_0EBY_
_RINvMNtCsiL7B6CFZHyD_4core6optionINtB3_6OptionjE8and_thenjNCINvNtCshgx866xcH9W_5alloc3str17join_generic_copyehReE0ECskvdpLI7AOSZ_5insta
_RINvMNtCsiL7B6CFZHyD_4core6optionINtB3_6OptionlE5ok_orNtNtCsaqWvr6p8cVX_6chrono6format10ParseErrorEBU_
_RINvMNtCsiL7B6CFZHyD_4core6optionINtB3_6OptionmE14unwrap_or_elseNCINvMs0_Cs8lRkh0iGEl5_8fastrandNtB19_3Rng3u32NtNtNtB5_3ops5range9RangeFullE0EB19_
_RINvMNtCsiL7B6CFZHyD_4core6optionINtB3_6OptionmE3mapcNCNvXNtNtB5_3str4iterNtBU_5CharsNtNtNtNtB5_4iter6traits8iterator8Iterator4next0ECs4sdexCj5LDw_11tungstenite
_RINvMNtCsiL7B6CFZHyD_4core6optionINtB3_6OptionmE3mapcNCNvXNtNtB5_3str4iterNtBU_5CharsNtNtNtNtB5_4iter6traits8iterator8Iterator4next0ECsdQOuFCjTNPx_17http_range_header
_RINvMNtCsiL7B6CFZHyD_4core6optionINtB3_6OptionmE3mapcNCNvXNtNtB5_3str4iterNtBU_5CharsNtNtNtNtB5_4iter6traits8iterator8Iterator4next0ECsl1kjXE5Fkqe_6miette
_RINvMNtCsiL7B6CFZHyD_4core6optionINtB3_6OptionmE3mapcNCNvXs0_NtNtB5_3str4iterNtBX_5CharsNtNtNtNtB5_4iter6traits12double_ended19DoubleEndedIterator9next_back0ECsfeSLn7preQ4_8httpdate
_RINvMNtCsiL7B6CFZHyD_4core6optionINtB3_6OptionmE6map_orbNCINvNtNtCs302BLY9Avsm_12regex_syntax3hir7literal21repeat_range_literalsNvBX_8prefixesE0EB11_
_RINvMNtCsiL7B6CFZHyD_4core6optionINtB3_6OptionoE3mapINtCskrh2G7GktFm_12num_rational5RatiooENvMs_BR_BO_12from_integerEBR_
_RINvMNtCsiL7B6CFZHyD_4core6optionINtB3_6OptiontE8and_thentNCINvXs_NtNtCsjN361EugDAD_3der4asn116generalized_timeNtB12_15GeneralizedTimeNtNtB16_6decode11DecodeValue12decode_valueNtNtNtB16_6reader5slice11SliceReaderE0EB16_
_RINvMNtCsiL7B6CFZHyD_4core6optionINtB3_6OptionyE3mapNtNtB5_4time8DurationNvMs_BQ_BO_11from_millisECskN1Yzg5nTsb_11procfs_core
_RINvMNtCsiL7B6CFZHyD_4core6resultINtB3_6ResultAhj4_NtNtB5_5array17TryFromSliceErrorE7map_errNtNtNtCsfcZx8z6uiNH_14regex_automata4util4wire16DeserializeErrorNCNvMs3_NtNtB1y_3dfa5accelNtB2C_5Accel10from_slice0EB1y_
_RINvMNtCsiL7B6CFZHyD_4core6resultINtB3_6ResultINtNtB5_6option6OptionNtNtNtCs39k8jHxWV8Y_3der4asn13any6AnyRefENtNtB1a_5error5ErrorE7map_errB1J_NCINvYINtNtNtB1a_6reader6nested12NestedReaderIB2n_NtNtB2r_5slice11SliceReaderEENtB2r_6Reader6decodeBI_E0ECs2BYtuesa9bV_5pkcs8
_RINvMNtCsiL7B6CFZHyD_4core6resultINtB3_6ResultINtNtCs3GpQl59W6pW_15crossbeam_epoch6atomic6SharedNtNtNtBN_4sync4list5EntryEjE7map_errINtBL_20CompareExchangeErrorB1w_BI_ENCINvMs7_BL_INtBL_6AtomicB1w_E21compare_exchange_weakBI_Es_0EBN_
_RINvMNtCsiL7B6CFZHyD_4core6resultINtB3_6ResultINtNtCshgx866xcH9W_5alloc3vec3VechENtNtCs9V7caStxCCq_9arbitrary5error5ErrorE3mapNtNtNtBN_3ffi5c_str7CStringNCNvXNtNtNtNtB1l_7foreign5alloc3ffi5c_strB20_NtB1l_9Arbitrary9arbitrary0EB1l_
_RINvMNtCsiL7B6CFZHyD_4core6resultINtB3_6ResultINtNtCshgx866xcH9W_5alloc5boxed3BoxINtNtCs6x17v5tx4u3_4pest12parser_state11ParserStateNtNtCs2mjHR4nEvfL_13semver_parser9generated4RuleEEBI_E7or_elseBI_NCNCNvNtNtNvXs_B28_NtB2a_12SemverParserINtNtB1m_6parser6ParserB26_E5parse5rules7visible5range0s_0EB2a_
_RINvMNtCsiL7B6CFZHyD_4core6resultINtB3_6ResultINtNtCshgx866xcH9W_5alloc5boxed3BoxINtNtCs6x17v5tx4u3_4pest12parser_state11ParserStateNtNtCs2mjHR4nEvfL_13semver_parser9generated4RuleEEBI_E8and_thenBI_NCNCNCNCNCNCNCNvNtNtNvXs_B28_NtB2a_12SemverParserINtNtB1m_6parser6ParserB26_E5parse5rules7visible5parts00s_0000s_0EB2a_
_RINvMNtCsiL7B6CFZHyD_4core6resultINtB3_6ResultINtNtCshgx866xcH9W_5alloc5boxed3BoxINtNtCs6x17v5tx4u3_4pest12parser_state11ParserStateNtNtCs2mjHR4nEvfL_13semver_parser9generated4RuleEEBI_E8and_thenBI_NCNCNCNvNtNtNvXs_B28_NtB2a_12SemverParserINtNtB1m_6parser6ParserB26_E5parse5rules7visible7partial00s_0EB2a_
_RINvMNtCsiL7B6CFZHyD_4core6resultINtB3_6ResultINtNtNtB5_3ptr8non_null7NonNullShENtNtB5_5alloc10AllocErrorE7map_errNtNtCshgx866xcH9W_5alloc11collections15TryReserveErrorNCINvNtB1S_7raw_vec11finish_growNtNtB1S_5alloc6GlobalEs_0ECs455279n054P_10iri_string
_RINvMNtCsiL7B6CFZHyD_4core6resultINtB3_6ResultINtNtNtB5_3ptr8non_null7NonNullShENtNtB5_5alloc10AllocErrorE7map_errNtNtCshgx866xcH9W_5alloc11collections15TryReserveErrorNCINvNtB1S_7raw_vec11finish_growNtNtB1S_5alloc6GlobalEs_0ECs8fIdzaEorFr_4term
_RINvMNtCsiL7B6CFZHyD_4core6resultINtB3_6ResultINtNtNtB5_3ptr8non_null7NonNullShENtNtB5_5alloc10AllocErrorE7map_errNtNtCshgx866xcH9W_5alloc11collections15TryReserveErrorNCINvNtB1S_7raw_vec11finish_growNtNtB1S_5alloc6GlobalEs_0ECsdQOuFCjTNPx_17http_range_header
_RINvMNtCsiL7B6CFZHyD_4core6resultINtB3_6ResultINtNtNtB5_3ptr8non_null7NonNullShENtNtB5_5alloc10AllocErrorE7map_errNtNtCshgx866xcH9W_5alloc11collections15TryReserveErrorNCINvNtB1S_7raw_vec11finish_growNtNtB1S_5alloc6GlobalEs_0ECsj4OnrmWjBOa_4eyre
_RINvMNtCsiL7B6CFZHyD_4core6resultINtB3_6ResultINtNtNtB5_3ptr8non_null7NonNullShENtNtB5_5alloc10AllocErrorE7map_errNtNtCshgx866xcH9W_5alloc11collections19TryReserveErrorKindNCNvMs0_NtB1S_7raw_vecINtB2S_6RawVecINtNtCs7HzlohoAeks_12sharded_slab5shard3PtrNtNtNtCs1XKReJ1SRGG_18tracing_subscriber8registry7sharded9DataInnerNtNtB3p_3cfg13DefaultConfigEE6shrink0EB47_
_RINvMNtCsiL7B6CFZHyD_4core6resultINtB3_6ResultINtNtNtB5_3ptr8non_null7NonNullShENtNtB5_5alloc10AllocErrorE7map_errNtNtCshgx866xcH9W_5alloc11collections19TryReserveErrorKindNCNvMs0_NtB1S_7raw_vecINtB2S_6RawVecNtNtNtCs2UqitWCaGEJ_14regex_automata3dfa7onepass10TransitionE6shrink0EB3q_
_RINvMNtCsiL7B6CFZHyD_4core6resultINtB3_6ResultINtNtNtB5_3ptr8non_null7NonNullShENtNtB5_5alloc10AllocErrorE7map_errNtNtCshgx866xcH9W_5alloc11collections19TryReserveErrorKindNCNvMs0_NtB1S_7raw_vecINtB2S_6RawVecbE6shrink0ECs2UqitWCaGEJ_14regex_automata
_RINvMNtCsiL7B6CFZHyD_4core6resultINtB3_6ResultINtNtNtB5_3ptr8non_null7NonNullShENtNtB5_5alloc10AllocErrorE7map_errNtNtCshgx866xcH9W_5alloc11collections19TryReserveErrorKindNCNvMs0_NtB1S_7raw_vecINtB2S_6RawVecmE6shrink0ECsfcZx8z6uiNH_14regex_automata
_RINvMNtCsiL7B6CFZHyD_4core6resultINtB3_6ResultINtNtNtCs9noQX08EQGk_10libloading2os4unix6SymbolINtNtB5_6option6OptionFUKCNtCsi6pTmhHIU5M_9clang_sys6CXTypeENtB1W_8CXCursorEENtNtBP_5error5ErrorE3mapINtNtBP_4safe6SymbolB1u_ENCINvMB3a_NtB3a_7Library3getB1u_E0EB1W_
_RINvMNtCsiL7B6CFZHyD_4core6resultINtB3_6ResultINtNtNtCs9noQX08EQGk_10libloading2os4unix6SymbolINtNtB5_6option6OptionFUKCONtCsi6pTmhHIU5M_9clang_sys18CXCompletionResultmEuEENtNtBP_5error5ErrorE3mapINtNtBP_4safe6SymbolB1u_ENCINvMB3b_NtB3b_7Library3getB1u_E0EB1X_
_RINvMNtCsiL7B6CFZHyD_4core6resultINtB3_6ResultINtNtNtCs9noQX08EQGk_10libloading2os4unix6SymbolINtNtB5_6option6OptionFUKCONtNtB5_3ffi6c_voidPaOB1U_ElEENtNtBP_5error5ErrorE3mapINtNtBP_4safe6SymbolB1u_ENCINvMB2P_NtB2P_7Library3getB1u_E0ECsi6pTmhHIU5M_9clang_sys
_RINvMNtCsiL7B6CFZHyD_4core6resultINtB3_6ResultINtNtNtCsfuTXiacoSai_15trust_dns_proto3tcp17tcp_client_stream15TcpClientStreamINtNtBP_8iocompat17AsyncIoTokioAsStdNtNtNtNtCsk9QERyUqk6O_5tokio3net3tcp6stream9TcpStreamEENtNtNtCs3NZLoJsOov_3std2io5error5ErrorE7map_errNtNtBP_5error10ProtoErrorNCNvXsd_NtCshV5KG6IN3gC_12futures_util3fnsINtB4J_8MapErrFnNvYB4c_INtNtB5_7convert4FromB3r_E4fromEINtB4J_7FnOnce1Bv_E9call_once0ECshfZdcOEXVna_18trust_dns_resolver
_RINvMNtCsiL7B6CFZHyD_4core6resultINtB3_6ResultINtNtNtNtCs3NZLoJsOov_3std2io8buffered9bufreader9BufReaderNtNtNtCsaGnL1G5hXQS_9tiny_http4util18refined_tcp_stream16RefinedTcpStreamEuE7map_errNtNtNtBR_4sync4mpsc16RecvTimeoutErrorNCNvMs_NtNtB34_4mpmc5arrayINtB3I_7ChannelBI_E4recv0EB1K_
_RINvMNtCsiL7B6CFZHyD_4core6resultINtB3_6ResultNtCscSd6gxQblDi_9xmlparser5TokenNtNtBK_5error11StreamErrorE7map_errNtB1g_5ErrorNCNvMs1_BK_NtBK_9Tokenizer15parse_next_impl0EBK_
_RINvMNtCsiL7B6CFZHyD_4core6resultINtB3_6ResultNtNtCs1DT2mKzNIQv_4jiff9timestamp9TimestampNtNtBM_5error5ErrorE3mapNtNtBM_5zoned5ZonedNCNvMB1P_B1N_16checked_add_span0EBM_
_RINvMNtCsiL7B6CFZHyD_4core6resultINtB3_6ResultNtNtCs1cxMKpSN2o4_3syn4expr6ExprIfNtNtBM_5error5ErrorE3mapNtBK_4ExprNcNtB1E_2If0EBM_
_RINvMNtCsiL7B6CFZHyD_4core6resultINtB3_6ResultNtNtCs1cxMKpSN2o4_3syn5token5ShlEqNtNtBM_5error5ErrorE3mapNtNtBM_2op5BinOpNcNtB1E_9ShlAssign0EBM_
_RINvMNtCsiL7B6CFZHyD_4core6resultINtB3_6ResultNtNtCs33TE7WC04bj_5gimli6common16RangeListsOffsetNtNtBM_4read5ErrorE3mapINtNtB5_6option6OptionBI_ENcNtB1S_4Some0ECsa1XupUGiia1_9backtrace
_RINvMNtCsiL7B6CFZHyD_4core6resultINtB3_6ResultNtNtCs3NZLoJsOov_3std2fs4FileNtCskN1Yzg5nTsb_11procfs_core9ProcErrorE8and_thenNtNtB1d_3net12RouteEntriesNCINvYB1Y_NtB1d_8FromRead9from_fileReEs_0ECs6JGgWY6YaLc_6procfs
_RINvMNtCsiL7B6CFZHyD_4core6resultINtB3_6ResultNtNtCs3NZLoJsOov_3std2fs4FileNtNtNtBM_2io5error5ErrorE7map_errNtCskN1Yzg5nTsb_11procfs_core9ProcErrorNCINvYNtNtB1K_7keyring8KeyUsersNtB1K_8FromRead9from_fileReE0ECs6JGgWY6YaLc_6procfs
_RINvMNtCsiL7B6CFZHyD_4core6resultINtB3_6ResultNtNtCs3cDCxq6sOCw_7tracing4span4SpanNtNtNtCs3NZLoJsOov_3std6thread5local11AccessErrorE14unwrap_or_elseNCINvNtCsfpw0g4wKxRM_12tracing_core10dispatcher11get_defaultBI_NCNvMBK_BI_3new0Es_0EBM_
_RINvMNtCsiL7B6CFZHyD_4core6resultINtB3_6ResultNtNtCs5Ng0wM7PJ5I_12regex_syntax3ast12WithCommentsNtBK_5ErrorE3mapNtBK_3AstNCNvMs3_NtBK_5parseINtB23_7ParserIQNtB23_6ParserE5parse0EBM_
_RINvMNtCsiL7B6CFZHyD_4core6resultINtB3_6ResultNtNtCs9noQX08EQGk_10libloading4safe7LibraryNtNtBM_5error5ErrorE7map_errNtNtCshgx866xcH9W_5alloc6string6StringNCNvCsi6pTmhHIU5M_9clang_sys13load_manually0EB2x_
_RINvMNtCsiL7B6CFZHyD_4core6resultINtB3_6ResultNtNtCsczE7PKsO40l_4http8response5PartsNtNtBM_5error5ErrorE8and_thenBI_NCNvMs4_BK_NtBK_7Builder7version0EBM_
_RINvMNtCsiL7B6CFZHyD_4core6resultINtB3_6ResultNtNtCshgx866xcH9W_5alloc6string6StringNtBK_13FromUtf8ErrorE7map_errNtNtNtB5_3str5error9Utf8ErrorNCNvMs4_NtCsl7d2h0H2YpO_3ron5parseNtB2o_9ParsedStr14try_from_bytes0EB2q_
_RINvMNtCsiL7B6CFZHyD_4core6resultINtB3_6ResultNtNtCshgx866xcH9W_5alloc6string6StringNtNtCs3NZLoJsOov_3std3env8VarErrorE6map_orbNCNvNtNtNvCsi6pTmhHIU5M_9clang_sys13load_manually5build6common27search_libclang_directoriessb_0EB2b_
_RINvMNtCsiL7B6CFZHyD_4core6resultINtB3_6ResultNtNtCsi1PQLdatSvq_11x509_parser19signature_algorithm16RsaAesOaepParamsNtNtBM_5error9X509ErrorE7map_errB1Q_NCNvXBK_NtBK_18SignatureAlgorithmINtNtB5_7convert7TryFromRNtNtBM_4x50919AlgorithmIdentifierE8try_froms_0EBM_
_RINvMNtCsiL7B6CFZHyD_4core6resultINtB3_6ResultNtNtCskN1Yzg5nTsb_11procfs_core3net12RouteEntriesNtBM_9ProcErrorE3mapINtNtCshgx866xcH9W_5alloc3vec3VecNtBK_10RouteEntryENCNvMs1_NtCs6JGgWY6YaLc_6procfs7processNtB2M_7Process5route0EB2O_
_RINvMNtCsiL7B6CFZHyD_4core6resultINtB3_6ResultNtNtCsl7d2h0H2YpO_3ron5parse9ParsedStrNtNtNtB5_3str5error9Utf8ErrorE7map_errNtNtBM_5error5ErrorNvYB1W_INtNtB5_7convert4FromB1k_E4fromEBM_
_RINvMNtCsiL7B6CFZHyD_4core6resultINtB3_6ResultNtNtNtB5_5alloc6layout6LayoutNtBK_11LayoutErrorE7map_errNtNtCshgx866xcH9W_5alloc11collections19TryReserveErrorKindNCINvNtB1G_7raw_vec11finish_growNtNtB1G_5alloc6GlobalE0ECs16toIqv7aHG_10num_bigint
_RINvMNtCsiL7B6CFZHyD_4core6resultINtB3_6ResultNtNtNtB5_5alloc6layout6LayoutNtBK_11LayoutErrorE7map_errNtNtCshgx866xcH9W_5alloc11collections19TryReserveErrorKindNCINvNtB1G_7raw_vec11finish_growNtNtB1G_5alloc6GlobalE0ECs60av68niOtt_11flatbuffers
_RINvMNtCsiL7B6CFZHyD_4core6resultINtB3_6ResultNtNtNtB5_5alloc6layout6LayoutNtBK_11LayoutErrorE7map_errNtNtCshgx866xcH9W_5alloc11collections19TryReserveErrorKindNCINvNtB1G_7raw_vec11finish_growNtNtB1G_5alloc6GlobalE0ECsaEWb6tiPUS9_6object
_RINvMNtCsiL7B6CFZHyD_4core6resultINtB3_6ResultNtNtNtB5_5alloc6layout6LayoutNtBK_11LayoutErrorE7map_errNtNtCshgx866xcH9W_5alloc11collections19TryReserveErrorKindNCINvNtB1G_7raw_vec11finish_growNtNtB1G_5alloc6GlobalE0ECsgYs22Aa4k3g_11urlencoding
_RINvMNtCsiL7B6CFZHyD_4core6resultINtB3_6ResultNtNtNtB5_5alloc6layout6LayoutNtBK_11LayoutErrorE7map_errNtNtCshgx866xcH9W_5alloc11collections19TryReserveErrorKindNCINvNtB1G_7raw_vec11finish_growNtNtB1G_5alloc6GlobalE0ECslQXtP2qTVhA_13phf_generator
_RINvMNtCsiL7B6CFZHyD_4core6resultINtB3_6ResultNtNtNtCs2GX3rYzX9NP_14regex_automata4util10primitives10SmallIndexNtBK_15SmallIndexErrorE7map_errNtNtBM_8captures14GroupInfoErrorNCINvMs6_B2i_NtB2i_14GroupInfoInner18add_explicit_groupRINtNtCshgx866xcH9W_5alloc4sync3ArceEE0EBO_
_RINvMNtCsiL7B6CFZHyD_4core6resultINtB3_6ResultNtNtNtCs2UqitWCaGEJ_14regex_automata4util10primitives10SmallIndexNtBK_15SmallIndexErrorE7map_errNtNtBM_8captures14GroupInfoErrorNCINvMs5_B2i_NtB2i_9GroupInfo3newINtNtNtNtB5_4iter7sources5empty5EmptyAINtNtB5_6option6OptionReEj0_EB3U_B4h_E0EBO_
_RINvMNtCsiL7B6CFZHyD_4core6resultINtB3_6ResultNtNtNtCs3NZLoJsOov_3std10sys_common3net9TcpStreamNtNtNtBO_2io5error5ErrorE3mapNtNtNtBO_3net3tcp9TcpStreamNcB1Y_0ECs4sdexCj5LDw_11tungstenite
_RINvMNtCsiL7B6CFZHyD_4core6resultINtB3_6ResultNtNtNtCs7VDwacPzN0q_6rustix6thread6libcap15CapabilityFlagsNtNtCsdztlhaupdrE_8bitflags6parser10ParseErrorE3mapNtNvBK_1__16InternalBitFlagsNCNvXsb_B2v_B2t_NtNtNtB5_3str6traits7FromStr8from_str0EBO_
_RINvMNtCsiL7B6CFZHyD_4core6resultINtB3_6ResultNtNtNtCs8u8Bt1oxYji_14regex_automata4util10primitives9PatternIDNtBK_14PatternIDErrorE7map_errNtNtBM_8captures14GroupInfoErrorNvMs7_B2f_B2d_17too_many_patternsEBO_
_RINvMNtCsiL7B6CFZHyD_4core6resultINtB3_6ResultNtNtNtCsa8j6dibNEYR_3nix3sys6signal7SaFlagsNtNtCsfNwrcgZsTve_8bitflags6parser10ParseErrorE3mapNtNvBK_1__16InternalBitFlagsNCNvXsb_B2g_B2e_NtNtNtB5_3str6traits7FromStr8from_str0EBO_
_RINvMNtCsiL7B6CFZHyD_4core6resultINtB3_6ResultNtNtNtCsfcZx8z6uiNH_14regex_automata4util10primitives7StateIDNtBK_12StateIDErrorE7map_errNtNtBM_4wire16DeserializeErrorNCNvMsh_NtNtBO_3dfa5denseINtB2L_10StartTableRSmE20from_bytes_uncheckeds_0EBO_
_RINvMNtCsiL7B6CFZHyD_4core6resultINtB3_6ResultNtNtNtCshfzWP1bsRXe_14regex_automata4util10primitives10SmallIndexNtBK_15SmallIndexErrorE7map_errNtNtBM_8captures14GroupInfoErrorNCNvMs6_B2i_NtB2i_14GroupInfoInner17fixup_slot_ranges0EBO_
_RINvMNtCsiL7B6CFZHyD_4core6resultINtB3_6ResultNtNtNtCsk9QERyUqk6O_5tokio7runtime4park12UnparkThreadNtNtNtCs3NZLoJsOov_3std6thread5local11AccessErrorE3mapNtNtNtB5_4task4wake5WakerNCNvMs2_BK_NtBK_16CachedParkThread5waker0EBO_
_RINvMNtCsiL7B6CFZHyD_4core6resultINtB3_6ResultNtNtNtNtCs1DT2mKzNIQv_4jiff6shared4util5itime9IDateTimeNtBK_10RangeErrorE14unwrap_or_elseNCNvMs0_BK_BI_22saturating_add_seconds0EBQ_
_RINvMNtCsiL7B6CFZHyD_4core6resultINtB3_6ResultNtNtNtNtCs3NZLoJsOov_3std3sys4unix2fs8FileAttrNtNtNtBQ_2io5error5ErrorE3mapNtNtBQ_2fs8MetadataNcB1V_0ECsaqWvr6p8cVX_6chrono
_RINvMNtCsiL7B6CFZHyD_4core6resultINtB3_6ResultNtNtNtNtCs9vszGGFNfUy_18tracing_subscriber6filter3env5field10ValueMatchNtNtNtB5_3num7dec2flt15ParseFloatErrorE7or_elseNtNtCsf48c72s39yb_14regex_automata5error5ErrorNCNvMs6_BK_BI_11parse_regexs1_0EBQ_
_RINvMNtCsiL7B6CFZHyD_4core6resultINtB3_6ResultNtNtNtNtCsiMH1ImEuv9R_6rustix7backend2fs5types17StatVfsMountFlagsNtNtCs83M1ESKWGqG_8bitflags6parser10ParseErrorE3mapNtNvBK_s7_1__16InternalBitFlagsNCNvXsb_B2C_B2A_NtNtNtB5_3str6traits7FromStr8from_str0EBQ_
_RINvMNtCsiL7B6CFZHyD_4core6resultINtB3_6ResultNtNtNtNtCslc5DL33MxoQ_6rustix7backend5mount5types18InternalMountFlagsNtNtCsfeJIbP5z82V_8bitflags6parser10ParseErrorE3mapNtNvBK_s1_1__16InternalBitFlagsNCNvXsb_B2G_B2E_NtNtNtB5_3str6traits7FromStr8from_str0EBQ_
_RINvMNtCsiL7B6CFZHyD_4core6resultINtB3_6ResultOINtNtCshgx866xcH9W_5alloc4sync8ArcInnerSINtNtBO_5boxed3BoxDG0_INtNtNtB5_3ops8function2FnTQL1_INtNtBO_3vec3VecRL0_NtNtCs9FARr6NRyzd_10color_eyre6config5FrameEEEp6OutputuNtNtB5_6marker4SendNtB3t_4SyncEL_EENtNtB5_5alloc10AllocErrorE14unwrap_or_elseNCINvMsg_BM_INtBM_3ArcB1m_E19allocate_for_layoutNCNvMsh_BM_B4S_18allocate_for_slice0NCB5u_s_0E0EB2C_
_RINvMNtCsiL7B6CFZHyD_4core6resultINtB3_6ResultPNtNtCsjN36mo7t0K8_16parking_lot_core11parking_lot10ThreadDataNtNtNtCs3NZLoJsOov_3std6thread5local11AccessErrorE14unwrap_or_elseNCINvBL_16with_thread_dataNtBL_10ParkResultNCINvBL_4parkNCNvMs_NtCsjwhIuczLsde_11parking_lot7condvarNtB3N_7Condvar19wait_until_internal0NCB3I_s_0NCB3I_s0_0E0Es_0EB3P_
_RINvMNtCsiL7B6CFZHyD_4core6resultINtB3_6ResultRAhj2_NtNtB5_5array17TryFromSliceErrorE3mapBJ_NCNvXs5_BQ_BJ_INtNtB5_7convert7TryFromRShE8try_from0ECsb6BebbR1nVn_3gif
_RINvMNtCsiL7B6CFZHyD_4core6resultINtB3_6ResultRAhj8_NtNtB5_5array17TryFromSliceErrorE3mapBJ_NCNvXs5_BQ_BJ_INtNtB5_7convert7TryFromRShE8try_from0ECsiXDYCUwaNF1_11miniz_oxide
_RINvMNtCsiL7B6CFZHyD_4core6resultINtB3_6ResultRNtNtNtB5_3ffi5c_str4CStrNtBL_22FromBytesUntilNulErrorE3mapNtNtNtCshgx866xcH9W_5alloc3ffi5c_str7CStringNvYBJ_NtNtB1L_6borrow7ToOwned8to_ownedECsa8j6dibNEYR_3nix
_RINvMNtCsiL7B6CFZHyD_4core6resultINtB3_6ResultRShNtNtNtCs5MsBAlmYmSD_4time5error22parse_from_description20ParseFromDescriptionE2orBL_EBR_
_RINvMNtCsiL7B6CFZHyD_4core6resultINtB3_6ResultTNtNtCs7WdwxyOCujz_5litrs6escape8UnescapejENtNtBN_3err10ParseErrorE7map_errB1p_NCINvBL_15unescape_stringNtNtCshgx866xcH9W_5alloc6string6StringEs_0EBN_
_RINvMNtCsiL7B6CFZHyD_4core6resultINtB3_6ResultTRSNtNtCsfVvzz2Z4PLT_5cexpr5token5TokenNtNtBP_4expr10EvalResultEINtNtCs9A9JS0ryDJM_3nom8internal3ErrINtBP_5ErrorBJ_EEE3mapTBJ_TRShB1l_EENCNCINvNtB1P_8sequence4pairBJ_B2L_B1l_B2k_NCINvNtB1P_10combinator8completeBJ_B2L_B2k_NCNvB1n_18one_of_punctuation0E0NCNvMsa_B1n_NtB1n_4PRef7shl_shr0E00EBP_
_RINvMNtCsiL7B6CFZHyD_4core6resultINtB3_6ResultTRShNtNtCsi1PQLdatSvq_11x509_parser14cri_attributes16X509CriAttributeEINtNtCs6uRFoiHRIgn_3nom8internal3ErrNtNtCsfcdQbM8XNhc_7asn1_rs5error5ErrorEE7map_errIB1R_NtNtBQ_5error9X509ErrorENCNvXBO_BM_INtNtB2u_6traits7FromDerB3h_E8from_ders_0EBQ_
_RINvMNtCsiL7B6CFZHyD_4core6resultINtB3_6ResultTjNtCsaDiY1PgCXQX_7socket29RecvFlagsENtNtNtCs3NZLoJsOov_3std2io5error5ErrorE3mapjNCNvXs4_NtBM_6socketRNtB29_6SocketNtB1n_4Read13read_vectored0EBM_
_RINvMNtCsiL7B6CFZHyD_4core6resultINtB3_6ResultTjjENtCs5LQ9Q6pHthj_13data_encoding11DecodeErrorE7map_errNtBO_13DecodePartialNCINvBO_15decode_wrap_mutNtBO_2N6NtBO_2BfNtBO_2BtB2u_E0EBO_
_RINvMNtCsiL7B6CFZHyD_4core6resultINtB3_6ResultTjjENtCs9Zm4YucmSZV_13data_encoding11DecodeErrorE7map_errNtBO_13DecodePartialNCINvBO_15decode_wrap_mutNtBO_2N6NtBO_2BtB2u_NtBO_2BfE0EBO_
_RINvMNtCsiL7B6CFZHyD_4core6resultINtB3_6ResultTjjENtCs9aJIYchcVbh_13data_encoding11DecodeErrorE7map_errNtBO_13DecodePartialNCINvBO_15decode_wrap_mutNtBO_2N6NtBO_2BtNtBO_2BfB2u_E0EBO_
_RINvMNtCsiL7B6CFZHyD_4core6resultINtB3_6ResultTjjENtNtB5_7convert10InfallibleE7map_errNtNtNtCsfcZx8z6uiNH_14regex_automata4util4wire16DeserializeErrorNCNCNvB1o_21try_read_u16_as_usize0s_0EB1s_
_RINvMNtCsiL7B6CFZHyD_4core6resultINtB3_6ResultaNtNtNtB5_3num5error13ParseIntErrorE7map_errNtNtCseJ4fYN2mE0W_14parse_zoneinfo4line5ErrorNCNvXs8_B1s_NtB1s_8TimeSpecNtNtNtB5_3str6traits7FromStr8from_strs_0EB1u_
_RINvMNtCsiL7B6CFZHyD_4core6resultINtB3_6ResultdNtNtCs1yFw5o97rjX_6thrift6errors5ErrorE3mapuNCNvYNtNtNtBN_8protocol6stored20TStoredInputProtocolNtB1A_14TInputProtocol15skip_till_depths3_0EBN_
_RINvMNtCsiL7B6CFZHyD_4core6resultINtB3_6ResulthNtNtCs67aeTZz8rpc_9ipnetwork5error14IpNetworkErrorE8and_thenhNCNvNtBN_5parse12parse_prefixs_0EBN_
_RINvMNtCsiL7B6CFZHyD_4core6resultINtB3_6ResulthhE14unwrap_or_elseINvNtB5_7convert8identityhEECseA2dGjJQd8F_12futures_util
_RINvMNtCsiL7B6CFZHyD_4core6resultINtB3_6ResultiNtNtNtCs3NZLoJsOov_3std2io5error5ErrorE3mapjNCNvXs0_NtCs58rHsSnLr6S_4net23extNtNtNtBP_3net3udp9UdpSocketNtB1z_12UdpSocketExt4recv0EB1B_
_RINvMNtCsiL7B6CFZHyD_4core6resultINtB3_6ResultjNtCs5LQ9Q6pHthj_13data_encoding13DecodePartialE7map_errBJ_NCINvBL_14decode_pad_mutNtBL_2N5NtBL_2BtNtBL_2BfEs_0EBL_
_RINvMNtCsiL7B6CFZHyD_4core6resultINtB3_6ResultjNtCs9Zm4YucmSZV_13data_encoding11DecodeErrorE7map_errBJ_NCINvBL_17decode_wrap_blockNtBL_2N6NtBL_2BfB2c_E0EBL_
_RINvMNtCsiL7B6CFZHyD_4core6resultINtB3_6ResultjNtCs9Zm4YucmSZV_13data_encoding13DecodePartialE7map_errNtBL_11DecodeErrorNCINvBL_17decode_wrap_blockNtBL_2N6NtBL_2BtB2t_Es_0EBL_
_RINvMNtCsiL7B6CFZHyD_4core6resultINtB3_6ResultjNtCs9aJIYchcVbh_13data_encoding13DecodePartialE7map_errBJ_NCINvBL_14decode_pad_mutNtBL_2N6NtBL_2BtNtBL_2BfEs_0EBL_
_RINvMNtCsiL7B6CFZHyD_4core6resultINtB3_6ResultjNtCscCWi16CzCXC_13data_encoding13DecodePartialE7map_errBJ_NCINvBL_14decode_pad_mutNtBL_2N1NtBL_2BfB2b_Es_0EBL_
_RINvMNtCsiL7B6CFZHyD_4core6resultINtB3_6ResultjNtCshwiyRBDOsht_14rustc_demangle18SizeLimitExhaustedE8and_thenjNCNvXs0_BL_INtBL_21SizeLimitedFmtAdapterQNtNtB5_3fmt9FormatterENtB2r_5Write9write_str0EBL_
_RINvMNtCsiL7B6CFZHyD_4core6resultINtB3_6ResultjNtNtNtB5_3num5error13ParseIntErrorE7map_errNtNtCsfeJIbP5z82V_8bitflags6parser10ParseErrorNCNvXsI_NtB1u_6traitsjNtB1s_8ParseHex9parse_hex0EB1u_
_RINvMNtCsiL7B6CFZHyD_4core6resultINtB3_6ResultjNtNtNtCs3NZLoJsOov_3std2io5error5ErrorE3mapmNCNvMNtNtNtCs4USifnV5z1l_5tokio3net3tcp6socketNtB1w_9TcpSocket16send_buffer_size0EB1C_
_RINvMNtCsiL7B6CFZHyD_4core6resultINtB3_6ResultjNtNtNtCs3NZLoJsOov_3std2io5error5ErrorE8and_thenjNCINvBN_16append_to_stringNCNvYINtNtNtBN_8buffered9bufreader9BufReaderNtNtBP_2fs4FileENtBN_7BufRead9read_line0E0ECseGdTMJZQwVf_6dotenv
_RINvMNtCsiL7B6CFZHyD_4core6resultINtB3_6ResultjjE3mapuNCNvMNtCsiMGsmEihaLQ_17crossbeam_channel7contextNtBV_7Context10try_select0EBX_
_RINvMNtCsiL7B6CFZHyD_4core6resultINtB3_6ResultjjE7map_errNtCs9Zm4YucmSZV_13data_encoding13DecodePartialNCINvBV_14decode_pad_mutNtBV_2N5NtBV_2BtB29_E0EBV_
_RINvMNtCsiL7B6CFZHyD_4core6resultINtB3_6ResultjjE7map_errNtCscCWi16CzCXC_13data_encoding13DecodePartialNCINvBV_14decode_pad_mutNtBV_2N6NtBV_2BfB29_E0EBV_
_RINvMNtCsiL7B6CFZHyD_4core6resultINtB3_6ResultlNtNtNtCs1DT2mKzNIQv_4jiff6shared5posix11NumberErrorE7map_errNtBL_16WeekOfMonthErrorNcNtB1H_5Parse0EBP_
_RINvMNtCsiL7B6CFZHyD_4core6resultINtB3_6ResultlNtNtNtCs3NZLoJsOov_3std2io5error5ErrorE3mapNtNtCshQQsW2jnLmV_4libc4unix6lingerNCINvNtCsemJ988WtEmh_7socket23sys10getsockoptB1q_E0EB26_
_RINvMNtCsiL7B6CFZHyD_4core6resultINtB3_6ResultlNtNtNtCs3NZLoJsOov_3std2io5error5ErrorE3mapTlNtNtCsaDiY1PgCXQX_7socket28sockaddr8SockAddrENCINvMB1u_B1s_8try_initNCNvMs6_NtB1w_3sysNtNtB1w_6socket6Socket12original_dst0lE0EB1w_
_RINvMNtCsiL7B6CFZHyD_4core6resultINtB3_6ResultlNtNtNtCs3NZLoJsOov_3std2io5error5ErrorE3mapbNCNvMs1_NtCsemJ988WtEmh_7socket26socketNtB1z_6Socket18header_included_v60EB1B_
_RINvMNtCsiL7B6CFZHyD_4core6resultINtB3_6ResultlNtNtNtCs3NZLoJsOov_3std2io5error5ErrorE3mapbNCNvMs_NtCsaDiY1PgCXQX_7socket26socketNtB1y_6Socket13reuse_address0EB1A_
_RINvMNtCsiL7B6CFZHyD_4core6resultINtB3_6ResultlNtNtNtCs3NZLoJsOov_3std2io5error5ErrorE3mapmNCNvMs0_NtCsaDiY1PgCXQX_7socket26socketNtB1z_6Socket3ttl0EB1B_
_RINvMNtCsiL7B6CFZHyD_4core6resultINtB3_6ResultlNtNtNtCs3NZLoJsOov_3std2io5error5ErrorE3mapuNCINvNtCs4hLSAroGC2E_7socket23sys10setsockoptNtNtCsc7ZCTqklYdl_4libc4unix9ipv6_mreqE0EB1y_
_RINvMNtCsiL7B6CFZHyD_4core6resultINtB3_6ResultlNtNtNtCs3NZLoJsOov_3std2io5error5ErrorE3mapuNCINvNtCsemJ988WtEmh_7socket23sys10setsockoptmE0EB1y_
_RINvMNtCsiL7B6CFZHyD_4core6resultINtB3_6ResultlNtNtNtCs3NZLoJsOov_3std2io5error5ErrorE3mapuNCNvNtCsaDiY1PgCXQX_7socket23sys9fcntl_add0EB1x_
_RINvMNtCsiL7B6CFZHyD_4core6resultINtB3_6ResultmNtNtCs83M1ESKWGqG_8bitflags6parser10ParseErrorE7map_errBJ_NCINvBL_8from_strNtNtNtNtCsiMH1ImEuv9R_6rustix7backend2fs7inotify10WatchFlagsE0EB24_
_RINvMNtCsiL7B6CFZHyD_4core6resultINtB3_6ResultmNtNtCsdztlhaupdrE_8bitflags6parser10ParseErrorE7map_errBJ_NCINvBL_8from_strNtNtNtCs7VDwacPzN0q_6rustix7process5pidfd10PidfdFlagsE0EB22_
_RINvMNtCsiL7B6CFZHyD_4core6resultINtB3_6ResultmNtNtCsfeJIbP5z82V_8bitflags6parser10ParseErrorE7map_errBJ_NCINvBL_8from_strNtNtNtNtCslc5DL33MxoQ_6rustix3net5types3xdp15XdpUmemRegFlagsE0EB24_
_RINvMNtCsiL7B6CFZHyD_4core6resultINtB3_6ResultmNtNtNtB5_3num5error13ParseIntErrorE7map_errNtNtCsflH2oLbVLAX_11resolv_conf7grammar10ParseErrorNCNvB1s_5parses9_0EB1u_
_RINvMNtCsiL7B6CFZHyD_4core6resultINtB3_6ResultsNtNtCs1DT2mKzNIQv_4jiff5error5ErrorE7map_errBJ_NCINvXsj_BL_Bv_INtBL_12ErrorContextsBJ_E7contextNtNtNtBL_3fmt7strtime5ErrorE0EBN_
_RINvMNtCsiL7B6CFZHyD_4core6resultINtB3_6ResulttNtNtNtB5_3num5error13ParseIntErrorE7map_errNtNtCsfeJIbP5z82V_8bitflags6parser10ParseErrorNCNvXsc_NtB1u_6traitstNtB1s_8ParseHex9parse_hex0EB1u_
_RINvMNtCsiL7B6CFZHyD_4core6resultINtB3_6ResultuNtNtB5_3fmt5ErrorE7map_errNtNtCs1DT2mKzNIQv_4jiff5error5ErrorNCNvXs7_NtB1d_3fmtINtB1Q_11StdFmtWriteQNtBL_9FormatterENtB1Q_5Write9write_str0EB1d_
_RINvMNtCsiL7B6CFZHyD_4core6resultINtB3_6ResultuNtNtCs1DT2mKzNIQv_4jiff5error5ErrorE7map_errNtNtB5_3fmt5ErrorNCNvXs8_NtBN_3fmtINtB1Q_11StdFmtWriteQDNtB1Q_5WriteEL_ENtB1t_5Write9write_str0EBN_
_RINvMNtCsiL7B6CFZHyD_4core6resultINtB3_6ResultuNtNtCsbpMoz2BpSnY_9value_bag5error5ErrorE7map_errNtNtNtNtBN_8internal5serde2v111UnsupportedNCNvXNvB1y_14internal_visitNtB2h_17VisitorSerializerNtNtCs3dWPYqrSOsT_5serde3ser10Serializer13serialize_u640EBN_
_RINvMNtCsiL7B6CFZHyD_4core6resultINtB3_6ResultuNtNtCsfcdQbM8XNhc_7asn1_rs5error5ErrorE7map_errINtNtCs6uRFoiHRIgn_3nom8internal3ErrBJ_ENCNCNvXs3_NtBN_6traitsNtNtNtBN_10asn1_types7integer7IntegerNtB2i_7FromDer8from_der00ECsi1PQLdatSvq_11x509_parser
_RINvMNtCsiL7B6CFZHyD_4core6resultINtB3_6ResultuNtNtCshgx866xcH9W_5alloc11collections15TryReserveErrorE7map_errNtBL_19TryReserveErrorKindNCNvNtBN_7raw_vec14handle_reserve0ECs1dEy6nitbLR_7console
_RINvMNtCsiL7B6CFZHyD_4core6resultINtB3_6ResultuNtNtCshgx866xcH9W_5alloc11collections15TryReserveErrorE7map_errNtBL_19TryReserveErrorKindNCNvNtBN_7raw_vec14handle_reserve0ECs6adwaEfvgwi_4mime
_RINvMNtCsiL7B6CFZHyD_4core6resultINtB3_6ResultuNtNtCshgx866xcH9W_5alloc11collections15TryReserveErrorE7map_errNtBL_19TryReserveErrorKindNCNvNtBN_7raw_vec14handle_reserve0ECsap6w5K7RPBy_3nom
_RINvMNtCsiL7B6CFZHyD_4core6resultINtB3_6ResultuNtNtCshgx866xcH9W_5alloc11collections15TryReserveErrorE7map_errNtBL_19TryReserveErrorKindNCNvNtBN_7raw_vec14handle_reserve0ECsgoUTjNXrwt1_16percent_encoding
_RINvMNtCsiL7B6CFZHyD_4core6resultINtB3_6ResultuNtNtCshgx866xcH9W_5alloc11collections15TryReserveErrorE7map_errNtBL_19TryReserveErrorKindNCNvNtBN_7raw_vec14handle_reserve0ECsllH4vwFjV4S_19brotli_decompressor
_RINvMNtCsiL7B6CFZHyD_4core6resultINtB3_6ResultuNtNtNtCs2UqitWCaGEJ_14regex_automata4util6search10MatchErrorE7map_errNtNtNtBP_4meta5error14RetryFailErrorNCNvMs8_NtB1U_8wrappersNtB2y_12HybridEngine29try_which_overlapping_matches0EBP_
_RINvMNtCsiL7B6CFZHyD_4core6resultINtB3_6ResultuNtNtNtCs3NZLoJsOov_3std2io5error5ErrorE7map_errNtNtCskvdpLI7AOSZ_5insta7content5ErrorNCNvMs0_NtB1y_8snapshotNtB2e_8Snapshot18save_with_metadatas_0EB1y_
_RINvMNtCsiL7B6CFZHyD_4core6resultINtB3_6ResultuNtNtNtCs6HoTchw45No_4http6header3map9HeaderMapE7map_errINtNtB5_6option6OptionBJ_ENcNtB1C_4Some0ECsl3mREbhXjXK_5hyper
_RINvMNtCsiL7B6CFZHyD_4core6resultINtB3_6ResultujE7map_errNtCs9aJIYchcVbh_13data_encoding13DecodePartialNCINvBV_15decode_base_mutNtBV_2N6NtBV_2BtEs_0EBV_
_RINvMNtCsiL7B6CFZHyD_4core6resultINtB3_6ResultujE7map_errjNCINvCs9Zm4YucmSZV_13data_encoding10decode_mutNtBZ_2N2NtBZ_2BfEs_0EBZ_
_RINvMNtCsiL7B6CFZHyD_4core6resultINtB3_6ResultujE7map_errjNCINvCscCWi16CzCXC_13data_encoding10decode_mutNtBZ_2N2NtBZ_2BtEs_0EBZ_
_RINvMNtCsiL7B6CFZHyD_4core6resultINtB3_6ResultuuE7map_errNtCs9aJIYchcVbh_13data_encoding13DecodePartialNCINvBV_15decode_base_mutNtBV_2N3NtBV_2BtEs0_0EBV_
_RINvMNtCsiL7B6CFZHyD_4core6resultINtB3_6ResultxNtNtNtCs3NZLoJsOov_3std2io5error5ErrorE7map_errNtNtCs1yFw5o97rjX_6thrift6errors5ErrorNvYB1u_INtNtB5_7convert4FromBJ_E4fromEB1y_
_RINvMNtCsiL7B6CFZHyD_4core6resultINtB3_6ResultyNtNtNtB5_3num5error13ParseIntErrorE7map_errReNCNvMs6_NtNtCskN1Yzg5nTsb_11procfs_core3sys6kernelNtB1A_15SemaphoreLimits8from_strs1_0EB1E_
_RINvMNtCsjRWpUytRaxp_6chrono6offsetINtB3_11LocalResultNtNtB3_5fixed11FixedOffsetE8and_thenINtNtB5_8datetime8DateTimeBQ_ENCNvYBQ_NtB3_8TimeZone19from_local_datetime0EB5_
_RINvMNtCskt8TpxtZnof_4clap6errorsNtB3_5Error14too_few_valuesReEB5_
_RINvMNtCsnXVG1ei7nV_3mio9io_sourceINtB3_8IoSourceNtNtNtNtNtCs2FIVCi1Wrow_3std2os4unix3net6stream10UnixStreamE5do_ioNCNvXs1_NtNtNtB5_3net3uds6streamNtB1X_10UnixStreamNtNtBV_2io5Write14write_vectored0jEB5_
_RINvMNtNtCs1DT2mKzNIQv_4jiff5civil4dateNtB3_4Date11checked_addNtNtB7_15signed_duration14SignedDurationEB7_
_RINvMNtNtCs2GX3rYzX9NP_14regex_automata3dfa8remapperNtB3_8Remapper4swapNtNtB5_7onepass3DFAEB7_
_RINvMNtNtCs2X71yuh7ehP_12regex_syntax3ast7visitorNtB3_11HeapVisitor5visitINtNtB5_5print6WriterQNtNtCs5cYH0lLSdLc_4core3fmt9FormatterEEB7_
_RINvMNtNtCs2e5lBM6agA0_3mio3sys4unixNtB3_13IoSourceState5do_ioNtNtNtNtNtCs3NZLoJsOov_3std2os4unix3net6stream10UnixStreamNCNvXs2_NtNtNtB7_3net3uds6streamRNtB22_10UnixStreamNtNtB18_2io5Write14write_vectored0jEB7_
_RINvMNtNtCs2xTbhAl9gLb_3mio3sys4unixNtB3_13IoSourceState5do_ioNtNtNtNtNtCs3NZLoJsOov_3std2os4unix3net6stream10UnixStreamNCNvXs2_NtNtNtB7_3net3uds6streamRNtB22_10UnixStreamNtNtB18_2io5Write5flush0uEB7_
_RINvMNtNtCs39k8jHxWV8Y_3der4asn13anyNtB3_6AnyRef9decode_asNtNtB5_15videotex_string17VideotexStringRefEB7_
_RINvMNtNtCs3NZLoJsOov_3std4sync9once_lockINtB3_8OnceLockINtNtCshgx866xcH9W_5alloc4sync3ArcNtCsi6pTmhHIU5M_9clang_sys13SharedLibraryEE11get_or_initNCNvCs20txnxQ5U84_7bindgen25ensure_libclang_is_loaded0EB2o_
_RINvMNtNtCs57lu83pa5Ym_4jiff5civil4dateNtB3_4Date11checked_addNtNtB7_4span4SpanEB7_
_RINvMNtNtCs6JGgWY6YaLc_6procfs7process4taskNtB3_4Task4readReNtNtCskN1Yzg5nTsb_11procfs_core7process2IoEB7_
_RINvMNtNtCs6nv0K25L1YS_14regex_automata4util9prefilterNtB3_9Prefilter16from_hirs_prefixRNtNtCs9XN0b3DABn9_12regex_syntax3hir3HirEB7_
_RINvMNtNtCs9XN0b3DABn9_12regex_syntax3ast5parseNtB3_9Primitive19into_class_set_itemQNtB3_6ParserEB7_
_RINvMNtNtCs9uh8emyyfsF_14regex_automata4util9prefilterNtB3_9Prefilter16from_hirs_prefixRNtNtCshpKpake7nJI_12regex_syntax3hir3HirEB7_
_RINvMNtNtCsaWmuPV6hRxo_12sharded_slab4page5stackNtB3_13TransferStack4pushNCINvXs_B3_BK_INtB5_8FreeListNtNtB7_3cfg13DefaultConfigE4pushNtNtNtCs9vszGGFNfUy_18tracing_subscriber8registry7sharded9DataInnerE0EB2e_
_RINvMNtNtCseZiuHO0vNIu_3scc10hash_table6bucketINtB3_6BucketNtNtCshgx866xcH9W_5alloc6string6StringNtNtCs6MfJgXaOnUR_11serial_test9code_lock20UniqueReentrantMutexuKc53_E17insert_entry_withNCINvYINtNtB7_8hash_map7HashMapBV_B1x_EINtB5_9HashTableBV_B1x_NtNtNtNtCs3NZLoJsOov_3std11collections4hash3map11RandomStateuKB2A_E15relocate_bucketeuKb0_E0Kj8_EB1B_
_RINvMNtNtCsfcZx8z6uiNH_14regex_automata4util9prefilterNtB3_9Prefilter3newNtNtNtCsjh4mrTFEWVx_12regex_syntax3hir7literal7LiteralEB7_
_RINvMNtNtCshFvNZPQTJhs_9async_std4task7builderNtB3_7Builder5buildINtNtCslAj3ugQP8Tn_10async_task4task4TaskuEuEB7_
_RINvMNtNtCsiL7B6CFZHyD_4core4task4pollINtB3_4PollINtNtB7_6result6ResultINtNtNtCshFvNZPQTJhs_9async_std2fs4file9LockGuardNtB1a_5StateENtNtNtCs3NZLoJsOov_3std2io5error5ErrorEE3mapIBM_uB27_ENCNvXs4_B1a_RNtB1a_4FileNtNtCslG5yY4CbCNy_10futures_io6if_std10AsyncWrite10poll_flush0EB1e_
_RINvMNtNtCsiL7B6CFZHyD_4core5alloc6layoutNtB3_6Layout13for_value_rawINtNtCshgx866xcH9W_5alloc4sync8ArcInnerDNtNtNtCsc9MEfsw61gC_12aho_corasick4util9prefilter10PrefilterIEL_EEB1O_
_RINvMNtNtCsiL7B6CFZHyD_4core5alloc6layoutNtB3_6Layout13for_value_rawINtNtCshgx866xcH9W_5alloc4sync8ArcInnerINtNtNtCs3NZLoJsOov_3std4sync5mutex5MutexDNtNtCs1dEy6nitbLR_7console4term9TermWriteEL_EEEB2r_
_RINvMNtNtCsiL7B6CFZHyD_4core5alloc6layoutNtB3_6Layout13for_value_rawINtNtCshgx866xcH9W_5alloc4sync8ArcInnerINtNtNtCslBVC6wF8Bgr_5tokio4sync7oneshot6SenderuEEEB1O_
_RINvMNtNtCsiL7B6CFZHyD_4core5alloc6layoutNtB3_6Layout13for_value_rawINtNtCshgx866xcH9W_5alloc4sync8ArcInnerNtNtB19_6string6StringEECshFvNZPQTJhs_9async_std
_RINvMNtNtCsiL7B6CFZHyD_4core5alloc6layoutNtB3_6Layout13for_value_rawINtNtCshgx866xcH9W_5alloc4sync8ArcInnerNtNtCs73ztbjO6fBx_6ignore9overrides8OverrideEEB1L_
_RINvMNtNtCsiL7B6CFZHyD_4core5alloc6layoutNtB3_6Layout13for_value_rawINtNtCshgx866xcH9W_5alloc4sync8ArcInnerNtNtNtCs3NZLoJsOov_3std6thread6scoped9ScopeDataEECs7ZKA17RSOQe_6quanta
_RINvMNtNtCsiL7B6CFZHyD_4core5alloc6layoutNtB3_6Layout13for_value_rawINtNtCshgx866xcH9W_5alloc4sync8ArcInnerNtNtNtNtCs2GX3rYzX9NP_14regex_automata3nfa8thompson3nfa5InnerEEB1P_
_RINvMNtNtCsiL7B6CFZHyD_4core5alloc6layoutNtB3_6Layout13for_value_rawINtNtCshgx866xcH9W_5alloc4sync8ArcInnerSNtNtB19_6string6StringEECscZCgdd1uAPc_5regex
_RINvMNtNtCsj5CQOIyK9s_16rustls_pki_types11server_name6parserNtB3_6Parser15read_atomicallyNtB5_8Ipv6AddrNCNvB2_14read_ipv6_addr0EB7_
_RINvMNtNtCsjRWpUytRaxp_6chrono6format10formattingINtB3_13DelayedFormatINtNtNtCs5cYH0lLSdLc_4core5array4iter8IntoIterRNtB5_4ItemKj1_EE12format_fixedNtNtCsaz9ix1H7t6h_5alloc6string6StringEB7_
_RINvMNtNtCskt8TpxtZnof_4clap11completions6elvishNtB3_9ElvishGen11generate_toNtNtCs3NZLoJsOov_3std2fs4FileEB7_
_RINvMNtNtCslWI3VPFq81_12regex_syntax3ast7visitorNtB3_11HeapVisitor15visit_class_preINtNtB5_5print6WriterQNtNtCsiL7B6CFZHyD_4core3fmt9FormatterEEB7_
_RINvMNtNtNtCs2GX3rYzX9NP_14regex_automata3nfa8thompson10range_trieNtB3_9RangeTrie4iterNtNtB5_5error10BuildErrorNCNvMs2_NtB5_8compilerNtB1T_8Compiler15c_unicode_class0EB9_
_RINvMNtNtNtCs39k8jHxWV8Y_3der4asn13any10allocatingNtB3_3Any9decode_asNtNtB7_10ia5_string12Ia5StringRefEB9_
_RINvMNtNtNtCs3NZLoJsOov_3std4sync4mpmc7counterINtB3_6SenderINtNtB5_4list7ChannelINtNtCshgx866xcH9W_5alloc5boxed3BoxDNtCsbudUTgWQKts_10threadpool5FnBoxNtNtCsiL7B6CFZHyD_4core6marker4SendEL_EEE7releaseNCNvXs4_B5_INtB5_6SenderB1g_ENtNtNtB2s_3ops4drop4Drop4drops_0EB1S_
_RINvMNtNtNtCs57lu83pa5Ym_4jiff3fmt8temporal7printerNtB3_15DateTimePrinter10print_zuluQINtB7_11StdFmtWriteQNtNtCs5cYH0lLSdLc_4core3fmt9FormatterEEB9_
_RINvMNtNtNtCs8tYJmzWdmkM_3mio3sys4unix19stateless_io_sourceNtB3_13IoSourceState5do_ioNtNtCs3NZLoJsOov_3std2fs4FileNCNvXs9_NtB5_4pipeRNtB1W_8ReceiverNtNtB1p_2io4Read4read0jEB9_
_RINvMNtNtNtCs9uh8emyyfsF_14regex_automata4util9prefilter6memchrNtB3_6Memchr3newRShEB9_
_RINvMNtNtNtCsaCO2qWNJEWF_9icu_locid10extensions9transform6fieldsNtB3_6Fields19for_each_subtag_strNtNtCs5cYH0lLSdLc_4core7convert10InfallibleNCNvXsf_NtB9_6localeNtB2m_6LocaleNtCse2m2UGz0brZ_9writeable9Writeable21writeable_length_hint0EB9_
_RINvMNtNtNtCscepARLWIjoM_3mio3sys4unix19stateless_io_sourceNtB3_13IoSourceState5do_ioNtNtNtCs3NZLoJsOov_3std3net3udp9UdpSocketNCNvMNtNtB9_3net3udpNtB25_9UdpSocket4send0jEB9_
_RINvMNtNtNtCsfuTXiacoSai_15trust_dns_proto9serialize6binary7encoderNtB3_10BinEncoder19emit_character_dataRNtNtCshgx866xcH9W_5alloc6string6StringEB9_
_RINvMNtNtNtCsfuTXiacoSai_15trust_dns_proto9serialize6binary8restrictINtB3_8RestricttE3mapjNCNvXs4_NtNtNtB9_2rr5rdata5sshfpNtB1y_5SSHFPNtB1C_19RecordDataDecodable9read_data0EB9_
_RINvMNtNtNtCshgx866xcH9W_5alloc11collections5btree4nodeINtB3_8LeafNodeNtNtNtCs20txnxQ5U84_7bindgen2ir7context6ItemIdB16_E3newNtNtB9_5alloc6GlobalEB1c_
_RINvMNtNtNtCsk9QERyUqk6O_5tokio4loom3std11unsafe_cellINtB3_10UnsafeCellINtNtCsiL7B6CFZHyD_4core6option6OptionINtNtNtB1c_3ptr8non_null7NonNullNtNtNtNtB9_7runtime4task4core6HeaderEEE4withB17_NCNvNtB2j_6inject8get_next0EB9_
_RINvMNtNtNtCsk9QERyUqk6O_5tokio4loom3std11unsafe_cellINtB3_10UnsafeCellINtNtNtNtB9_7runtime4task4core5StageINtNtCsiL7B6CFZHyD_4core3pin3PinINtNtCshgx866xcH9W_5alloc5boxed3BoxINtNtNtCsfuTXiacoSai_15trust_dns_proto4xfer12dns_exchange21DnsExchangeBackgroundINtNtNtB2T_3udp17udp_client_stream15UdpClientStreamNtNtNtB9_3net3udp9UdpSocketENtB2T_9TokioTimeEEEEE8with_mutINtNtB1M_6result6ResultIB5Q_uNtNtB2T_5error10ProtoErrorENtNtB1c_5error9JoinErrorENCNvMs4_B1a_INtB1a_4CoreB1H_INtNtB2i_4sync3ArcNtNtNtNtB1e_9scheduler12multi_thread6handle6HandleEE11take_output0ECshfZdcOEXVna_18trust_dns_resolver
_RINvMNtNtNtCsk9QERyUqk6O_5tokio4loom3std11unsafe_cellINtB3_10UnsafeCellNtNtNtB9_4util17idle_notified_set4ListE8with_mutuNCINvB19_16move_to_new_listINtNtNtNtB9_7runtime4task4join10JoinHandleINtNtCsiL7B6CFZHyD_4core6result6ResultuNtNtCsfuTXiacoSai_15trust_dns_proto5error10ProtoErrorEEE0ECshfZdcOEXVna_18trust_dns_resolver
_RINvMNtNtNtNtCs1kcHt6UhOcT_3mio3sys4unix8selector19stateless_io_sourceNtB3_13IoSourceState5do_ioNtNtNtCs3NZLoJsOov_3std3net3tcp9TcpStreamNCNvXs0_NtNtNtBb_3net3tcp6streamRNtB2j_9TcpStreamNtNtB1C_2io4Read4read0jEBb_
_RINvMNtNtNtNtCs3NZLoJsOov_3std2io8buffered9bufreader6bufferNtB3_6Buffer8fill_bufQNtNtBb_2fs4FileECscnXTRSNDF9a_7console
_RINvMNtNtNtNtCs3NZLoJsOov_3std3sys6common12thread_local4lazyINtB3_12LazyKeyInnerINtNtCsiL7B6CFZHyD_4core4cell4CellTyyEEE10initializeNCNvNvNvMs1i_NtNtNtBb_11collections4hash3mapNtB2j_11RandomState3new4KEYS7___getit0ECs91GDN4qvfiu_7similar
_RINvMNtNtNtNtCs3NZLoJsOov_3std3sys6common12thread_local4lazyINtB3_12LazyKeyInnerINtNtCsiL7B6CFZHyD_4core4cell7RefCellTNtCs6Rpbmm5Qxkn_7parking6ParkerNtNtNtB1l_4task4wake5WakerEEE10initializeNCNvNvNvNtCs8j1DbKQIYX5_12futures_lite6future8block_on5CACHE7___getit0EB3c_
_RINvMNtNtNtNtCs3NZLoJsOov_3std3sys6common12thread_local4lazyINtB3_12LazyKeyInnerjE10initializeNCNvNvNtNtNtCs9uh8emyyfsF_14regex_automata4util4pool5inner9THREAD_ID7___getit0EB1G_
_RINvMNtNtNtNtCs5cYH0lLSdLc_4core5slice4sort6stable5mergeINtB3_10MergeStateThcEE10merge_downNCINvMNtCsaz9ix1H7t6h_5alloc5sliceSB1a_11sort_by_keyhNCNvMs_NtCs4aqTVz2Zcos_21unicode_normalization9decomposeINtB2p_14DecompositionsINtCsfyw2tT9gDT3_12idna_mapping6MapperNtCs4ysCYVL1rYf_9utf8_iter9Utf8CharsEE12sort_pending0E0ECsaMSDOvq7TeD_4idna
_RINvMNtNtNtNtCsnXVG1ei7nV_3mio3sys4unix8selector19stateless_io_sourceNtB3_13IoSourceState5do_ioNtNtNtCs2FIVCi1Wrow_3std3net3tcp9TcpStreamNCNvXs2_NtNtNtBb_3net3tcp6streamRNtB2j_9TcpStreamNtNtB1B_2io5Write5flush0uEBb_
_RINvMNvNtNtCsiL7B6CFZHyD_4core5slice4sort10merge_sortINtB3_8BufGuardNtNtCs1VYxpr1ArYB_6object4read6SymbolNCINvNtCshgx866xcH9W_5alloc5slice11stable_sortB14_NCINvMB1K_SB14_11sort_by_keyyNCNvXs0_NtNtB16_4coff4fileNtB34_8CoffFileNtNtB16_6traits6Object10symbol_maps_0E0Es_0E3newNCB1H_0EB18_
_RINvMNvNtNtCsiL7B6CFZHyD_4core5slice4sort10merge_sortINtB3_8BufGuardNtNtNtCsc9MEfsw61gC_12aho_corasick4util10primitives9PatternIDNCINvNtCshgx866xcH9W_5alloc5slice11stable_sortB14_NvYB14_NtNtB9_3cmp10PartialOrd2ltEs_0E3newNCB25_0EB1a_
_RINvMs0_Cs9KxnAWPj46c_8fastrandNtB6_3Rng3u32NtNtNtCs5cYH0lLSdLc_4core3ops5range9RangeFullEB6_
_RINvMs0_NtCs20txnxQ5U84_7bindgen5clangNtB6_6Cursor5visitNCNvNvB2_34is_dependent_on_template_parameter7visitor0EB8_
_RINvMs0_NtCs5cYH0lLSdLc_4core3fmtNtB6_9Arguments6new_v1Kj1_KBS_ECs5ItCYwkLUWx_15crossbeam_utils
_RINvMs0_NtCs5cYH0lLSdLc_4core3fmtNtB6_9Arguments6new_v1Kj1_KBS_ECsklrsHkSKNs_7anstyle
_RINvMs0_NtCs5cYH0lLSdLc_4core3fmtNtB6_9Arguments6new_v1Kj2_KBS_ECs9nCsezDqTf4_12regex_syntax
_RINvMs0_NtCs5cYH0lLSdLc_4core3fmtNtB6_9Arguments6new_v1Kj2_Kj1_ECs9nCsezDqTf4_12regex_syntax
_RINvMs0_NtCs5cYH0lLSdLc_4core3fmtNtB6_9Arguments6new_v1Kj3_Kj2_ECs3xBtNxWzGYw_10serde_core
_RINvMs0_NtCs5cYH0lLSdLc_4core3fmtNtB6_9Arguments6new_v1Kj5_Kj4_ECs2X71yuh7ehP_12regex_syntax
_RINvMs0_NtCs5cYH0lLSdLc_4core3fmtNtB6_9Arguments9new_constKj1_ECs9okOORQVQBp_11parking_lot
_RINvMs0_NtCs5cYH0lLSdLc_4core3fmtNtB6_9Arguments9new_constKj1_ECslonMRKGuc9M_13toml_datetime
_RINvMs0_NtCsc2NukElDoJR_4yoke4yokeINtB6_4YokeRShINtNtCsaz9ix1H7t6h_5alloc2rc2RcINtNtBP_5boxed3BoxBI_EEE12replace_cartINtNtCs5cYH0lLSdLc_4core6option6OptionBK_ENcNtB1R_4Some0ECskmSJBJCpqyY_12icu_provider
_RINvMs0_NtCshK2h5RPyNs1_9hashbrown3rawNtB6_11TableLayout3newTINtNtCshgx866xcH9W_5alloc3vec3VechEIBY_TjNtNtNtCs8u8Bt1oxYji_14regex_automata4meta5regex5RegexEEEECs9zsKVhFsf47_7globset
_RINvMs0_NtCshK2h5RPyNs1_9hashbrown3rawNtB6_11TableLayout3newTNtNtCshgx866xcH9W_5alloc6string6StringNtNtCs73ztbjO6fBx_6ignore5types11FileTypeDefEEB1D_
_RINvMs0_NtCshK2h5RPyNs1_9hashbrown3rawNtB6_11TableLayout3newTNtNtNtCsfcdQbM8XNhc_7asn1_rs10asn1_types3oid3OidReEECsi1PQLdatSvq_11x509_parser
_RINvMs0_NtCshgx866xcH9W_5alloc3vecINtB6_3VectE18extend_from_withinINtNtNtCsiL7B6CFZHyD_4core3ops5range9RangeFromjEECs2EzG6rTAlYY_8fdeflate
_RINvMs0_NtNtCs23yxf7uxwGf_12regex_syntax3hir8intervalINtB6_11IntervalSetNtB8_17ClassUnicodeRangeE3newINtNtCshgx866xcH9W_5alloc3vec3VecB18_EEBa_
_RINvMs0_NtNtCs2mAb9LCDQQz_12regex_syntax3hir8intervalINtB6_11IntervalSetNtB8_15ClassBytesRangeE3newINtNtNtNtCs5cYH0lLSdLc_4core4iter8adapters3map3MapINtNtNtB1I_5slice4iter4IterNtB8_17ClassUnicodeRangeENCNvMsa_B8_NtB8_12ClassUnicode13to_byte_class0EEBa_
_RINvMs0_NtNtCs3NZLoJsOov_3std4sync4onceNtB6_4Once9call_onceNCINvMNtCsdamGOEbtzr1_11lazy_static4lazyINtB11_4LazyNtNtCsg6ZIQJj5H2g_10num_bigint7biguint7BigUintE3getNvNvXs2_NtCs1LXaP1XB7C1_8fraction7genericNtB2I_5__1_BUNtNtNtCsiL7B6CFZHyD_4core3ops5deref5Deref5deref23___static_ref_initializeE0EB2K_
_RINvMs0_NtNtCs5Ng0wM7PJ5I_12regex_syntax3hir5printNtB6_7Printer5printQNtNtCsiL7B6CFZHyD_4core3fmt9FormatterEBa_
_RINvMs0_NtNtCs6nv0K25L1YS_14regex_automata4util9prefilterNtB6_6Choice3newRShEBa_
_RINvMs0_NtNtCs9noQX08EQGk_10libloading2os4unixNtB6_7Library3newRNtNtCs3NZLoJsOov_3std4path7PathBufECsi6pTmhHIU5M_9clang_sys
_RINvMs0_NtNtCs9noQX08EQGk_10libloading2os4unixNtB6_7Library8get_implINtNtCsiL7B6CFZHyD_4core6option6OptionFUKCNtCsi6pTmhHIU5M_9clang_sys8CXCursorOPaB2j_OmB2q_B2q_B2q_EuENCINvB2_18get_singlethreadedB14_E0EB1M_
_RINvMs0_NtNtCs9noQX08EQGk_10libloading2os4unixNtB6_7Library8get_implINtNtCsiL7B6CFZHyD_4core6option6OptionFUKCONtNtB19_3ffi6c_voidEPaENCINvB2_18get_singlethreadedB14_E0ECsi6pTmhHIU5M_9clang_sys
_RINvMs0_NtNtCs9noQX08EQGk_10libloading2os4unixNtB6_7Library8get_implINtNtCsiL7B6CFZHyD_4core6option6OptionFUKCPNtCsi6pTmhHIU5M_9clang_sys18CXIdxContainerInfoONtNtB19_3ffi6c_voidEuENCINvB2_18get_singlethreadedB14_E0EB1N_
_RINvMs0_NtNtCsc4gMlinqfBn_3log2kv5valueNtB6_5Value14from_value_baguEBa_
_RINvMs0_NtNtCsiL7B6CFZHyD_4core3ops5rangeINtB6_5RangemE8containsmECs16toIqv7aHG_10num_bigint
_RINvMs0_NtNtCsl1kjXE5Fkqe_6miette8handlers10narratableNtB6_23NarratableReportHandler13render_headerNtNtCsiL7B6CFZHyD_4core3fmt9FormatterEBa_
_RINvMs0_NtNtNtCs2FIVCi1Wrow_3std11collections4hash3mapINtB6_7HashMapNtNtBc_6thread8ThreadIdjE6removeB14_ECs8ysq7zN6jSI_15crossbeam_utils
_RINvMs0_NtNtNtCs2WU2hRDnNVz_5tokio7runtime2io12registrationNtB6_12Registration28new_with_interest_and_handleNtNtNtNtCsnXVG1ei7nV_3mio3sys4unix4pipe8ReceiverEBc_
_RINvMs0_NtNtNtCs2WU2hRDnNVz_5tokio7runtime2io6driverNtB6_6Handle17deregister_sourceNtNtNtNtCsnXVG1ei7nV_3mio3net3uds8listener12UnixListenerEBc_
_RINvMs0_NtNtNtCs3NZLoJsOov_3std10sys_common4once5futexNtB6_4Once4callNCINvMs0_NtNtBc_4sync4onceNtB1e_4Once9call_onceNCNvNtNtCslIjNMLs0yCi_4rand2os3imp22is_getrandom_available0E0EB1Y_
_RINvMs0_NtNtNtCs3NZLoJsOov_3std11collections4hash3mapINtB6_7HashMapNtNtCsC7QMccVbR7_12tracing_core5field5FieldTNtNtNtNtCs9vszGGFNfUy_18tracing_subscriber6filter3env5field10ValueMatchNtNtNtCsiL7B6CFZHyD_4core4sync6atomic10AtomicBoolEE3getB13_EB1T_
_RINvMs0_NtNtNtCs3NZLoJsOov_3std11collections4hash3mapINtB6_7HashMapNtNtNtCs20txnxQ5U84_7bindgen2ir7context6ItemIdNtNtNtB17_8analysis10has_vtable15HasVtableResultNtCsjt6QawPyDY5_10rustc_hash13FxBuildHasherE3getB13_EB19_
_RINvMs0_NtNtNtCs3NZLoJsOov_3std11collections4hash3setINtB6_7HashSetNtNtCshgx866xcH9W_5alloc6string6StringNtCsjt6QawPyDY5_10rustc_hash13FxBuildHasherE8containsB13_ECs20txnxQ5U84_7bindgen
_RINvMs0_NtNtNtCs4USifnV5z1l_5tokio7runtime2io12registrationNtB6_12Registration6try_iojNCNvMNtNtNtNtBc_3net4unix8datagram6socketNtB1r_12UnixDatagram8try_send0EBc_
_RINvMs0_NtNtNtCsaz9ix1H7t6h_5alloc11collections5btree6removeINtNtB8_4node6HandleINtBZ_7NodeRefNtNtBZ_6marker3MutNtNtNtCs6nv0K25L1YS_14regex_automata4util10primitives7StateIDNtNtNtB1S_3dfa5accel5AccelNtB1w_8InternalENtB1w_2KVE18remove_internal_kvNCNvMs7_NtNtB8_3map5entryINtB43_13OccupiedEntryB1M_B2L_E9remove_kv0NtNtBc_5alloc6GlobalEB1S_
_RINvMs0_NtNtNtCshgx866xcH9W_5alloc11collections5btree6searchINtNtB8_4node7NodeRefNtNtBZ_6marker3MutINtNtBc_4sync3ArceENtNtNtCsfcZx8z6uiNH_14regex_automata4util10primitives10SmallIndexNtB1j_14LeafOrInternalE11search_nodeB1z_EB1Y_
_RINvMs0_NtNtNtCshgx866xcH9W_5alloc11collections5btree6searchINtNtB8_4node7NodeRefNtNtBZ_6marker3MutNtNtNtCs89pdyz7HZkL_12aho_corasick4util10primitives7StateIDNtNtB8_7set_val9SetValZSTNtB1j_14LeafOrInternalE11search_nodeB1z_EB1F_
_RINvMs0_NtNtNtCshgx866xcH9W_5alloc11collections5btree6searchINtNtB8_4node7NodeRefNtNtBZ_6marker5ImmutINtNtBc_5boxed3BoxShEjNtB1j_14LeafOrInternalE14find_key_indexB1B_ECsc9MEfsw61gC_12aho_corasick
_RINvMs0_NtNtNtCshgx866xcH9W_5alloc11collections5btree6searchINtNtB8_4node7NodeRefNtNtBZ_6marker5ImmutTjjEmNtB1j_14LeafOrInternalE14find_key_indexB1B_ECsfjsGG03OZM8_7similar
_RINvMs0_NtNtNtCsk9QERyUqk6O_5tokio7runtime2io12registrationNtB6_12Registration6try_iojNCNvMNtNtNtBc_3net3tcp6streamNtB1r_9TcpStream8try_read0EBc_
_RINvMs0_NtNtNtCslBVC6wF8Bgr_5tokio7runtime2io12registrationNtB6_12Registration28new_with_interest_and_handleNtNtNtNtCscepARLWIjoM_3mio3net3tcp6stream9TcpStreamEBc_
_RINvMs0_NtNtNtCslBVC6wF8Bgr_5tokio7runtime2io6driverNtB6_6Handle17deregister_sourceNtNtNtNtCscepARLWIjoM_3mio3net3tcp6stream9TcpStreamEBc_
_RINvMs0_NtNtNtNtCs2FIVCi1Wrow_3std3sys12thread_local6native4lazyINtB6_7StorageINtNtCs5cYH0lLSdLc_4core4cell7RefCellINtNtB1j_6option6OptionNtNtNtNtCsjRWpUytRaxp_6chrono6offset5local5inner5CacheEEuE10initializeNvNvB2e_7TZ_INFO6___initEB2k_
_RINvMs0_NtNtNtNtCs2FIVCi1Wrow_3std3sys4sync4once5futexNtB6_4Once4callNCINvMs0_NtNtBe_4sync4onceNtB1e_4Once15call_once_forceNCINvMNtB1g_9once_lockINtB23_8OnceLockNtNtNtCs57lu83pa5Ym_4jiff2tz2db16TimeZoneDatabaseE10initializeNCINvB22_11get_or_initNCNvB2B_2db0E0zE0E0EB2F_
_RINvMs10_NtNtNtCsaz9ix1H7t6h_5alloc11collections5btree4nodeINtB7_16BalancingContextNtNtNtCs6nv0K25L1YS_14regex_automata4util10primitives7StateIDNtNtB9_7set_val9SetValZSTE25merge_tracking_child_edgeNtNtBd_5alloc6GlobalEB1p_
_RINvMs10_NtNtNtCshgx866xcH9W_5alloc11collections5btree4nodeINtB7_16BalancingContextTNtNtCs3NZLoJsOov_3std4time7InstantjENtNtNtCsiL7B6CFZHyD_4core4task4wake5WakerE8do_mergeNCINvB2_21merge_tracking_parentNtNtBd_5alloc6GlobalE0INtB7_7NodeRefNtNtB7_6marker3MutB1j_B1U_NtB3Q_8InternalEB3e_ECsiOHhwSMIjMZ_8async_io
_RINvMs1_Cs4TgSHYTQ7no_9serde_fmtNtB6_9Formatter3fmtaEB6_
_RINvMs1_CsEKc5EUc8ON_4itoaNtB6_6Buffer6formattECskTUq6jwe4oO_4http
_RINvMs1_Csj5rtVP85LtC_4itoaNtB6_6Buffer6formathECs3paU50YnTHN_10serde_json
_RINvMs1_NtCs2P2SgBKwLCl_7difflib15sequencematcherINtB6_15SequenceMatcherReE14set_second_seqSB18_EB8_
_RINvMs1_NtCs6JGgWY6YaLc_6procfs7processNtB6_7Process4readReNtNtNtCskN1Yzg5nTsb_11procfs_core7process5mount10MountStatsEB8_
_RINvMs1_NtCscepARLWIjoM_3mio4pollNtB6_8Registry8registerNtNtNtNtB8_3net3uds8listener12UnixListenerECslBVC6wF8Bgr_5tokio
_RINvMs1_NtCshK2h5RPyNs1_9hashbrown3mapINtB6_7HashMapINtNtCshgx866xcH9W_5alloc3vec3VechEIBP_jEINtNtCsiL7B6CFZHyD_4core4hash18BuildHasherDefaultNtNtCs9zsKVhFsf47_7globset3fnv6HasherEE9get_innerShEB2k_
_RINvMs1_NtCshK2h5RPyNs1_9hashbrown3mapINtB6_7HashMapNtNtCshgx866xcH9W_5alloc6string6StringINtNtBS_3vec3VecNtNtCseJ4fYN2mE0W_14parse_zoneinfo5table8ZoneInfoENtNtNtNtCs3NZLoJsOov_3std11collections4hash3map11RandomStateE12contains_keyeEB1K_
_RINvMs1_NtCshK2h5RPyNs1_9hashbrown3mapINtB6_7HashMapNtNtCsiL7B6CFZHyD_4core3any6TypeIdINtNtCshgx866xcH9W_5alloc5boxed3BoxDNtBQ_3AnyNtNtBS_6marker4SendNtB27_4SyncEL_EINtNtBS_4hash18BuildHasherDefaultNtNtNtCs1XKReJ1SRGG_18tracing_subscriber8registry10extensions8IdHasherEE7get_mutBO_EB3g_
_RINvMs1_NtCshK2h5RPyNs1_9hashbrown3mapINtB6_7HashMapRShhNtNtNtNtCs3NZLoJsOov_3std11collections4hash3map11RandomStateE9get_innerBP_ECs2pCiphAJ0IO_8ucd_trie
_RINvMs1_NtCsiL7B6CFZHyD_4core3fmtNtB6_10ArgumentV110new_binaryjECs1XKReJ1SRGG_18tracing_subscriber
_RINvMs1_NtCsiL7B6CFZHyD_4core3fmtNtB6_10ArgumentV111new_displayINtNtCshgx866xcH9W_5alloc4sync3ArceEECsbPHw0ZMlxUx_2cc
_RINvMs1_NtCsiL7B6CFZHyD_4core3fmtNtB6_10ArgumentV111new_displayNtB6_9ArgumentsECs4rHto5i1Wx6_10regex_lite
_RINvMs1_NtCsiL7B6CFZHyD_4core3fmtNtB6_10ArgumentV111new_displayNtB6_9ArgumentsECslAj3ugQP8Tn_10async_task
_RINvMs1_NtCsiL7B6CFZHyD_4core3fmtNtB6_10ArgumentV111new_displayNtNtCs3NZLoJsOov_3std4path7DisplayECsbPHw0ZMlxUx_2cc
_RINvMs1_NtCsiL7B6CFZHyD_4core3fmtNtB6_10ArgumentV111new_displayNtNtCs9PwDbklJZ2W_9rand_core5error5ErrorEB13_
_RINvMs1_NtCsiL7B6CFZHyD_4core3fmtNtB6_10ArgumentV111new_displayNtNtCshgx866xcH9W_5alloc6string6StringECs1aRIWDSuTWO_16rusticata_macros
_RINvMs1_NtCsiL7B6CFZHyD_4core3fmtNtB6_10ArgumentV111new_displayNtNtCsi7ON7NXDZEJ_9ansi_term4ansi6PrefixEB13_
_RINvMs1_NtCsiL7B6CFZHyD_4core3fmtNtB6_10ArgumentV111new_displayNtNtNtB8_3str5error9Utf8ErrorECskTUq6jwe4oO_4http
_RINvMs1_NtCsiL7B6CFZHyD_4core3fmtNtB6_10ArgumentV111new_displayNtNtNtCsfuTXiacoSai_15trust_dns_proto2op13response_code12ResponseCodeEB15_
_RINvMs1_NtCsiL7B6CFZHyD_4core3fmtNtB6_10ArgumentV111new_displayRDNtNtB8_5error5ErrorEL_ECsj40W3ef8J8f_12tracing_core
_RINvMs1_NtCsiL7B6CFZHyD_4core3fmtNtB6_10ArgumentV111new_displayRNtCsgMKgB7mnEUJ_11proc_macro211TokenStreamECs19S8JT9Sa42_12prettyplease
_RINvMs1_NtCsiL7B6CFZHyD_4core3fmtNtB6_10ArgumentV111new_displayRNtNtCs9Jxb9KRkNHT_19serde_path_to_error4path7SegmentEB14_
_RINvMs1_NtCsiL7B6CFZHyD_4core3fmtNtB6_10ArgumentV111new_displayRNtNtCshgx866xcH9W_5alloc6string6StringECsawcWWsOYByR_8bitflags
_RINvMs1_NtCsiL7B6CFZHyD_4core3fmtNtB6_10ArgumentV111new_displayRNtNtNtB8_3num7nonzero10NonZeroI32ECsjRm39slFFFQ_10tower_http
_RINvMs1_NtCsiL7B6CFZHyD_4core3fmtNtB6_10ArgumentV111new_displayRNtNtNtCs9uh8emyyfsF_14regex_automata4util10primitives12StateIDErrorEB16_
_RINvMs1_NtCsiL7B6CFZHyD_4core3fmtNtB6_10ArgumentV111new_displayRNtNtNtNtCsfuTXiacoSai_15trust_dns_proto2rr5rdata4svcb13SvcParamValueEB18_
_RINvMs1_NtCsiL7B6CFZHyD_4core3fmtNtB6_10ArgumentV111new_displayRReECshwKdUnaDEX_5serde
_RINvMs1_NtCsiL7B6CFZHyD_4core3fmtNtB6_10ArgumentV111new_displayReECs5MsBAlmYmSD_4time
_RINvMs1_NtCsiL7B6CFZHyD_4core3fmtNtB6_10ArgumentV111new_displayReECsdFgnYT9J9Ql_15find_msvc_tools
_RINvMs1_NtCsiL7B6CFZHyD_4core3fmtNtB6_10ArgumentV111new_displayRhECs4NLopzIeNt3_9raw_cpuid
_RINvMs1_NtCsiL7B6CFZHyD_4core3fmtNtB6_10ArgumentV111new_displayRmECs4NLopzIeNt3_9raw_cpuid
_RINvMs1_NtCsiL7B6CFZHyD_4core3fmtNtB6_10ArgumentV111new_displaybECsjkF96kpyiNs_10hyper_util
_RINvMs1_NtCsiL7B6CFZHyD_4core3fmtNtB6_10ArgumentV111new_displaycECsh7umdSYiYjh_5bytes
_RINvMs1_NtCsiL7B6CFZHyD_4core3fmtNtB6_10ArgumentV111new_displayhECs5D3ymnTOYG0_12nu_ansi_term
_RINvMs1_NtCsiL7B6CFZHyD_4core3fmtNtB6_10ArgumentV111new_displayjECs2HqUbEmi8sP_10serde_core
_RINvMs1_NtCsiL7B6CFZHyD_4core3fmtNtB6_10ArgumentV111new_displayjECsb9Q8KQOzZcu_7parking
_RINvMs1_NtCsiL7B6CFZHyD_4core3fmtNtB6_10ArgumentV111new_displayjECskySff49RU91_10serde_core
_RINvMs1_NtCsiL7B6CFZHyD_4core3fmtNtB6_10ArgumentV111new_displaymECs1DT2mKzNIQv_4jiff
_RINvMs1_NtCsiL7B6CFZHyD_4core3fmtNtB6_10ArgumentV111new_displaymECsjh4mrTFEWVx_12regex_syntax
_RINvMs1_NtCsiL7B6CFZHyD_4core3fmtNtB6_10ArgumentV111new_displaytECsh4ySdynPyhh_5gimli
_RINvMs1_NtCsiL7B6CFZHyD_4core3fmtNtB6_10ArgumentV111new_displayyECsbHXshUE3PXC_10der_parser
_RINvMs1_NtCsiL7B6CFZHyD_4core3fmtNtB6_10ArgumentV111new_pointerRINtNtCshgx866xcH9W_5alloc4sync3ArcDNtNtCsdY0gPXVp8pd_12tracing_core10subscriber10SubscriberNtNtB8_6marker4SendNtB2v_4SyncEL_EEB1D_
_RINvMs1_NtCsiL7B6CFZHyD_4core3fmtNtB6_10ArgumentV113new_lower_hexRtECs6mVhnudWz0o_4term
_RINvMs1_NtCsiL7B6CFZHyD_4core3fmtNtB6_10ArgumentV113new_lower_hexjECsap6w5K7RPBy_3nom
_RINvMs1_NtCsiL7B6CFZHyD_4core3fmtNtB6_10ArgumentV113new_lower_hextECslc5DL33MxoQ_6rustix
_RINvMs1_NtCsiL7B6CFZHyD_4core3fmtNtB6_10ArgumentV113new_upper_hexlECs6mVhnudWz0o_4term
_RINvMs1_NtCsiL7B6CFZHyD_4core3fmtNtB6_10ArgumentV19new_debugINtNtB8_6result6ResultuNtNtCsoKynq7mBqg_4idna5uts466ErrorsEECsfuTXiacoSai_15trust_dns_proto
_RINvMs1_NtCsiL7B6CFZHyD_4core3fmtNtB6_10ArgumentV19new_debugINtNtNtCsaWmuPV6hRxo_12sharded_slab4page4slot9LifecycleNtNtB13_3cfg13DefaultConfigEECs9vszGGFNfUy_18tracing_subscriber
_RINvMs1_NtCsiL7B6CFZHyD_4core3fmtNtB6_10ArgumentV19new_debugNtNtCs5D3ymnTOYG0_12nu_ansi_term5style5ColorEB10_
_RINvMs1_NtCsiL7B6CFZHyD_4core3fmtNtB6_10ArgumentV19new_debugNtNtNtB8_4sync6atomic8OrderingECs1XKReJ1SRGG_18tracing_subscriber
_RINvMs1_NtCsiL7B6CFZHyD_4core3fmtNtB6_10ArgumentV19new_debugNtNtNtCs3NZLoJsOov_3std2io5error5ErrorECsk9QERyUqk6O_5tokio
_RINvMs1_NtCsiL7B6CFZHyD_4core3fmtNtB6_10ArgumentV19new_debugNtNtNtCsaWmuPV6hRxo_12sharded_slab4page4slot5StateECs9vszGGFNfUy_18tracing_subscriber
_RINvMs1_NtCsiL7B6CFZHyD_4core3fmtNtB6_10ArgumentV19new_debugNtNtNtNtCs4sdexCj5LDw_11tungstenite8protocol5frame5frame5FrameEB14_
_RINvMs1_NtCsiL7B6CFZHyD_4core3fmtNtB6_10ArgumentV19new_debugRNtCs2edW2HMpqw4_8bytemuck12PodCastErrorEBZ_
_RINvMs1_NtCsiL7B6CFZHyD_4core3fmtNtB6_10ArgumentV19new_debugRNtNtCs9A9JS0ryDJM_3nom5error9ErrorKindECsedCA7Tpfiji_7asn1_rs
_RINvMs1_NtCsiL7B6CFZHyD_4core3fmtNtB6_10ArgumentV19new_debugRNtNtCslWI3VPFq81_12regex_syntax3hir3HirECs8u8Bt1oxYji_14regex_automata
_RINvMs1_NtCsiL7B6CFZHyD_4core3fmtNtB6_10ArgumentV19new_debugRNtNtNtNtCs2UqitWCaGEJ_14regex_automata3nfa8thompson3nfa10TransitionEB15_
_RINvMs1_NtCsiL7B6CFZHyD_4core3fmtNtB6_10ArgumentV19new_debugRShECsbcYJleOmJGE_4utf8
_RINvMs1_NtCsiL7B6CFZHyD_4core3fmtNtB6_10ArgumentV19new_debugReECsgMKgB7mnEUJ_11proc_macro2
_RINvMs1_NtCsiL7B6CFZHyD_4core3fmtNtB6_10ArgumentV19new_debugRnECsT6kl2nhqj0_10phf_shared
_RINvMs1_NtCsiL7B6CFZHyD_4core3fmtNtB6_10ArgumentV19new_debugcECsgMKgB7mnEUJ_11proc_macro2
_RINvMs1_NtCsiL7B6CFZHyD_4core3fmtNtB6_10ArgumentV19new_debugyECs4USifnV5z1l_5tokio
_RINvMs1_NtCsl7d2h0H2YpO_3ron5parseNtB6_6Parser13parse_integerlEB8_
_RINvMs1_NtCslAj3ugQP8Tn_10async_task3rawINtB6_7RawTaskNCINvMs3_Cs7cHv9uWQ5Bd_14async_executorNtBZ_8Executor11spawn_innerTNtNtCs3NZLoJsOov_3std2fs7ReadDirINtNtCsiL7B6CFZHyD_4core6option6OptionINtNtB2w_6result6ResultNtB1X_8DirEntryNtNtNtB1Z_2io5error5ErrorEEEINtNtNtCshFvNZPQTJhs_9async_std4task7builder17SupportTaskLocalsINtNtB8_4task4TaskB1U_EEE0B1U_NCNvBV_8schedule0uE8allocateNCBS_s_0EB4e_
_RINvMs1_NtNtCs5cYH0lLSdLc_4core3ptr8non_nullINtB6_7NonNullINtNtNtNtCs2WU2hRDnNVz_5tokio7runtime4task4core4CellINtNtNtB11_8blocking4task12BlockingTaskINtNtCsaz9ix1H7t6h_5alloc5boxed3BoxNCNvXsh_NtNtB13_3net4addrTRetENtNtB34_6sealed17ToSocketAddrsPriv15to_socket_addrs0EENtNtB1P_8schedule16BlockingScheduleEE4castNtBX_6HeaderEB13_
_RINvMs1_NtNtCs9vszGGFNfUy_18tracing_subscriber8registry10extensionsNtB6_15ExtensionsInner6insertNtNtNtBa_3fmt9fmt_layer7TimingsEBa_
_RINvMs1_NtNtCsiL7B6CFZHyD_4core3ptr8non_nullINtB6_7NonNullINtNtCshgx866xcH9W_5alloc5boxed3BoxDNtNtCsl1kjXE5Fkqe_6miette8protocol10DiagnosticNtNtBa_6marker4SendNtB2g_4SyncEL_EE4castuEB1y_
_RINvMs1_NtNtCsiL7B6CFZHyD_4core3ptr8non_nullINtB6_7NonNullINtNtNtNtCslBVC6wF8Bgr_5tokio7runtime4task4core4CellINtNtNtB11_8blocking4task12BlockingTaskNCNvXs_NtNtB13_2io8blockingINtB2u_8BlockingNtNtNtCs3NZLoJsOov_3std2io5stdio6StderrENtNtB2w_11async_write10AsyncWrite10poll_flush0ENtNtB1P_8schedule16BlockingScheduleEE4castNtBX_6HeaderEB13_
_RINvMs1_NtNtCsiL7B6CFZHyD_4core3ptr8non_nullINtB6_7NonNullNtNtNtNtCsk9QERyUqk6O_5tokio7runtime4task4core6HeaderE4castINtBW_4CellINtNtBa_3pin3PinINtNtCshgx866xcH9W_5alloc5boxed3BoxINtNtNtCsfuTXiacoSai_15trust_dns_proto4xfer12dns_exchange21DnsExchangeBackgroundINtNtNtB2Y_3udp17udp_client_stream15UdpClientStreamNtNtNtB12_3net3udp9UdpSocketENtB2Y_9TokioTimeEEEINtNtB2n_4sync3ArcNtNtNtNtB10_9scheduler12multi_thread6handle6HandleEEECshfZdcOEXVna_18trust_dns_resolver
_RINvMs1_NtNtCsiL7B6CFZHyD_4core3ptr8non_nullINtB6_7NonNullhE4casthECslRAnOFuVxXM_14allocator_api2
_RINvMs1_NtNtNtCs2WU2hRDnNVz_5tokio7runtime9scheduler14current_threadNtB6_7Context5enteruNCNvB2_4parks_0EBc_
_RINvMs1_NtNtNtCs57lu83pa5Ym_4jiff3fmt8friendly7printerNtB6_11SpanPrinter14print_span_hmsINtBa_11StdFmtWriteQNtNtCs5cYH0lLSdLc_4core3fmt9FormatterEEBc_
_RINvMs1_NtNtNtCsk9QERyUqk6O_5tokio7runtime9scheduler14current_threadNtB6_7Context5enteruNCNvB2_4parks_0EBc_
_RINvMs24_NtCs6pPtoQt5gDw_10num_format7stringsNtB7_9NanString3newNtB7_6NanStrEB9_
_RINvMs2_NtCs4Ra6QXC7Q85_10widestring8ucstringNtB6_10U16CString17from_vec_truncateRStEB8_
_RINvMs2_NtCs57lu83pa5Ym_4jiff4spanNtB6_4Span14seconds_rangedINtNtNtB8_4util8rangeint4ri64Knn92f0eef600_Kn92f0eef600_EEB8_
_RINvMs2_NtCs5dWRGIcTDwp_4eyre3ptrINtB6_8OwnedPtrNtNtB8_5error9ErrorImplE4castIBK_INtNtB8_7wrapper12MessageErrorReEEEB8_
_RINvMs2_NtCsaWj61pWL7fm_12nu_ansi_term7displayNtNtB8_5style5Style5paintNtNtCshgx866xcH9W_5alloc6string6StringeEB8_
_RINvMs2_NtCsh5QXVqz78Je_10async_lock9once_cellINtB6_8OnceCellNtNtCsiOHhwSMIjMZ_8async_io7reactor7ReactorE18initialize_or_waitNtNtCsiL7B6CFZHyD_4core7convert10InfallibleINtNtNtB23_6future5ready5ReadyINtNtB23_6result6ResultBX_B1Z_EENCINvB2_24get_or_try_init_blockingB1Z_NCINvB2_20get_or_init_blockingNCNvMBZ_BX_3get0E0E0NtCs1R3DX8M9JAh_23event_listener_strategy8BlockingEB11_
_RINvMs2_NtCsj6GOjohWl9o_9once_cell3impINtB6_8OnceCellINtNtNtCs3NZLoJsOov_3std4sync5mutex5MutexINtNtNtNtCshgx866xcH9W_5alloc11collections5btree3map8BTreeMapNtNtB1D_6string6StringjEEE10initializeNCINvMs4_NtB8_4syncINtB3e_8OnceCellBP_E11get_or_initNCNvMs9_B3e_INtB3e_4LazyBP_E5force0E0NtNvMs4_B3e_IB3p_pE11get_or_init4VoidECskvdpLI7AOSZ_5insta
_RINvMs2_NtNtCs2FIVCi1Wrow_3std6thread5localINtB6_8LocalKeyINtNtCs5cYH0lLSdLc_4core4cell4CellTyyEEE4withNCNvMNtNtBa_4hash6randomNtB1I_11RandomState3new0B21_ECs4O6ck48ZfFc_5regex
_RINvMs2_NtNtCs2FIVCi1Wrow_3std6thread5localINtB6_8LocalKeyINtNtCs5cYH0lLSdLc_4core4cell7RefCellNtNtCsaz9ix1H7t6h_5alloc6string6StringEE8try_withNCNvXsa_NtNtCslN86gTjml9v_18tracing_subscriber3fmt9fmt_layerINtB2q_5LayerNtNtNtB2u_8registry7sharded8RegistryEINtNtB2u_5layer5LayerB3t_E8on_event0uEB2u_
_RINvMs2_NtNtCs2FIVCi1Wrow_3std6thread5localINtB6_8LocalKeyNtNtCshD5YnGfk4Ix_12tracing_core10dispatcher5StateE8try_withNCINvBW_11get_defaultbNCNvNtCs95mCUY6WNKq_7tracing15___macro_support12___is_enabled0E0bEB2k_
_RINvMs2_NtNtCs2FIVCi1Wrow_3std6thread5localINtB6_8LocalKeyNtNtNtCs2WU2hRDnNVz_5tokio7runtime7context7ContextE8try_withNCINvNtBW_7current12with_currentNCNvMNtBY_6handleNtB2t_6Handle11try_current0B2F_E0INtNtCs5cYH0lLSdLc_4core6option6OptionB2F_EEB10_
_RINvMs2_NtNtCs3NZLoJsOov_3std6thread5localINtB6_8LocalKeyINtNtCshgx866xcH9W_5alloc2rc2RcINtNtCsiL7B6CFZHyD_4core4cell7RefCellINtNtCslIjNMLs0yCi_4rand9reseeding12ReseedingRngNtB24_6StdRngNtB24_17ThreadRngReseederEEEE4withNCNvB24_10thread_rng0BT_EB24_
_RINvMs2_NtNtCs3NZLoJsOov_3std6thread5localINtB6_8LocalKeyINtNtCsiL7B6CFZHyD_4core4cell4CellINtNtBY_6option6OptionNtNtCs97ToZhCJ7Fo_12thread_local9thread_id6ThreadEEE8try_withNCNvB1P_3get0B1N_ECs9vszGGFNfUy_18tracing_subscriber
_RINvMs2_NtNtCs3NZLoJsOov_3std6thread5localINtB6_8LocalKeyINtNtCsiL7B6CFZHyD_4core4cell4CellNtCseBWfyzsJcQc_8fastrand3RngEE8try_withNCINvNtB1t_10global_rng12try_with_rngB1r_NvMs0_B1t_B1r_4forkE0B1r_ECsgR9NO7hbYfs_5piper
_RINvMs2_NtNtCs3NZLoJsOov_3std6thread5localINtB6_8LocalKeyINtNtCsiL7B6CFZHyD_4core4cell4CellTyyEEE4withNCNvMs1i_NtNtNtBa_11collections4hash3mapNtB1L_11RandomState3new0B2g_ECs2pCiphAJ0IO_8ucd_trie
_RINvMs2_NtNtCs3NZLoJsOov_3std6thread5localINtB6_8LocalKeyINtNtCsiL7B6CFZHyD_4core4cell4CellTyyEEE8try_withNCNvMs1i_NtNtNtBa_11collections4hash3mapNtB1P_11RandomState3new0B2k_ECs2P2SgBKwLCl_7difflib
_RINvMs2_NtNtCs3NZLoJsOov_3std6thread5localINtB6_8LocalKeyINtNtCsiL7B6CFZHyD_4core4cell4CellTyyEEE8try_withNCNvMs1i_NtNtNtBa_11collections4hash3mapNtB1P_11RandomState3new0B2k_ECsksserHSt5pJ_15crossbeam_utils
_RINvMs2_NtNtCs3NZLoJsOov_3std6thread5localINtB6_8LocalKeyINtNtCsiL7B6CFZHyD_4core4cell4CellbEE8try_withNCNvXNtCsa1XupUGiia1_9backtrace4lockNtB1I_9LockGuardNtNtNtBY_3ops4drop4Drop4drop0uEB1K_
_RINvMs2_NtNtCs3NZLoJsOov_3std6thread5localINtB6_8LocalKeyINtNtCsiL7B6CFZHyD_4core4cell7RefCellINtNtBY_6option6OptionINtNtCshgx866xcH9W_5alloc4sync3ArcNtCsi6pTmhHIU5M_9clang_sys13SharedLibraryEEEE4withNCINvB2q_12with_libraryFUKCNtB2q_6CXTypeElNCNvB2q_20clang_getNumArgTypes0E0IB1v_B3z_EEB2q_
_RINvMs2_NtNtCs3NZLoJsOov_3std6thread5localINtB6_8LocalKeyINtNtCsiL7B6CFZHyD_4core4cell7RefCellINtNtBY_6option6OptionINtNtCshgx866xcH9W_5alloc4sync3ArcNtCsi6pTmhHIU5M_9clang_sys13SharedLibraryEEEE4withNCINvB2q_12with_libraryFUKCNtB2q_8CXCursorENtB2q_8CXStringNCNvB2q_38clang_Cursor_getObjCPropertySetterName0E0IB1v_B3z_EEB2q_
_RINvMs2_NtNtCs3NZLoJsOov_3std6thread5localINtB6_8LocalKeyINtNtCsiL7B6CFZHyD_4core4cell7RefCellINtNtBY_6option6OptionINtNtCshgx866xcH9W_5alloc4sync3ArcNtCsi6pTmhHIU5M_9clang_sys13SharedLibraryEEEE4withNCINvB2q_12with_libraryFUKCNtB2q_8CXCursorEmNCNvB2q_38clang_CXXConstructor_isCopyConstructor0E0IB1v_B3z_EEB2q_
_RINvMs2_NtNtCs3NZLoJsOov_3std6thread5localINtB6_8LocalKeyINtNtCsiL7B6CFZHyD_4core4cell7RefCellINtNtBY_6option6OptionINtNtCshgx866xcH9W_5alloc4sync3ArcNtCsi6pTmhHIU5M_9clang_sys13SharedLibraryEEEE4withNCINvB2q_12with_libraryFUKCNtB2q_9CXCommentEmNCNvB2q_43clang_ParamCommandComment_isParamIndexValid0E0IB1v_B3z_EEB2q_
_RINvMs2_NtNtCs3NZLoJsOov_3std6thread5localINtB6_8LocalKeyINtNtCsiL7B6CFZHyD_4core4cell7RefCellINtNtBY_6option6OptionINtNtCshgx866xcH9W_5alloc4sync3ArcNtCsi6pTmhHIU5M_9clang_sys13SharedLibraryEEEE4withNCINvB2q_12with_libraryFUKCONtNtBY_3ffi6c_voidENtB2q_8CXStringNCNvB2q_26clang_TargetInfo_getTriple0E0IB1v_B3z_EEB2q_
_RINvMs2_NtNtCs3NZLoJsOov_3std6thread5localINtB6_8LocalKeyINtNtCsiL7B6CFZHyD_4core4cell7RefCellINtNtBY_6option6OptionINtNtCshgx866xcH9W_5alloc4sync3ArcNtCsi6pTmhHIU5M_9clang_sys13SharedLibraryEEEE4withNCINvB2q_12with_libraryFUKCONtNtBY_3ffi6c_voidFKCB3D_ONtB2q_16CXSourceLocationmB3D_EuB3D_EuNCNvB2q_19clang_getInclusions0E0IB1v_B3z_EEB2q_
_RINvMs2_NtNtCs3NZLoJsOov_3std6thread5localINtB6_8LocalKeyINtNtCsiL7B6CFZHyD_4core4cell7RefCellINtNtBY_6option6OptionINtNtCshgx866xcH9W_5alloc4sync3ArcNtCsi6pTmhHIU5M_9clang_sys13SharedLibraryEEEE4withNCINvB2q_12with_libraryFUKCPNtB2q_13CXIdxDeclInfoEPNtB2q_28CXIdxObjCProtocolRefListInfoNCNvB2q_38clang_index_getObjCProtocolRefListInfo0E0IB1v_B3z_EEB2q_
_RINvMs2_NtNtCs3NZLoJsOov_3std6thread5localINtB6_8LocalKeyINtNtCsiL7B6CFZHyD_4core4cell7RefCellINtNtBY_6option6OptionINtNtCshgx866xcH9W_5alloc4sync3ArcNtCsi6pTmhHIU5M_9clang_sys13SharedLibraryEEEE4withNCINvB2q_12with_librarybNCNvNtB2q_17clang_isStatement9is_loaded0E0IB1v_bEEB2q_
_RINvMs2_NtNtCs3NZLoJsOov_3std6thread5localINtB6_8LocalKeyINtNtCsiL7B6CFZHyD_4core4cell7RefCellINtNtBY_6option6OptionINtNtCshgx866xcH9W_5alloc4sync3ArcNtCsi6pTmhHIU5M_9clang_sys13SharedLibraryEEEE4withNCINvB2q_12with_librarybNCNvNtB2q_21clang_getNullLocation9is_loaded0E0IB1v_bEEB2q_
_RINvMs2_NtNtCs3NZLoJsOov_3std6thread5localINtB6_8LocalKeyINtNtCsiL7B6CFZHyD_4core4cell7RefCellINtNtBY_6option6OptionINtNtCshgx866xcH9W_5alloc4sync3ArcNtCsi6pTmhHIU5M_9clang_sys13SharedLibraryEEEE4withNCINvB2q_12with_librarybNCNvNtB2q_24clang_findIncludesInFile9is_loaded0E0IB1v_bEEB2q_
_RINvMs2_NtNtCs3NZLoJsOov_3std6thread5localINtB6_8LocalKeyINtNtCsiL7B6CFZHyD_4core4cell7RefCellINtNtBY_6option6OptionINtNtCshgx866xcH9W_5alloc4sync3ArcNtCsi6pTmhHIU5M_9clang_sys13SharedLibraryEEEE4withNCINvB2q_12with_librarybNCNvNtB2q_27clang_CXXMethod_isDefaulted9is_loaded0E0IB1v_bEEB2q_
_RINvMs2_NtNtCs3NZLoJsOov_3std6thread5localINtB6_8LocalKeyINtNtCsiL7B6CFZHyD_4core4cell7RefCellINtNtBY_6option6OptionINtNtCshgx866xcH9W_5alloc4sync3ArcNtCsi6pTmhHIU5M_9clang_sys13SharedLibraryEEEE4withNCINvB2q_12with_librarybNCNvNtB2q_29clang_CompileCommands_getSize9is_loaded0E0IB1v_bEEB2q_
_RINvMs2_NtNtCs3NZLoJsOov_3std6thread5localINtB6_8LocalKeyINtNtCsiL7B6CFZHyD_4core4cell7RefCellINtNtBY_6option6OptionINtNtCshgx866xcH9W_5alloc4sync3ArcNtCsi6pTmhHIU5M_9clang_sys13SharedLibraryEEEE4withNCINvB2q_12with_librarybNCNvNtB2q_31clang_getDiagnosticCategoryName9is_loaded0E0IB1v_bEEB2q_
_RINvMs2_NtNtCs3NZLoJsOov_3std6thread5localINtB6_8LocalKeyINtNtCsiL7B6CFZHyD_4core4cell7RefCellINtNtBY_6option6OptionINtNtCshgx866xcH9W_5alloc4sync3ArcNtCsi6pTmhHIU5M_9clang_sys13SharedLibraryEEEE4withNCINvB2q_12with_librarybNCNvNtB2q_36clang_BlockCommandComment_getNumArgs9is_loaded0E0IB1v_bEEB2q_
_RINvMs2_NtNtCs3NZLoJsOov_3std6thread5localINtB6_8LocalKeyINtNtCsiL7B6CFZHyD_4core4cell7RefCellINtNtBY_6option6OptionINtNtCshgx866xcH9W_5alloc4sync3ArcNtCsi6pTmhHIU5M_9clang_sys13SharedLibraryEEEE4withNCNvB2q_11set_library0B1u_EB2q_
_RINvMs2_NtNtCs3NZLoJsOov_3std6thread5localINtB6_8LocalKeyINtNtCsiL7B6CFZHyD_4core4cell7RefCellINtNtBY_6option6OptionINtNtCshgx866xcH9W_5alloc4sync3ArcNtCsi6pTmhHIU5M_9clang_sys13SharedLibraryEEEE8try_withNCINvB2q_12with_libraryFUKCNtB2q_6CXTypeEmNCNvB2q_26clang_isConstQualifiedType0E0IB1v_B3D_EEB2q_
_RINvMs2_NtNtCs3NZLoJsOov_3std6thread5localINtB6_8LocalKeyINtNtCsiL7B6CFZHyD_4core4cell7RefCellINtNtBY_6option6OptionINtNtCshgx866xcH9W_5alloc4sync3ArcNtCsi6pTmhHIU5M_9clang_sys13SharedLibraryEEEE8try_withNCINvB2q_12with_libraryFUKCNtB2q_8CXCursorEONtNtBY_3ffi6c_voidNCNvB2q_31clang_Cursor_getTranslationUnit0E0IB1v_B3D_EEB2q_
_RINvMs2_NtNtCs3NZLoJsOov_3std6thread5localINtB6_8LocalKeyINtNtCsiL7B6CFZHyD_4core4cell7RefCellINtNtBY_6option6OptionINtNtCshgx866xcH9W_5alloc4sync3ArcNtCsi6pTmhHIU5M_9clang_sys13SharedLibraryEEEE8try_withNCINvB2q_12with_libraryFUKCNtB2q_8CXCursorONtB2q_8CXStringB3W_OmEmNCNvB2q_29clang_Cursor_isExternalSymbol0E0IB1v_B3D_EEB2q_
_RINvMs2_NtNtCs3NZLoJsOov_3std6thread5localINtB6_8LocalKeyINtNtCsiL7B6CFZHyD_4core4cell7RefCellINtNtBY_6option6OptionINtNtCshgx866xcH9W_5alloc4sync3ArcNtCsi6pTmhHIU5M_9clang_sys13SharedLibraryEEEE8try_withNCINvB2q_12with_libraryFUKCNtB2q_9CXCommentmENtB2q_8CXStringNCNvB2q_37clang_InlineCommandComment_getArgText0E0IB1v_B3D_EEB2q_
_RINvMs2_NtNtCs3NZLoJsOov_3std6thread5localINtB6_8LocalKeyINtNtCsiL7B6CFZHyD_4core4cell7RefCellINtNtBY_6option6OptionINtNtCshgx866xcH9W_5alloc4sync3ArcNtCsi6pTmhHIU5M_9clang_sys13SharedLibraryEEEE8try_withNCINvB2q_12with_libraryFUKCONtNtBY_3ffi6c_voidEONtB2q_17CXSourceRangeListNCNvB2q_25clang_getAllSkippedRanges0E0IB1v_B3D_EEB2q_
_RINvMs2_NtNtCs3NZLoJsOov_3std6thread5localINtB6_8LocalKeyINtNtCsiL7B6CFZHyD_4core4cell7RefCellINtNtBY_6option6OptionINtNtCshgx866xcH9W_5alloc4sync3ArcNtCsi6pTmhHIU5M_9clang_sys13SharedLibraryEEEE8try_withNCINvB2q_12with_libraryFUKCONtNtBY_3ffi6c_voidNtB2q_8CXCursorEmNCNvB2q_26clang_CXCursorSet_contains0E0IB1v_B3D_EEB2q_
_RINvMs2_NtNtCs3NZLoJsOov_3std6thread5localINtB6_8LocalKeyINtNtCsiL7B6CFZHyD_4core4cell7RefCellINtNtBY_6option6OptionINtNtCshgx866xcH9W_5alloc4sync3ArcNtCsi6pTmhHIU5M_9clang_sys13SharedLibraryEEEE8try_withNCINvB2q_12with_libraryFUKCPaEONtNtBY_3ffi6c_voidNCNvB2q_19clang_getRemappings0E0IB1v_B3D_EEB2q_
_RINvMs2_NtNtCs3NZLoJsOov_3std6thread5localINtB6_8LocalKeyINtNtCsiL7B6CFZHyD_4core4cell7RefCellINtNtBY_6option6OptionINtNtCshgx866xcH9W_5alloc4sync3ArcNtCsi6pTmhHIU5M_9clang_sys13SharedLibraryEEEE8try_withNCINvB2q_12with_librarybNCNvNtB2q_18clang_getNullRange9is_loaded0E0IB1v_bEEB2q_
_RINvMs2_NtNtCs3NZLoJsOov_3std6thread5localINtB6_8LocalKeyINtNtCsiL7B6CFZHyD_4core4cell7RefCellINtNtBY_6option6OptionINtNtCshgx866xcH9W_5alloc4sync3ArcNtCsi6pTmhHIU5M_9clang_sys13SharedLibraryEEEE8try_withNCINvB2q_12with_librarybNCNvNtB2q_22clang_Type_getOffsetOf9is_loaded0E0IB1v_bEEB2q_
_RINvMs2_NtNtCs3NZLoJsOov_3std6thread5localINtB6_8LocalKeyINtNtCsiL7B6CFZHyD_4core4cell7RefCellINtNtBY_6option6OptionINtNtCshgx866xcH9W_5alloc4sync3ArcNtCsi6pTmhHIU5M_9clang_sys13SharedLibraryEEEE8try_withNCINvB2q_12with_librarybNCNvNtB2q_24clang_remap_getFilenames9is_loaded0E0IB1v_bEEB2q_
_RINvMs2_NtNtCs3NZLoJsOov_3std6thread5localINtB6_8LocalKeyINtNtCsiL7B6CFZHyD_4core4cell7RefCellINtNtBY_6option6OptionINtNtCshgx866xcH9W_5alloc4sync3ArcNtCsi6pTmhHIU5M_9clang_sys13SharedLibraryEEEE8try_withNCINvB2q_12with_librarybNCNvNtB2q_27clang_getCXXAccessSpecifier9is_loaded0E0IB1v_bEEB2q_
_RINvMs2_NtNtCs3NZLoJsOov_3std6thread5localINtB6_8LocalKeyINtNtCsiL7B6CFZHyD_4core4cell7RefCellINtNtBY_6option6OptionINtNtCshgx866xcH9W_5alloc4sync3ArcNtCsi6pTmhHIU5M_9clang_sys13SharedLibraryEEEE8try_withNCINvB2q_12with_librarybNCNvNtB2q_29clang_Type_getNumObjCTypeArgs9is_loaded0E0IB1v_bEEB2q_
_RINvMs2_NtNtCs3NZLoJsOov_3std6thread5localINtB6_8LocalKeyINtNtCsiL7B6CFZHyD_4core4cell7RefCellINtNtBY_6option6OptionINtNtCshgx866xcH9W_5alloc4sync3ArcNtCsi6pTmhHIU5M_9clang_sys13SharedLibraryEEEE8try_withNCINvB2q_12with_librarybNCNvNtB2q_32clang_Cursor_getBriefCommentText9is_loaded0E0IB1v_bEEB2q_
_RINvMs2_NtNtCs3NZLoJsOov_3std6thread5localINtB6_8LocalKeyINtNtCsiL7B6CFZHyD_4core4cell7RefCellINtNtBY_6option6OptionINtNtCshgx866xcH9W_5alloc4sync3ArcNtCsi6pTmhHIU5M_9clang_sys13SharedLibraryEEEE8try_withNCINvB2q_12with_librarybNCNvNtB2q_37clang_Cursor_getTemplateArgumentValue9is_loaded0E0IB1v_bEEB2q_
_RINvMs2_NtNtCs3NZLoJsOov_3std6thread5localINtB6_8LocalKeyINtNtCsiL7B6CFZHyD_4core4cell7RefCellINtNtBY_6option6OptionyEEE8try_withNCNvCs6JGgWY6YaLc_6procfs14boot_time_secs0INtNtBY_6result6ResultyNtCskN1Yzg5nTsb_11procfs_core9ProcErrorEEB27_
_RINvMs2_NtNtCs3NZLoJsOov_3std6thread5localINtB6_8LocalKeyNtCslk3xJcKQ7ze_8fastrand3RngE4withNCNvBV_3f320fEBV_
_RINvMs2_NtNtCs3NZLoJsOov_3std6thread5localINtB6_8LocalKeyNtNtCsC7QMccVbR7_12tracing_core10dispatcher5StateE8try_withNCINvBV_11get_defaultuNCNvMs4_NtBX_8callsiteNtB2k_9Callsites16rebuild_interest0E0uEBX_
_RINvMs2_NtNtCs3NZLoJsOov_3std6thread5localINtB6_8LocalKeyNtNtCsjN36mo7t0K8_16parking_lot_core11parking_lot10ThreadDataE8try_withNCINvBV_16with_thread_dataNtBV_10ParkResultNCINvBV_4parkNCINvMs8_NtCsjwhIuczLsde_11parking_lot10raw_rwlockNtB35_9RawRwLock11lock_commonNCNvB31_20lock_upgradable_slow0E0NCB2Y_s_0NCB2Y_s0_0E0E0PBT_EB37_
_RINvMs2_NtNtCs3NZLoJsOov_3std6thread5localINtB6_8LocalKeyNtNtNtCs4USifnV5z1l_5tokio7runtime7context7ContextE8try_withNCINvNtBV_7current12with_currentNCNvMNtBX_6handleNtB2s_6Handle11try_current0B2E_E0INtNtCsiL7B6CFZHyD_4core6option6OptionB2E_EEBZ_
_RINvMs2_NtNtCs3NZLoJsOov_3std6thread5localINtB6_8LocalKeyNtNtNtCsk9QERyUqk6O_5tokio7runtime7context7ContextE8try_withNCINvBV_10with_deferbNCNvNtNtBX_9scheduler14current_thread15did_defer_tasks0E0INtNtCsiL7B6CFZHyD_4core6option6OptionbEEBZ_
_RINvMs2_NtNtCs3NZLoJsOov_3std6thread5localINtB6_8LocalKeyNtNtNtCslBVC6wF8Bgr_5tokio7runtime7context7ContextE4withNCINvBV_13set_schedulerTINtNtCshgx866xcH9W_5alloc5boxed3BoxNtNtNtBX_9scheduler14current_thread4CoreEuENCINvMs6_B2M_NtB2M_9CoreGuard5enterNCNvMB2M_NtB2M_13CurrentThread8shutdowns_0uE0E0B2a_EBZ_
_RINvMs2_NtNtCs3NZLoJsOov_3std6thread5localINtB6_8LocalKeyjE4withNCNvMs2_NtNtNtCs2UqitWCaGEJ_14regex_automata4util4pool5innerINtB18_4PoolNtNtNtB1e_4meta5regex5CacheINtNtCshgx866xcH9W_5alloc5boxed3BoxDINtNtNtCsiL7B6CFZHyD_4core3ops8function2FnuEp6OutputB2a_NtNtB3i_6marker4SendNtNtNtB3i_5panic11unwind_safe10UnwindSafeNtB47_4SyncNtB4r_13RefUnwindSafeEL_EE9put_value0jEB1e_
_RINvMs2_NtNtCsaz9ix1H7t6h_5alloc3vec6spliceINtNtB8_5drain5DrainhE4fillNtNtNtCs5cYH0lLSdLc_4core3str4iter5BytesECsr2vRrLtsnw_3url
_RINvMs2_NtNtNtCs2GX3rYzX9NP_14regex_automata3nfa8thompson8compilerNtB6_8Compiler8c_concatINtNtNtNtCsiL7B6CFZHyD_4core4iter8adapters3map3MapINtNtB1u_6copied6CopiedINtNtNtB1y_5slice4iter4IterhEENCNvB2_9c_literal0EEBc_
_RINvMs2_NtNtNtCsbQWyLdwLkii_5tokio4loom3std12atomic_usizeNtB6_11AtomicUsize8with_mutjNCNvNtNtBc_4sync7oneshot8mut_load0EBc_
_RINvMs3_Cs2X3rQV7wZYL_3pemNtB6_3Pem3newReINtNtCshgx866xcH9W_5alloc3vec3VechEEB6_
_RINvMs3_NtCs54g7RpQ33Ud_14matrixmultiply9threadingINtB6_18RangeChunkParallelNCINvNtB8_4gemm11gemm_packedNtNtB8_12cgemm_kernel9KernelFmaE0E8for_eachNCB1e_s_0EB8_
_RINvMs3_NtCs5Ng0wM7PJ5I_12regex_syntax3hirNtB6_3Hir7literalINtNtCshgx866xcH9W_5alloc5boxed3BoxShEECs2UqitWCaGEJ_14regex_automata
_RINvMs3_NtCsf48c72s39yb_14regex_automata5regexNtB6_12RegexBuilder22build_with_size_sparsejEB8_
_RINvMs3_NtCshgx866xcH9W_5alloc3vecINtB6_3VecINtNtCsiL7B6CFZHyD_4core6option6OptionNtNtNtCsfcZx8z6uiNH_14regex_automata4util10primitives11NonMaxUsizeEE11extend_withINtB6_13ExtendElementBG_EEB1o_
_RINvMs3_NtCshgx866xcH9W_5alloc3vecINtB6_3VecNtNtNtNtCshfzWP1bsRXe_14regex_automata3nfa8thompson3map15Utf8SuffixEntryE11extend_withINtB6_13ExtendElementBG_EEBO_
_RINvMs3_NtCshgx866xcH9W_5alloc3vecINtB6_3VecjE11extend_withINtB6_13ExtendElementjEECs91GDN4qvfiu_7similar
_RINvMs3_NtCsklfhaN9lQFy_12aho_corasick3dfaNtB6_7Builder5buildRSNtNtNtCs6c37mDEUb8k_12regex_syntax3hir7literal7LiteralRBZ_ECs2GX3rYzX9NP_14regex_automata
_RINvMs3_NtNtCs8u8Bt1oxYji_14regex_automata6hybrid3dfaNtB6_4Lazy17add_builder_stateNCNvB2_15cache_start_one0EBa_
_RINvMs3_NtNtCshgx866xcH9W_5alloc11collections9vec_dequeINtB6_8VecDequeNtNtCs19S8JT9Sa42_12prettyplease9algorithm8BufEntryE12slice_rangesNtNtNtCsiL7B6CFZHyD_4core3ops5range9RangeFullEB1a_
_RINvMs3_NtNtCslBVC6wF8Bgr_5tokio4sync5watchINtB6_6SenderINtNtCsiL7B6CFZHyD_4core6option6OptionNtNtNtNtCsjkF96kpyiNs_10hyper_util6client6legacy7connect9ConnectedEE16send_if_modifiedNCINvB2_11send_modifyNCNvB2_12send_replace0E0EB1C_
_RINvMs3_NtNtNtCs6nv0K25L1YS_14regex_automata4util11determinize5stateNtB6_19StateBuilderMatches13set_look_haveNCNvB8_25set_lookbehind_from_starts8_0EBc_
_RINvMs48_NtNtCs57lu83pa5Ym_4jiff4util8rangeintINtB7_4ri32Kn0_Kn3b9ac9ff_E7try_newxEBb_
_RINvMs4_Cs20txnxQ5U84_7bindgenNtNtB6_7options14BindgenOptions17for_each_callbackNCNvMs3_B6_NtB6_7Builder8generate0EB6_
_RINvMs4_NtCs2V1jnu7GmYn_4http7requestNtB6_7Builder6headerReNtNtCshgx866xcH9W_5alloc6string6StringECs4sdexCj5LDw_11tungstenite
_RINvMs4_NtCs3sZDYscQcZY_10rayon_core8registryNtB6_8Registry14in_worker_coldNCINvNtB8_4join12join_contextNCINvNvNtNtCsivq4NZsOFee_5rayon4iter8plumbing24bridge_producer_consumer6helperINtNtB1N_9enumerate17EnumerateProducerINtNtB1N_3len14MaxLenProducerINtNtNtB1P_5slice6chunks17ChunksMutProducerhEEEINtNtB1N_8for_each15ForEachConsumerNCNvNtNtCsk1c4NF7YhJt_12jpeg_decoder6worker5rayon22compute_image_parallel0EE0NCB1G_s_0uuE0TuuEEB5r_
_RINvMs4_NtCs8pSesEVi6Kg_9once_cell4syncINtB6_8OnceCellINtNtNtCs2FIVCi1Wrow_3std4sync5mutex5MutexINtNtCsaz9ix1H7t6h_5alloc3vec3VecRDNtNtCshD5YnGfk4Ix_12tracing_core8callsite8CallsiteEL_EEE15get_or_try_initNCINvB2_11get_or_initNCNvMs9_B6_INtB6_4LazyBQ_E5force0E0NtNvMs4_B6_IBC_pE11get_or_init4VoidEB29_
_RINvMs4_NtCs9noQX08EQGk_10libloading4safeINtB6_6SymbolINtNtCsiL7B6CFZHyD_4core6option6OptionFUKCNtCsi6pTmhHIU5M_9clang_sys13CXSourceRangeElEE8from_rawNtB6_7LibraryEB1y_
_RINvMs4_NtCs9noQX08EQGk_10libloading4safeINtB6_6SymbolINtNtCsiL7B6CFZHyD_4core6option6OptionFUKCNtCsi6pTmhHIU5M_9clang_sys9CXCommentEB1w_EE8from_rawNtB6_7LibraryEB1y_
_RINvMs4_NtCs9noQX08EQGk_10libloading4safeINtB6_6SymbolINtNtCsiL7B6CFZHyD_4core6option6OptionFUKCONtNtBV_3ffi6c_voidNtCsi6pTmhHIU5M_9clang_sys7CXTokenENtB1R_8CXStringEE8from_rawNtB6_7LibraryEB1R_
_RINvMs4_NtCs9noQX08EQGk_10libloading4safeINtB6_6SymbolINtNtCsiL7B6CFZHyD_4core6option6OptionFUKCmENtCsi6pTmhHIU5M_9clang_sys8CXStringEE8from_rawNtB6_7LibraryEB1A_
_RINvMs4_NtCscAe09wmyAHU_9once_cell4syncINtB6_8OnceCellINtNtCseZiuHO0vNIu_3scc8hash_map7HashMapNtNtCshgx866xcH9W_5alloc6string6StringNtNtCs6MfJgXaOnUR_11serial_test9code_lock20UniqueReentrantMutexEE15get_or_try_initNCINvB2_11get_or_initNvMs0_BT_BQ_3newE0NtNvMs4_B6_IBC_pE11get_or_init4VoidEB2a_
_RINvMs4_NtCsj6GOjohWl9o_9once_cell4syncINtB6_8OnceCellINtNtNtCs3NZLoJsOov_3std4sync5mutex5MutexINtNtNtNtCshgx866xcH9W_5alloc11collections5btree3map8BTreeMapNtNtB1E_6string6StringINtNtB1E_4sync3ArcNtNtBX_4path7PathBufEEEE15get_or_try_initNCINvB2_11get_or_initNCNvMs9_B6_INtB6_4LazyBQ_E5force0E0NtNvMs4_B6_IBC_pE11get_or_init4VoidECskvdpLI7AOSZ_5insta
_RINvMs4_NtCslAj3ugQP8Tn_10async_task8runnableINtB6_7BuilderuE5spawnNCINvMs_CskFZxpbhaWoe_8blockingNtB1b_8Executor5spawnuNCINvB1b_7unblockuNCNvMsi_NtNtCshFvNZPQTJhs_9async_std2fs4fileINtB2k_9LockGuardNtB2k_5StateE9poll_read0E0E0B1U_NCB15_s_0EB2o_
_RINvMs4_NtNtCs3NZLoJsOov_3std2io5errorNtB6_5Error3newNtNtCshgx866xcH9W_5alloc6string6StringECsbPHw0ZMlxUx_2cc
_RINvMs4_NtNtCs6nv0K25L1YS_14regex_automata3dfa7onepassNtB6_3DFA5remapNCINvMNtB8_8remapperNtB1b_8Remapper5remapBQ_E0EBa_
_RINvMs4_NtNtNtCs4USifnV5z1l_5tokio7runtime8blocking4poolNtB6_7Spawner14spawn_blockingNCNvMNtNtNtBa_9scheduler12multi_thread6workerNtB1q_6Launch6launch0uEBc_
_RINvMs4_NtNtNtCslBVC6wF8Bgr_5tokio7runtime8blocking4poolNtB6_7Spawner20spawn_blocking_innerINtNtCshgx866xcH9W_5alloc5boxed3BoxNCNvXs_NtNtBc_2io8blockingINtB27_8BlockingNtNtNtCs3NZLoJsOov_3std2io5stdio6StderrENtNtB29_11async_write10AsyncWrite10poll_flush0ETINtNtCsiL7B6CFZHyD_4core6result6ResultjNtNtB2K_5error5ErrorENtB27_3BufB2G_EEBc_
_RINvMs5_NtCs5D3ymnTOYG0_12nu_ansi_term7displayINtB6_17AnsiGenericStringeE12write_to_anyDNtNtCsiL7B6CFZHyD_4core3fmt5WriteEL_EB8_
_RINvMs5_NtCs6x17v5tx4u3_4pest12parser_stateINtB6_11ParserStateNtNtCs2mjHR4nEvfL_13semver_parser9generated4RuleE8optionalNCNCNCNCNCNCNvNtNtNvXs_B10_NtB12_12SemverParserINtNtB8_6parser6ParserBY_E5parse5rules7visible5range000s_000EB12_
_RINvMs5_NtCs6x17v5tx4u3_4pest12parser_stateINtB6_11ParserStateNtNtCs2mjHR4nEvfL_13semver_parser9generated4RuleE8sequenceNCNCNCNCNvNtNtNvXs_B10_NtB12_12SemverParserINtNtB8_6parser6ParserBY_E5parse5rules7visible9primitive00s_00EB12_
_RINvMs5_NtCshK2h5RPyNs1_9hashbrown3rawINtB6_8RawTableTINtNtCshgx866xcH9W_5alloc2rc2RcNtNtCsf48c72s39yb_14regex_automata11determinize5StateEjEE6insertNCINvNtB8_3map11make_hasherBQ_BQ_jNtNtNtNtCs3NZLoJsOov_3std11collections4hash3map11RandomStateE0EB1p_
_RINvMs5_NtCshK2h5RPyNs1_9hashbrown3rawINtB6_8RawTableTINtNtCshgx866xcH9W_5alloc4sync3ArceENtNtNtCs8u8Bt1oxYji_14regex_automata4util10primitives10SmallIndexEE6insertNCINvNtB8_3map11make_hasherBQ_BQ_B1q_NtNtNtNtCs3NZLoJsOov_3std11collections4hash3map11RandomStateE0EB1w_
_RINvMs5_NtCshK2h5RPyNs1_9hashbrown3rawINtB6_8RawTableTINtNtCshgx866xcH9W_5alloc5boxed3BoxeEINtNtCsiL7B6CFZHyD_4core6option6OptionINtNtBV_4sync3ArcNtNtNtCs3NZLoJsOov_3std3ffi6os_str5OsStrEEEE6insertNCINvNtB8_3map11make_hasherBQ_BQ_B1r_NtNtNtNtB2q_11collections4hash3map11RandomStateE0ECsbPHw0ZMlxUx_2cc
_RINvMs5_NtCshK2h5RPyNs1_9hashbrown3rawINtB6_8RawTableTNtNtCs3NZLoJsOov_3std6thread8ThreadIdjEE6insertNCINvNtB8_3map11make_hasherBQ_BQ_jNtNtNtNtBU_11collections4hash3map11RandomStateE0ECs7Uq4sfakVqI_15crossbeam_utils
_RINvMs5_NtCshK2h5RPyNs1_9hashbrown3rawINtB6_8RawTableTNtNtCshgx866xcH9W_5alloc6string6StringBQ_EE7reserveNCINvNtB8_3map11make_hasherBQ_BQ_BQ_NtNtNtNtCs3NZLoJsOov_3std11collections4hash3map11RandomStateE0ECsgq42crzOkKS_14parse_zoneinfo
_RINvMs5_NtCshK2h5RPyNs1_9hashbrown3rawINtB6_8RawTableTNtNtCshgx866xcH9W_5alloc6string6StringINtNtCsiL7B6CFZHyD_4core6option6OptionBQ_EEE4findNCINvNtB8_3map14equivalent_keyeBQ_B1s_E0ECseGdTMJZQwVf_6dotenv
_RINvMs5_NtCshK2h5RPyNs1_9hashbrown3rawINtB6_8RawTableTNtNtCshgx866xcH9W_5alloc6string6StringNtNtCs3NZLoJsOov_3std4path7PathBufEE6insertNCINvNtB8_3map11make_hasherBQ_BQ_B1s_NtNtNtNtB1w_11collections4hash3map11RandomStateE0ECs3Fu94oynedE_13dirs_sys_next
_RINvMs5_NtCshK2h5RPyNs1_9hashbrown3rawINtB6_8RawTableTNtNtCshgx866xcH9W_5alloc6string6StringjEE3getNCINvNtB8_3map14equivalent_keyBQ_BQ_jE0ECs8NalhHLbrlY_11fancy_regex
_RINvMs5_NtCshK2h5RPyNs1_9hashbrown3rawINtB6_8RawTableTNtNtCshgx866xcH9W_5alloc6string6StringyEE7get_mutNCINvNtB8_3map14equivalent_keyBQ_BQ_yE0ECs6JGgWY6YaLc_6procfs
_RINvMs5_NtCshK2h5RPyNs1_9hashbrown3rawINtB6_8RawTableTNtNtCsiL7B6CFZHyD_4core3any6TypeIdINtNtCshgx866xcH9W_5alloc5boxed3BoxDNtNtCskTUq6jwe4oO_4http10extensions8AnyCloneNtNtBU_6marker4SendNtB2I_4SyncEL_EEE14reserve_rehashNCINvNtB8_3map11make_hasherBQ_BQ_B1o_INtNtBU_4hash18BuildHasherDefaultNtB20_8IdHasherEE0EB22_
_RINvMs5_NtCshK2h5RPyNs1_9hashbrown3rawINtB6_8RawTableTNtNtNtCs20txnxQ5U84_7bindgen2ir7context6TypeIdNtNtNtBU_8analysis9sizedness15SizednessResultEE7reserveNCINvNtB8_3map11make_hasherBQ_BQ_B1A_NtCsjt6QawPyDY5_10rustc_hash13FxBuildHasherE0EBW_
_RINvMs5_NtCshK2h5RPyNs1_9hashbrown3rawINtB6_8RawTableTNtNtNtCsfcdQbM8XNhc_7asn1_rs10asn1_types3oid3OidINtNtCshgx866xcH9W_5alloc3vec3VecNtNtNtCsi1PQLdatSvq_11x509_parser10extensions11generalname11GeneralNameEEE7reserveNCINvNtB8_3map11make_hasherBQ_BQ_B1C_NtNtNtNtCs3NZLoJsOov_3std11collections4hash3map11RandomStateE0EB2f_
_RINvMs5_NtCshK2h5RPyNs1_9hashbrown3rawINtB6_8RawTableTNtNtNtNtCs2GX3rYzX9NP_14regex_automata4util11determinize5state5StateNtNtNtBY_6hybrid2id11LazyStateIDEE14reserve_rehashNCINvNtB8_3map11make_hasherBQ_BQ_B1W_NtNtNtNtCs3NZLoJsOov_3std11collections4hash3map11RandomStateE0EBY_
_RINvMs5_NtCshK2h5RPyNs1_9hashbrown3rawINtB6_8RawTableTRReINtNtCsiL7B6CFZHyD_4core6option6OptionjEEE4findNCNvMNtB8_11rustc_entryINtNtB8_3map7HashMapBQ_BT_NtNtNtNtCs3NZLoJsOov_3std11collections4hash3map11RandomStateE11rustc_entry0ECsfjsGG03OZM8_7similar
_RINvMs5_NtCshK2h5RPyNs1_9hashbrown3rawINtB6_8RawTableTReINtNtCsiL7B6CFZHyD_4core6option6OptionjEEE7reserveNCINvNtB8_3map11make_hasherBQ_BQ_BS_NtNtNtNtCs3NZLoJsOov_3std11collections4hash3map11RandomStateE0ECskvdpLI7AOSZ_5insta
_RINvMs5_NtCshK2h5RPyNs1_9hashbrown3rawINtB6_8RawTableTRhINtNtCshgx866xcH9W_5alloc3vec3VecjEEE7reserveNCINvNtB8_3map11make_hasherBQ_BQ_BS_NtNtNtNtCs3NZLoJsOov_3std11collections4hash3map11RandomStateE0ECs2P2SgBKwLCl_7difflib
_RINvMs5_NtCshK2h5RPyNs1_9hashbrown3rawINtB6_8RawTableTmNtNtCskN1Yzg5nTsb_11procfs_core7keyring7KeyUserEE7reserveNCINvNtB8_3map11make_hashermmBR_NtNtNtNtCs3NZLoJsOov_3std11collections4hash3map11RandomStateE0ECs6JGgWY6YaLc_6procfs
_RINvMs5_NtCsiL7B6CFZHyD_4core3anyNtB6_6TypeId2ofFENtNtNtCs3NZLoJsOov_3std2io5stdio6StdoutECs9vszGGFNfUy_18tracing_subscriber
_RINvMs5_NtCsiL7B6CFZHyD_4core3anyNtB6_6TypeId2ofINtNtNtCs9vszGGFNfUy_18tracing_subscriber5layer7layered7LayeredINtNtNtBR_3fmt9fmt_layer5LayerNtNtNtBR_8registry7sharded8RegistryEB2f_EEBR_
_RINvMs5_NtCsiL7B6CFZHyD_4core3anyNtB6_6TypeId2ofNtNtCs4Ra6QXC7Q85_10widestring5error16DecodeUtf32ErrorEBO_
_RINvMs5_NtCsiL7B6CFZHyD_4core3anyNtB6_6TypeId2ofNtNtCsc5nQzyK8bPB_6flate23mem13CompressErrorEBO_
_RINvMs5_NtCsiL7B6CFZHyD_4core3anyNtB6_6TypeId2ofNtNtCshgx866xcH9W_5alloc6string6StringECskt8TpxtZnof_4clap
_RINvMs5_NtCsiL7B6CFZHyD_4core3anyNtB6_6TypeId2ofNtNtNtCs3NZLoJsOov_3std2io5error5ErrorECs3sZDYscQcZY_10rayon_core
_RINvMs5_NtCsiL7B6CFZHyD_4core3anyNtB6_6TypeId2ofNtNtNtCs9rvCcTOJGkv_9quick_xml6events10attributes9AttrErrorEBQ_
_RINvMs5_NtCsiL7B6CFZHyD_4core3anyNtB6_6TypeId2ofNtNvXs12_NtCshgx866xcH9W_5alloc5boxedINtBT_3BoxDNtNtB8_5error5ErrorNtNtB8_6marker4SendNtB1R_4SyncEL_EINtNtB8_7convert4FromNtNtBV_6string6StringE4from11StringErrorECs2e5lBM6agA0_3mio
_RINvMs5_NtCsiL7B6CFZHyD_4core3anyNtB6_6TypeId2ofReECs4mYkGEkarej_9pico_args
_RINvMs5_NtCsiL7B6CFZHyD_4core3anyNtB6_6TypeId2ofReECsj4OnrmWjBOa_4eyre
_RINvMs5_NtNtCs5cYH0lLSdLc_4core3fmt8buildersNtB6_9DebugList7entriesRINtNtBa_6option6OptionINtNtCsaz9ix1H7t6h_5alloc4sync3ArceEEINtNtNtBa_5slice4iter4IterB14_EECs2eZKGvXrlyD_14regex_automata
_RINvMs5_NtNtCs5cYH0lLSdLc_4core3fmt8buildersNtB6_9DebugList7entriesRNtNtCs9nCsezDqTf4_12regex_syntax3hir15ClassBytesRangeINtNtNtBa_5slice4iter4IterB14_EEB18_
_RINvMs5_NtNtCs5cYH0lLSdLc_4core3fmt8buildersNtB6_9DebugList7entriesRTjtEINtNtNtBa_5slice4iter4IterB14_EECs8zkBknKQsDL_12aho_corasick
_RINvMs5_NtNtCs9uh8emyyfsF_14regex_automata4util8capturesNtB6_9GroupInfo3newINtNtNtNtCsiL7B6CFZHyD_4core4iter8adapters3map3MapINtNtNtB1k_5slice4iter4IterINtNtCshgx866xcH9W_5alloc3vec3VecINtNtB1k_6option6OptionINtNtB2v_4sync3ArceEEEENCNvMs0_NtNtNtBa_3nfa8thompson3nfaNtB3P_5Inner12set_captures0EIB1c_IB20_B2X_ENCNCB3J_00ERB3k_EBa_
_RINvMs5_NtNtCsiL7B6CFZHyD_4core3fmt8buildersNtB6_9DebugList7entriesNtNtNtCshDAon63rG69_10ttf_parser6tables4colr9ColorStopNtB15_17GradientStopsIterEB19_
_RINvMs5_NtNtCsiL7B6CFZHyD_4core3fmt8buildersNtB6_9DebugList7entriesRINtNtBa_6option6OptionNtNtNtCs2UqitWCaGEJ_14regex_automata4util10primitives11NonMaxUsizeEINtNtNtBa_5slice4iter4IterB14_EEB1w_
_RINvMs5_NtNtCsiL7B6CFZHyD_4core3fmt8buildersNtB6_9DebugList7entriesRINtNtCshgx866xcH9W_5alloc5boxed3BoxNtNtNtCs2GX3rYzX9NP_14regex_automata4meta5regex5CacheEINtNtNtBa_5slice4iter4IterB14_EEB1J_
_RINvMs5_NtNtCsiL7B6CFZHyD_4core3fmt8buildersNtB6_9DebugList7entriesRNtCs8qPlBtFINoP_4glob13CharSpecifierINtNtNtBa_5slice4iter4IterB14_EEB16_
_RINvMs5_NtNtCsiL7B6CFZHyD_4core3fmt8buildersNtB6_9DebugList7entriesRNtNtCs302BLY9Avsm_12regex_syntax3ast7CommentINtNtNtBa_5slice4iter4IterB14_EEB18_
_RINvMs5_NtNtCsiL7B6CFZHyD_4core3fmt8buildersNtB6_9DebugList7entriesRNtNtCs9zsKVhFsf47_7globset4glob4GlobINtNtNtBa_5slice4iter4IterB14_EEB18_
_RINvMs5_NtNtCsiL7B6CFZHyD_4core3fmt8buildersNtB6_9DebugList7entriesRNtNtCshgx866xcH9W_5alloc6string6StringINtNtNtBa_5slice4iter4IterB14_EECsjQAgS81B8HG_7getopts
_RINvMs5_NtNtCsiL7B6CFZHyD_4core3fmt8buildersNtB6_9DebugList7entriesRNtNtCskN1Yzg5nTsb_11procfs_core11sysvipc_shm3ShmINtNtNtBa_5slice4iter4IterB14_EEB18_
_RINvMs5_NtNtCsiL7B6CFZHyD_4core3fmt8buildersNtB6_9DebugList7entriesRNtNtNtCs20txnxQ5U84_7bindgen2ir7context6TypeIdINtNtNtBa_5slice4iter4IterB14_EEB1a_
_RINvMs5_NtNtCsiL7B6CFZHyD_4core3fmt8buildersNtB6_9DebugList7entriesRNtNtNtCs8u8Bt1oxYji_14regex_automata6hybrid2id11LazyStateIDINtNtNtBa_5slice4iter4IterB14_EEB1a_
_RINvMs5_NtNtCsiL7B6CFZHyD_4core3fmt8buildersNtB6_9DebugList7entriesRNtNtNtNtCs2GX3rYzX9NP_14regex_automata3nfa8thompson3map15Utf8SuffixEntryINtNtNtBa_5slice4iter4IterB14_EEB1c_
_RINvMs5_NtNtCsiL7B6CFZHyD_4core3fmt8buildersNtB6_9DebugList7entriesRNtNtNtNtCsc9MEfsw61gC_12aho_corasick6packed5teddy7generic14FatMaskBuilderINtNtNtBa_5slice4iter4IterB14_EEB1c_
_RINvMs5_NtNtCsiL7B6CFZHyD_4core3fmt8buildersNtB6_9DebugList7entriesRNtNtNtNtNtCsk9QERyUqk6O_5tokio7runtime4time5wheel5level5LevelINtNtNtBa_5slice4iter4IterB14_EEB1e_
_RINvMs5_NtNtCsiL7B6CFZHyD_4core3fmt8buildersNtB6_9DebugList7entriesRTINtNtBa_6option6OptionReEB1r_EINtNtNtBa_5slice4iter4IterB14_EECskt8TpxtZnof_4clap
_RINvMs5_NtNtCsiL7B6CFZHyD_4core3fmt8buildersNtB6_9DebugList7entriesRTjjEINtNtNtBa_5slice4iter4IterB14_EECs2UqitWCaGEJ_14regex_automata
_RINvMs5_NtNtCsiL7B6CFZHyD_4core3fmt8buildersNtB6_9DebugList7entriesRdINtNtNtBa_5slice4iter4IterdEECsfzEpHuN0CX2_4libc
_RINvMs5_NtNtCsiL7B6CFZHyD_4core3fmt8buildersNtB6_9DebugList7entriesRhINtNtNtBa_5slice4iter4IterhEECs8Gr6aEfp4bk_8base64ct
_RINvMs5_NtNtCsiL7B6CFZHyD_4core3fmt8buildersNtB6_9DebugList7entriesRhINtNtNtBa_5slice4iter4IterhEECshpKpake7nJI_12regex_syntax
_RINvMs5_NtNtCsiL7B6CFZHyD_4core3fmt8buildersNtB6_9DebugList7entriesRjINtNtNtBa_5slice4iter4IterjEECsh0qnI37SO6t_7similar
_RINvMs5_NtNtCsiL7B6CFZHyD_4core3fmt8buildersNtB6_9DebugList7entriesRmINtNtNtBa_5slice4iter4ItermEECsk0zY9BiHTY7_13linux_raw_sys
_RINvMs5_NtNtCsiL7B6CFZHyD_4core3fmt8buildersNtB6_9DebugList7entriesRtINtNtNtBa_5slice4iter4ItertEECslshdI1xb6kN_6memchr
_RINvMs5_NtNtCsiL7B6CFZHyD_4core3fmt8buildersNtB6_9DebugList7entriesRyRSyECsi1qVvTIG17a_8valuable
_RINvMs65_NtNtCs57lu83pa5Ym_4jiff4util8rangeintINtB7_4ri64Knn8000000000000000_Kn7fffffffffffffff_E15try_checked_addINtB7_3ri8Knn1_Kn1_EEBb_
_RINvMs6_NtCs3HjF0nTt0Ee_12futures_task10future_objINtB6_9FutureObjuE3newINtNtCsiL7B6CFZHyD_4core3pin3PinINtNtCshgx866xcH9W_5alloc5boxed3BoxDNtNtNtB1d_6future6future6Futurep6OutputuNtNtB1d_6marker4SendEL_EEEB8_
_RINvMs6_NtCs5cYH0lLSdLc_4core3anyNtB6_6TypeId2ofReECs26nnaF11nq9_6anyhow
_RINvMs6_NtCsffYwmj09FSj_9hashbrown3rawINtB6_8RawTableTINtNtCsaz9ix1H7t6h_5alloc4sync3ArceENtNtNtCs2eZKGvXrlyD_14regex_automata4util10primitives10SmallIndexEE14reserve_rehashNCINvNtB8_3map11make_hasherBQ_B1q_NtNtNtCs2FIVCi1Wrow_3std4hash6random11RandomStateE0EB1w_
_RINvMs6_NtCsffYwmj09FSj_9hashbrown3rawINtB6_8RawTableTNtNtCs5cYH0lLSdLc_4core3any6TypeIdINtNtCsaz9ix1H7t6h_5alloc5boxed3BoxDNtBS_3AnyNtNtBU_6marker4SendNtB29_4SyncEL_EEE24find_or_find_insert_slotNCINvNtB8_3map14equivalent_keyBQ_BQ_B1o_E0NCINvB3c_11make_hasherBQ_B1o_INtNtBU_4hash18BuildHasherDefaultNtNtNtCslN86gTjml9v_18tracing_subscriber8registry10extensions8IdHasherEE0EB4T_
_RINvMs6_NtCsffYwmj09FSj_9hashbrown3rawINtB6_8RawTableTmjEE7reserveNCINvNtB8_3map11make_hashermjNtNtNtCs2FIVCi1Wrow_3std4hash6random11RandomStateE0ECsA3zysNafLn_8num_cpus
_RINvMs6_NtNtCs5cYH0lLSdLc_4core3fmt8buildersNtB6_8DebugMap7entriesRINtNtCsaz9ix1H7t6h_5alloc4sync3ArceERNtNtNtCs2eZKGvXrlyD_14regex_automata4util10primitives10SmallIndexINtNtNtNtCs2FIVCi1Wrow_3std11collections4hash3map4IterB13_B1E_EEB1K_
_RINvMs6_NtNtCsiL7B6CFZHyD_4core3fmt8buildersNtB6_8DebugMap7entriesRNtNtCsC7QMccVbR7_12tracing_core5field5FieldRNtNtNtNtCs9vszGGFNfUy_18tracing_subscriber6filter3env5field10ValueMatchINtNtNtNtCs3NZLoJsOov_3std11collections4hash3map4IterB13_B1L_EEB1T_
_RINvMs6_NtNtCsiL7B6CFZHyD_4core3fmt8buildersNtB6_8DebugMap7entriesRNtNtNtCsfuTXiacoSai_15trust_dns_proto2op5query5QueryRNtNtCshfZdcOEXVna_18trust_dns_resolver7dns_lru8LruValueINtNtNtNtBa_4iter8adapters3rev3RevINtCsoDpQHzpbIR_9lru_cache4IterB13_B1U_EEEB1Y_
_RINvMs7_NtCs1yFw5o97rjX_6thrift6errorsNtB6_14TransportError3newReEB8_
_RINvMs7_NtCs4EMmDgM0Qf0_3syn5parseNtB6_11ParseBuffer4peekINvNtB8_5token5CrateNtNtB8_9lookahead11TokenMarkerEEB8_
_RINvMs7_NtCs4EMmDgM0Qf0_3syn5parseNtB6_11ParseBuffer5parseINtNtCs5cYH0lLSdLc_4core6option6OptionNtNtB8_5token3MutEEB8_
_RINvMs7_NtCs4EMmDgM0Qf0_3syn5parseNtB6_11ParseBuffer5parseNtNtB8_5token2GeEB8_
_RINvMs7_NtCs4EMmDgM0Qf0_3syn5parseNtB6_11ParseBuffer5parseNtNtB8_8generics18TraitBoundModifierEB8_
_RINvMs7_NtCsfEIPyJjtYJA_8powerfmt13smart_displayINtB6_8MetadataINtCseCai5FPn4qB_8deranged8RangedI8Kan3b_Ka3b_EE5reuseRBZ_ECs5MsBAlmYmSD_4time
_RINvMs7_NtNtCs89pdyz7HZkL_12aho_corasick3nfa13noncontiguousNtB6_7Builder5buildRSNtNtNtCs5Ng0wM7PJ5I_12regex_syntax3hir7literal7LiteralRB1g_ECs2UqitWCaGEJ_14regex_automata
_RINvMs8_NtCs3sZDYscQcZY_10rayon_core8registryNtB6_12WorkerThread10wait_untilNtNtB8_5latch9SpinLatchEB8_
_RINvMs8_NtCsf48c72s39yb_14regex_automata10sparse_impINtB6_4ReprINtNtCshgx866xcH9W_5alloc3vec3VechEE16from_dense_sizedIB10_jEjEB8_
_RINvMs8_NtNtCs5cYH0lLSdLc_4core3ops5rangeINtB6_14RangeInclusivejE8containsjECslpSPRSgAWPD_6base64
_RINvMs8_NtNtCsiL7B6CFZHyD_4core3ops5rangeINtB6_14RangeInclusivehE8containshECsjN361EugDAD_3der
_RINvMs8_NtNtNtCs2UqitWCaGEJ_14regex_automata4util11determinize5stateNtB6_7ReprVec13set_look_haveNCNvB8_25set_lookbehind_from_starts2_0EBc_
_RINvMs8_NtNtNtCs8u8Bt1oxYji_14regex_automata4util11determinize5stateNtB6_7ReprVec13set_look_haveNCNvB8_14add_nfa_statess_0EBc_
_RINvMs8_NtNtNtCsfcZx8z6uiNH_14regex_automata4util11determinize5stateNtB6_7ReprVec13set_look_needNCNvB8_14add_nfa_states0EBc_
_RINvMs8_NtNtNtCshgx866xcH9W_5alloc11collections5btree4nodeINtB6_7NodeRefNtNtB6_6marker5OwnedNtNtNtCs2GX3rYzX9NP_14regex_automata4util10primitives7StateIDINtNtBc_3vec3VecNtB1u_9PatternIDENtB1a_4LeafE8new_leafNtNtBc_5alloc6GlobalEB1y_
_RINvMs8_NtNtNtCshgx866xcH9W_5alloc11collections5btree4nodeINtB6_7NodeRefNtNtB6_6marker5OwnedyNtNtNtCs33TE7WC04bj_5gimli4read6abbrev12AbbreviationNtB1a_4LeafE8new_leafNtNtBc_5alloc6GlobalEB1z_
_RINvMs9_NtCs1cxMKpSN2o4_3syn5parseNtB6_11ParseBuffer4peekINvNtB8_5token3BoxNtNtB8_9lookahead11TokenMarkerEEB8_
_RINvMs9_NtCs1cxMKpSN2o4_3syn5parseNtB6_11ParseBuffer4peekINvNtB8_5token5WhileNtNtB8_9lookahead11TokenMarkerEEB8_
_RINvMs9_NtCs1cxMKpSN2o4_3syn5parseNtB6_11ParseBuffer4stepNCNvXsg_B6_NtCsgMKgB7mnEUJ_11proc_macro27LiteralNtB6_5Parse5parse0B14_EB8_
_RINvMs9_NtCs1cxMKpSN2o4_3syn5parseNtB6_11ParseBuffer5parseNtNtB8_2ty7TypePtrEB8_
_RINvMs9_NtCs1cxMKpSN2o4_3syn5parseNtB6_11ParseBuffer5parseNtNtB8_4item8ReceiverEB8_
_RINvMs9_NtCs1cxMKpSN2o4_3syn5parseNtB6_11ParseBuffer5parseNtNtB8_5token4SemiEB8_
_RINvMs9_NtCs1cxMKpSN2o4_3syn5parseNtB6_11ParseBuffer5parseNtNtB8_8generics10TraitBoundEB8_
_RINvMs9_NtCs1cxMKpSN2o4_3syn5parseNtB6_11ParseBuffer5peek3INvNtB8_5token2LtNtNtB8_9lookahead11TokenMarkerEEB8_
_RINvMs9_NtCs3NZLoJsOov_3std2fsNtB6_11OpenOptions4openRRNtNtB8_4path4PathECs67gRWllCrln_7walkdir
_RINvMs9_NtNtNtCsaz9ix1H7t6h_5alloc11collections5btree4nodeINtB6_7NodeRefNtNtB6_6marker5OwnedNtNtNtCs6nv0K25L1YS_14regex_automata4util10primitives7StateIDNtNtB8_7set_val9SetValZSTNtB1a_8InternalE17from_new_internalNtNtBc_5alloc6GlobalEB1y_
_RINvMs9_NtNtNtCshgx866xcH9W_5alloc11collections5btree4nodeINtB6_7NodeRefNtNtB6_6marker5OwnedNtNtCszyCK4IS6d6_10serde_cbor5value5ValueB1s_NtB1a_8InternalE17from_new_internalNtNtBc_5alloc6GlobalEB1w_
_RINvMs9_NtNtNtCshgx866xcH9W_5alloc11collections5btree4nodeINtB6_7NodeRefNtNtB6_6marker5OwnedjNtNtB8_7set_val9SetValZSTNtB1a_8InternalE17from_new_internalNtNtBc_5alloc6GlobalECs8NalhHLbrlY_11fancy_regex
_RINvMsK_NtCsoIzOoOKbrk_12tracing_core5fieldNtB6_8FieldSet9value_setATRNtB6_5FieldINtNtCs5cYH0lLSdLc_4core6option6OptionRDNtB6_5ValueEL_EEj1_ECslN86gTjml9v_18tracing_subscriber
_RINvMsK_NtNtNtCshgx866xcH9W_5alloc11collections5btree4nodeINtB6_6HandleINtB6_7NodeRefNtNtB6_6marker3MutReINtNtB8_3set8BTreeSetNtNtCseJ4fYN2mE0W_14parse_zoneinfo9structure5ChildENtB1n_4LeafENtB1n_4EdgeE6insertNtNtBc_5alloc6GlobalEB24_
_RINvMsM_NtNtNtCshgx866xcH9W_5alloc11collections5btree4nodeINtB6_6HandleINtB6_7NodeRefNtNtB6_6marker3MutNtNtBc_6string6StringB1D_NtB1n_8InternalENtB1n_4EdgeE6insertNtNtBc_5alloc6GlobalECsgwZHJb2rARN_5vcpkg
_RINvMsN_NtNtNtCsaz9ix1H7t6h_5alloc11collections5btree4nodeINtB6_6HandleINtB6_7NodeRefNtNtB6_6marker3MutINtNtCs7XPJVOJwuEK_13serde_spanned7spanned7SpannedINtNtBc_6borrow3CoweEEIB1E_NtNtNtNtCs7NbdE0zyweH_4toml2de6parser7devalue7DeValueENtB1n_4LeafENtB1n_4EdgeE16insert_recursingNtNtBc_5alloc6GlobalNCNvMs6_NtNtB8_3map5entryINtB4S_11VacantEntryB1D_B2N_E6insert0EB30_
_RINvMsN_NtNtNtCshgx866xcH9W_5alloc11collections5btree4nodeINtB6_6HandleINtB6_7NodeRefNtNtB6_6marker3MutTjjEmNtB1n_4LeafENtB1n_4EdgeE16insert_recursingNtNtBc_5alloc6GlobalNCNvMs6_NtNtB8_3map5entryINtB2Q_11VacantEntryB1D_mE6insert0ECs91GDN4qvfiu_7similar
_RINvMsV_NtNtNtCshgx866xcH9W_5alloc11collections5btree4nodeINtB6_6HandleINtB6_7NodeRefNtNtB6_6marker3MutNtNtNtCs2GX3rYzX9NP_14regex_automata4util10primitives7StateIDNtNtNtB1J_3dfa5accel5AccelNtB1n_4LeafENtB1n_2KVE5splitNtNtBc_5alloc6GlobalEB1J_
_RINvMsW_NtNtNtCshgx866xcH9W_5alloc11collections5btree4nodeINtB6_6HandleINtB6_7NodeRefNtNtB6_6marker3MutNtNtBc_6string6StringNtNtCskt8TpxtZnof_4clap3app3AppNtB1n_8InternalENtB1n_2KVE5splitNtNtBc_5alloc6GlobalEB22_
_RINvMsZ_NtCs2FIVCi1Wrow_3std4pathNtB6_4Path3newReECsdsalOM6WbLb_13openssl_probe
_RINvMsZ_NtCs3NZLoJsOov_3std4pathNtB6_4Path3newNtNtCshgx866xcH9W_5alloc6string6StringECshFvNZPQTJhs_9async_std
_RINvMsZ_NtCs3NZLoJsOov_3std4pathNtB6_4Path3newNtNtNtB8_3ffi6os_str8OsStringECsgcFSzCu6SVo_15chrono_tz_build
_RINvMsZ_NtCs3NZLoJsOov_3std4pathNtB6_4Path4joinINtNtCshgx866xcH9W_5alloc6borrow3CowBu_EECskvdpLI7AOSZ_5insta
_RINvMsZ_NtCs3NZLoJsOov_3std4pathNtB6_4Path9ends_withRBu_ECsbPHw0ZMlxUx_2cc
_RINvMs_CskFZxpbhaWoe_8blockingNtB5_8Executor5spawnNtNtNtCshFvNZPQTJhs_9async_std2io6stderr5StateNCINvB5_7unblockBM_NCNvXBO_NtBO_6StderrNtNtCslG5yY4CbCNy_10futures_io6if_std10AsyncWrite10poll_flush0E0EBS_
_RINvMs_NtCs1VYxpr1ArYB_6object3podNtB5_5Bytes10read_sliceINtNtB7_3elf6Rela64NtNtB7_6endian10EndiannessEEB7_
_RINvMs_NtCs1VYxpr1ArYB_6object3podNtB5_5Bytes7read_atINtNtB7_3elf15SectionHeader64NtNtB7_6endian10EndiannessEEB7_
_RINvMs_NtCs5tx0e2t1Md0_9toml_edit5arrayNtB5_5Array12set_trailingNtNtB7_10raw_string9RawStringEB7_
_RINvMs_NtCs9CeMAa3GKYH_12erased_serde3serNtB5_2Ok4takeuECsbpMoz2BpSnY_9value_bag
_RINvMs_NtCsaz9ix1H7t6h_5alloc3vecINtB5_3VecNtNtCs9ZgoKwCKHe9_12tracing_core10dispatcher9RegistrarE6retainNCNvMNtNtBJ_8callsite11dispatchersNtB1K_11Dispatchers17register_dispatch0EBJ_
_RINvMs_NtCsbgyCs3cvOro_7zerovec5errorNtB5_12ZeroVecError5parseNtNtNtCs5JZIVDbtHij_14icu_properties8provider5names25NormalizedPropertyNameStrEB14_
_RINvMs_NtCscPEoIbs4Kuq_5yasna6readerNtB5_9BERReader20read_tagged_implicitNtNtCshgx866xcH9W_5alloc6string6StringNCNvB2_15read_utf8string0EB7_
_RINvMs_NtCshgx866xcH9W_5alloc3vecINtB5_3VecINtNtB7_4sync3ArcNtNtNtNtNtCs4USifnV5z1l_5tokio7runtime9scheduler12multi_thread6worker6WorkerEE5drainNtNtNtCsiL7B6CFZHyD_4core3ops5range9RangeFullEB16_
_RINvMs_NtCshgx866xcH9W_5alloc3vecINtB5_3VecNtNtCsfpw0g4wKxRM_12tracing_core10dispatcher9RegistrarE6retainNCNvMNtNtBJ_8callsite11dispatchersNtB1K_11Dispatchers17register_dispatch0EBJ_
_RINvMs_NtCshgx866xcH9W_5alloc3vecINtB5_3VecNtNtNtCslWI3VPFq81_12regex_syntax3hir7literal7LiteralE10retain_mutNCNvMsa_BH_NtBH_14PreferenceTrie8minimize0EBL_
_RINvMs_NtCsi7ON7NXDZEJ_9ansi_term4ansiNtNtB7_5style6Colour21write_foreground_codeDNtNtCsiL7B6CFZHyD_4core3fmt5WriteEL_EB7_
_RINvMs_NtNtCs1DT2mKzNIQv_4jiff3fmt8temporalNtB5_15DateTimePrinter19print_iso_week_dateINtB7_11StdFmtWriteQNtNtCsiL7B6CFZHyD_4core3fmt9FormatterEEB9_
_RINvMs_NtNtCs2cchV1ImpSo_4sval3fmt8to_debugNtB5_6Stream3fmtReEB9_
_RINvMs_NtNtCs455279n054P_10iri_string9normalize4pathNtB5_15PathToNormalize19fmt_write_normalizeNtNtB9_4spec7UriSpecNtNvMs_B5_BO_49ensure_rfc3986_normalizable_with_authority_absent15PrefixRetrieverEB9_
_RINvMs_NtNtCs6HoTchw45No_4http6header3mapNtB5_9HeaderMap4findNtNtB7_4name10HeaderNameECsl3mREbhXjXK_5hyper
_RINvMs_NtNtCsbLwEFGmkA9L_10rayon_core5sleep8countersNtB5_14AtomicCounters31increment_jobs_event_counter_ifNvMB5_NtB5_16JobsEventCounter9is_sleepyEB9_
_RINvMs_NtNtCsh1ZAnSc5i7h_4http6header3mapNtB5_9HeaderMap4get2NtNtB7_4name10HeaderNameECsc76UpEbWLyW_6multer
_RINvMs_NtNtCsiL7B6CFZHyD_4core4task4pollINtB5_4PollINtNtB9_6result6ResultNtNtNtCsk9QERyUqk6O_5tokio7runtime2io10ReadyEventNtNtNtCs3NZLoJsOov_3std2io5error5ErrorEE6map_okuNCNvMNtNtNtB1f_3net4unix6streamNtB2N_10UnixStream15poll_read_ready0EB1f_
_RINvMs_NtNtCslN86gTjml9v_18tracing_subscriber8registry10extensionsNtB5_10Extensions3getNtNtNtB9_3fmt9fmt_layer7TimingsEB9_
_RINvMs_NtNtNtCs6nv0K25L1YS_14regex_automata3nfa8thompson6pikevmNtB5_7Builder10build_manyReEBb_
_RINvMs_NtNtNtCsaz9ix1H7t6h_5alloc11collections5btree6searchINtNtB7_4node7NodeRefNtNtBY_6marker5ImmutNtNtBb_6string6StringNtNtCs3paU50YnTHN_10serde_json5value5ValueNtB1i_14LeafOrInternalE11search_treeeEB1Z_
_RINvMs_NtNtNtCshgx866xcH9W_5alloc11collections5btree4nodeINtB5_12InternalNodeNtNtNtCsfcZx8z6uiNH_14regex_automata4util10primitives7StateIDINtNtBb_3vec3VecNtB1f_9PatternIDEE3newNtNtBb_5alloc6GlobalEB1j_
_RINvMs_NtNtNtCshgx866xcH9W_5alloc11collections5btree6searchINtNtB7_4node7NodeRefNtNtBY_6marker3MutNtNtCseJ4fYN2mE0W_14parse_zoneinfo9structure5ChildNtNtB7_7set_val9SetValZSTNtB1i_14LeafOrInternalE11search_treeB1y_EB1C_
_RINvMs_NtNtNtCshgx866xcH9W_5alloc11collections5btree6searchINtNtB7_4node7NodeRefNtNtBY_6marker5ImmutNtNtNtCsfcZx8z6uiNH_14regex_automata4util10primitives7StateIDNtNtB7_7set_val9SetValZSTNtB1i_14LeafOrInternalE11search_treeB1A_EB1G_
_RINvMs_NtNtNtCslBVC6wF8Bgr_5tokio7runtime4task3rawNtB5_7RawTask3newINtNtNtB9_8blocking4task12BlockingTaskNCNvXsf_NtNtBb_3net4addreNtNtB1N_6sealed17ToSocketAddrsPriv15to_socket_addrs0ENtNtB18_8schedule16BlockingScheduleEBb_
_RINvMs_NtNtNtNtNtCs3NZLoJsOov_3std3sys6common12thread_local10fast_local4fastINtB5_3KeyINtNtCsiL7B6CFZHyD_4core4cell4CellTyyEEE14try_initializeNCNvNvNvMs1i_NtNtNtBf_11collections4hash3mapNtB2t_11RandomState3new4KEYS7___getit0ECs2mQEr5hutya_15crossbeam_utils
_RINvMs_NtNtNtNtNtCs3NZLoJsOov_3std3sys6common12thread_local10fast_local4fastINtB5_3KeyINtNtCsiL7B6CFZHyD_4core4cell4CellTyyEEE3getNCNvNvNvMs1i_NtNtNtBf_11collections4hash3mapNtB2h_11RandomState3new4KEYS7___getit0ECs2GX3rYzX9NP_14regex_automata
_RINvMs_NtNtNtNtNtCs3NZLoJsOov_3std3sys6common12thread_local10fast_local4fastINtB5_3KeyINtNtCsiL7B6CFZHyD_4core4cell4CellTyyEEE3getNCNvNvNvMs1i_NtNtNtBf_11collections4hash3mapNtB2h_11RandomState3new4KEYS7___getit0ECskTUq6jwe4oO_4http
_RINvMs_NtNtNtNtNtCs3NZLoJsOov_3std3sys6common12thread_local10fast_local4fastINtB5_3KeyNtNtCs3GpQl59W6pW_15crossbeam_epoch9collector11LocalHandleE14try_initializeNCNvNvNtB1q_7default6HANDLE7___getit0EB1q_
_RINvMs_NtNtNtNtNtCs3NZLoJsOov_3std3sys6common12thread_local10fast_local4fastINtB5_3KeyNtNtNtCsksserHSt5pJ_15crossbeam_utils4sync12sharded_lock12RegistrationE14try_initializeNCNvNvB1o_12REGISTRATION7___getit0EB1s_
_RINvMsa_NtCs2b7ntdtj2Hx_9hashbrown3rawNtB6_13RawTableInner16drop_inner_tablejNtNtNtB6_5alloc5inner6GlobalECs5tx0e2t1Md0_9toml_edit
_RINvMsa_NtCsfCLqCeWEhWn_9hashbrown3rawNtB6_13RawTableInner4iterTINtCsdSUiUOQRSv2_8dlv_list5IndexNtNtCshgx866xcH9W_5alloc6string6StringEINtNtCsa4pJCeafJ14_16ordered_multimap21list_ordered_multimap8MapEntryB1w_B1w_EEECs8c3TJ3X0nJ2_3ini
_RINvMsa_NtCsffYwmj09FSj_9hashbrown3rawNtB6_13RawTableInner16drop_inner_tableTNtNtCsaz9ix1H7t6h_5alloc6string6StringuENtNtB1h_5alloc6GlobalECs3fINW8eOU7_5hyper
_RINvMsa_NtCshpKpake7nJI_12regex_syntax3hirNtB6_12ClassUnicode3newINtNtNtNtCsiL7B6CFZHyD_4core4iter8adapters3map3MapINtNtNtCshgx866xcH9W_5alloc3vec9into_iter8IntoItercENCNvMs3_B6_NtB6_3Hir11alternation0EEB8_
_RINvMsb_NtNtCs20txnxQ5U84_7bindgen2ir7contextNtB6_14BindgenContext14rust_ident_rawINtNtCshgx866xcH9W_5alloc6borrow3CoweEEBa_
_RINvMsb_NtNtNtCsaz9ix1H7t6h_5alloc11collections5btree8navigateINtB6_13LazyLeafRangeNtNtNtB8_4node6marker5DyingINtNtBc_5boxed3BoxShEjE27deallocating_next_uncheckedNtNtBc_5alloc6GlobalECs6Ps44CJ3Bgw_12aho_corasick
_RINvMsb_NtNtNtCshgx866xcH9W_5alloc11collections5btree8navigateINtB6_13LazyLeafRangeNtNtNtB8_4node6marker5DyingNtNtBc_6string6StringNtCsgwZHJb2rARN_5vcpkg4PortE16deallocating_endNtNtBc_5alloc6GlobalEB27_
_RINvMsb_NtNtNtCshgx866xcH9W_5alloc11collections5btree8navigateINtB6_13LazyLeafRangeNtNtNtB8_4node6marker5DyingNtNtNtCsfcZx8z6uiNH_14regex_automata4util10primitives7StateIDINtNtBc_3vec3VecNtB1M_9PatternIDEE16deallocating_endNtNtBc_5alloc6GlobalEB1Q_
_RINvMsc_Cs9iAySmc3qED_8smallvecINtB6_8SmallVecANtCsli4EU09fds1_14icu_normalizer17CharacterAndClassj11_E5drainINtNtNtCs5cYH0lLSdLc_4core3ops5range7RangeTojEEBL_
_RINvMsc_NtCsj4OnrmWjBOa_4eyre3ptrINtB6_6MutPtrNtNtB8_5error9ErrorImplE4castIBI_NtNtCshgx866xcH9W_5alloc6string6StringEEB8_
_RINvMsd_Csa8oHncfoATc_6subtleINtB6_8CtOptionNtNtCsfiQkL0vmKw2_13crypto_bigint4limb4LimbE8and_thenBG_NCNvXs8_NtBI_3subRINtNtBK_7checked7CheckedBG_EINtNtNtCsiL7B6CFZHyD_4core3ops5arith3SubB1S_E3sub0EBK_
_RINvMse_NtNtCs57lu83pa5Ym_4jiff4util8rangeintINtB6_3ri8Kn1_Kn1f_E3minINtB6_4ri32Knn6f7524_Kn6f7524_EEBa_
_RINvMsf_NtCs23yxf7uxwGf_12regex_syntax3hirNtB6_10ClassBytes3newANtB6_15ClassBytesRangej2_EB8_
_RINvMsg_NtCs7nhZ8ZQkb1t_7litemap3mapINtB6_7LiteMapNtNtNtNtCsaCO2qWNJEWF_9icu_locid10extensions7unicode3key3KeyNtNtBQ_5value5ValueINtNtBU_8shortvec13ShortBoxSliceTBM_B1K_EEE6retainNCINvMNtBQ_8keywordsNtB2X_8Keywords13retain_by_keyNCNvMNtNtCseytyDyWBuek_19icu_locid_transform8fallback10algorithmsNtB3M_26LocaleFallbackerWithConfig9normalize0E0EB3O_
_RINvMsg_NtNtNtCsiL7B6CFZHyD_4core4iter8adapters7flattenINtB6_13FlattenCompatINtNtB8_3map3MapINtB6_7FlatMapINtNtBc_6option8IntoIterReEIB1d_INtNtNtBc_3str4iter5SplitNCNCNvMs0_NtNtCs5xbKWwF31JS_7headers4util8flat_csvNtB2L_7FlatCsv4iter00ENCB2D_s_0ENCB2F_0ENvMNtB2N_6entityINtB46_9EntityTagB24_E5parseEIB1H_B4j_EE13iter_try_folduNCINvNvXsi_B6_IBS_ppENtNtNtBa_6traits8iterator8Iterator8try_fold7flattenB4M_uINtNtNtBc_3ops12control_flow11ControlFlowuENCINvNvB5y_3any5checkB4j_NCINvMs4_B46_NtB46_14EntityTagRange10matches_ifNCNvB7D_12matches_weak0E0E0E0B6s_EB2P_
_RINvMsh_NtCshK2h5RPyNs1_9hashbrown3rawINtB6_12RawIterRangeTINtNtCshgx866xcH9W_5alloc5boxed3BoxSIBW_NtNtNtCs3NZLoJsOov_3std3ffi6os_str5OsStrEENtNtCsbPHw0ZMlxUx_2cc4tool10ToolFamilyEE9next_implKb0_EB2j_
_RINvMsh_NtCshK2h5RPyNs1_9hashbrown3rawINtB6_12RawIterRangeTNtNtCshgx866xcH9W_5alloc6string6StringuEE9next_implKb0_ECs20txnxQ5U84_7bindgen
_RINvMsh_NtCshK2h5RPyNs1_9hashbrown3rawINtB6_12RawIterRangeTRReINtNtCshgx866xcH9W_5alloc3vec3VecjEEE9next_implKb0_ECs2P2SgBKwLCl_7difflib
_RINvMsh_NtNtNtCsaz9ix1H7t6h_5alloc11collections5btree4nodeINtB6_7NodeRefNtNtB6_6marker5DyingNtNtNtCs2FIVCi1Wrow_3std3ffi6os_str8OsStringINtNtCs5cYH0lLSdLc_4core6option6OptionB1s_ENtB1a_14LeafOrInternalE21deallocate_and_ascendNtNtBc_5alloc6GlobalECsgyZjmySQ4Ff_13rustc_version
_RINvMsh_NtNtNtCshgx866xcH9W_5alloc11collections5btree4nodeINtB6_7NodeRefNtNtB6_6marker5DyingReINtNtB8_3set8BTreeSetNtNtCsgq42crzOkKS_14parse_zoneinfo9structure5ChildENtB1a_14LeafOrInternalE21deallocate_and_ascendNtNtBc_5alloc6GlobalEB1T_
_RINvMsi_NtCsaz9ix1H7t6h_5alloc3vecINtB6_3VecIBx_hEE16extend_desugaredQNtNtCshSShGIPsvM2_5shlex5bytes5ShlexEB1a_
_RINvMsi_NtCsaz9ix1H7t6h_5alloc3vecINtB6_3VecNtNtCs2X71yuh7ehP_12regex_syntax3hir17ClassUnicodeRangeE14extend_trustedINtNtNtNtCs5cYH0lLSdLc_4core4iter8adapters3map3MapINtNtNtB1Z_5slice4iter4IterTccEENCNvNtBK_7unicode9hir_class0EEBK_
_RINvMsi_NtCsaz9ix1H7t6h_5alloc3vecINtB6_3VecNtNtCs9nCsezDqTf4_12regex_syntax3hir17ClassUnicodeRangeE14extend_trustedINtNtNtNtCs5cYH0lLSdLc_4core4iter8adapters3map3MapINtNtNtB1Z_5slice4iter4IterNtBI_15ClassBytesRangeENCNvMsf_BI_NtBI_10ClassBytes16to_unicode_class0EEBK_
_RINvMsi_NtCsaz9ix1H7t6h_5alloc3vecINtB6_3VecRNtNtCs1QsE4eqaow9_6winnow5error15StrContextValueE16extend_desugaredINtNtNtNtCs5cYH0lLSdLc_4core4iter8adapters10filter_map9FilterMapINtNtNtB1V_5slice4iter4IterNtBJ_10StrContextENCNvXsx_BJ_NtBJ_12ContextErrorNtNtB1V_3fmt7Display3fmts_0EEBL_
_RINvMsi_NtCsaz9ix1H7t6h_5alloc3vecINtB6_3VecmE14extend_trustedINtNtNtCs5cYH0lLSdLc_4core5array4iter8IntoItermKj2_EECsai8lOoaLHBZ_15icu_collections
_RINvMsi_NtCshgx866xcH9W_5alloc3vecINtB6_3VecINtCs28jDdmsL6FU_12thread_local5EntryINtNtCsiL7B6CFZHyD_4core4cell7RefCellNtNtNtCs1XKReJ1SRGG_18tracing_subscriber8registry5stack9SpanStackEEE14extend_trustedINtNtNtNtB1m_4iter8adapters3map3MapINtNtNtB1m_3ops5range5RangejENCINvBJ_15allocate_bucketB1h_E0EEB1Y_
_RINvMsi_NtCshgx866xcH9W_5alloc3vecINtB6_3VecINtNtNtCsaWmuPV6hRxo_12sharded_slab4page4slot4SlotNtNtNtCs9vszGGFNfUy_18tracing_subscriber8registry7sharded9DataInnerNtNtBN_3cfg13DefaultConfigEE14extend_trustedINtNtNtNtCsiL7B6CFZHyD_4core4iter8adapters3map3MapINtNtNtB3q_3ops5range5RangejENvMs2_BJ_BG_3newEEB1A_
_RINvMsi_NtCshgx866xcH9W_5alloc3vecINtB6_3VecNtNtB8_6string6StringE14extend_trustedINtNtNtNtCsiL7B6CFZHyD_4core4iter8adapters3map3MapINtNtNtB1r_5array4iter8IntoIterReKj1_ENCINvMs_NtCscZCgdd1uAPc_5regex8buildersNtB2Q_7Builder3newAB2B_B2E_B2B_E0EEB2S_
_RINvMsi_NtCshgx866xcH9W_5alloc3vecINtB6_3VecNtNtB8_6string6StringE16extend_desugaredINtNtNtNtCsiL7B6CFZHyD_4core4iter8adapters10filter_map9FilterMapINtNtNtB1t_3str4iter5SplitcENCNCNvNtCsjqskpxju8cF_5which3sys14parse_path_exts_00EEB2W_
_RINvMsi_NtCshgx866xcH9W_5alloc3vecINtB6_3VecNtNtCs1cxMKpSN2o4_3syn4data5FieldE14extend_trustedINtNtCsiL7B6CFZHyD_4core6option8IntoIterBG_EEBK_
_RINvMsi_NtCshgx866xcH9W_5alloc3vecINtB6_3VecNtNtCs3NZLoJsOov_3std4path7PathBufE16extend_desugaredNtNtBK_3env10SplitPathsECsi6pTmhHIU5M_9clang_sys
_RINvMsi_NtCshgx866xcH9W_5alloc3vecINtB6_3VecNtNtCs6c37mDEUb8k_12regex_syntax3hir15ClassBytesRangeE14extend_trustedINtNtNtNtCsiL7B6CFZHyD_4core4iter8adapters3map3MapINtNtNtB1X_5slice4iter4IterNtBI_17ClassUnicodeRangeENCNvMsa_BI_NtBI_12ClassUnicode13to_byte_class0EEBK_
_RINvMsi_NtCshgx866xcH9W_5alloc3vecINtB6_3VecNtNtCsjh4mrTFEWVx_12regex_syntax3hir15ClassBytesRangeE14extend_trustedINtNtNtCsiL7B6CFZHyD_4core5array4iter8IntoIterBG_Kj2_EEBK_
_RINvMsi_NtCshgx866xcH9W_5alloc3vecINtB6_3VecNtNtNtCs20txnxQ5U84_7bindgen2ir7context6ItemIdE16extend_desugaredNtNtBK_4item17ItemAncestorsIterEBM_
_RINvMsi_NtCshgx866xcH9W_5alloc3vecINtB6_3VecNtNtNtCsbHXshUE3PXC_10der_parser3ber3ber9BerObjectE16extend_desugaredINtNtNtCsiL7B6CFZHyD_4core4iter8adapters12GenericShuntINtNtB1Q_3map3MapINtNtNtNtCsfcdQbM8XNhc_7asn1_rs10asn1_types8sequence8iterator16SequenceIteratorNtNtB33_3any3AnyNtNtB35_6traits9BerParserENCNvNtBK_8wrap_any22try_berobject_from_anys_0EINtNtB1U_6result6ResultNtNtB1U_7convert10InfallibleNtNtB35_5error5ErrorEEEBM_
_RINvMsi_NtCshgx866xcH9W_5alloc3vecINtB6_3VecNtNtNtNtNtCslBVC6wF8Bgr_5tokio7runtime4time5wheel5level5LevelE14extend_trustedINtNtNtNtCsiL7B6CFZHyD_4core4iter8adapters3map3MapINtNtNtB25_3ops5range5RangejENvMBI_BG_3newEEBQ_
_RINvMsi_NtCshgx866xcH9W_5alloc3vecINtB6_3VecReE16extend_desugaredINtNtNtCsiL7B6CFZHyD_4core3str4iter5SplitcEECs20txnxQ5U84_7bindgen
_RINvMsi_NtCshgx866xcH9W_5alloc3vecINtB6_3VecTRebEE14extend_trustedINtNtNtNtCsiL7B6CFZHyD_4core4iter8adapters3map3MapINtNtNtB1b_5slice4iter4IterBH_ENCNvMNtCskt8TpxtZnof_4clap3appNtB2q_3App7aliases0EEB2s_
_RINvMsi_NtCshgx866xcH9W_5alloc3vecINtB6_3VechE14extend_trustedINtNtNtNtCsiL7B6CFZHyD_4core4iter8adapters4take4TakeINtNtNtB15_7sources6repeat6RepeathEEECs4YuQlQH4i4p_11pem_rfc7468
_RINvMsi_NtCshgx866xcH9W_5alloc3vecINtB6_3VecmE14extend_trustedINtNtNtNtCsiL7B6CFZHyD_4core4iter8adapters4take4TakeINtNtNtB15_7sources6repeat6RepeatmEEECs89pdyz7HZkL_12aho_corasick
_RINvMsi_NtCshgx866xcH9W_5alloc3vecINtB6_3VecyE14extend_trustedINtNtNtNtCsiL7B6CFZHyD_4core4iter8adapters3map3MapINtNtNtB17_5slice4iter6ChunksmENvNtCsg6ZIQJj5H2g_10num_bigint7biguint16u32_chunk_to_u64EEB2l_
_RINvMsi_NtNtNtCshgx866xcH9W_5alloc11collections5btree3mapINtB6_8BTreeMapNtNtBc_6string6StringNtCsgwZHJb2rARN_5vcpkg4PortE12contains_keyB18_EB1v_
_RINvMsi_NtNtNtCshgx866xcH9W_5alloc11collections5btree3mapINtB6_8BTreeMapReINtNtB8_3set8BTreeSetNtNtCseJ4fYN2mE0W_14parse_zoneinfo9structure5ChildEE3geteEB1z_
_RINvMsj_NtNtCs8u8Bt1oxYji_14regex_automata4meta5regexNtB6_7Builder19build_many_from_hirRNtNtCslWI3VPFq81_12regex_syntax3hir3HirEBa_
_RINvMsj_NtNtNtCshgx866xcH9W_5alloc11collections5btree8navigateINtNtB8_4node6HandleINtB11_7NodeRefNtNtB11_6marker5DyingINtNtBc_3vec3VecNtNtNtCs2GX3rYzX9NP_14regex_automata4util10primitives9PatternIDENtNtNtB2e_3dfa8minimize8StateSetNtB1z_4LeafENtB1z_4EdgeE17deallocating_nextNtNtBc_5alloc6GlobalEB2e_
_RINvMsj_NtNtNtCshgx866xcH9W_5alloc11collections5btree8navigateINtNtB8_4node6HandleINtB11_7NodeRefNtNtB11_6marker5DyingNtNtNtCs2GX3rYzX9NP_14regex_automata4util10primitives7StateIDNtNtB8_7set_val9SetValZSTNtB1z_4LeafENtB1z_4EdgeE17deallocating_nextNtNtBc_5alloc6GlobalEB1Y_
_RINvMsj_NtNtNtCshgx866xcH9W_5alloc11collections5btree8navigateINtNtB8_4node6HandleINtB11_7NodeRefNtNtB11_6marker5DyingTjjEmNtB1z_4LeafENtB1z_4EdgeE17deallocating_nextNtNtBc_5alloc6GlobalECsh0qnI37SO6t_7similar
_RINvMsk_NtCs2FIVCi1Wrow_3std7processNtB6_7Command11current_dirINtNtCsaz9ix1H7t6h_5alloc6borrow3CowNtNtB8_4path4PathEECskmFptwX7bJS_2cc
_RINvMsk_NtCs3NZLoJsOov_3std7processNtB6_7Command11current_dirINtNtCshgx866xcH9W_5alloc6borrow3CowNtNtB8_4path4PathEECsbPHw0ZMlxUx_2cc
_RINvMsk_NtCs3NZLoJsOov_3std7processNtB6_7Command4argsINtNtNtNtCsiL7B6CFZHyD_4core4iter8adapters3map3MapINtNtNtBY_5slice4iter4IterINtNtCshgx866xcH9W_5alloc4sync3ArcNtNtNtB8_3ffi6os_str5OsStrEENvYB23_NtNtNtBY_3ops5deref5Deref5derefERB2B_ECsbPHw0ZMlxUx_2cc
_RINvMsl_NtCs5cYH0lLSdLc_4core5arrayANtNtNtNtCsdTuBsJ9FlQ2_12aho_corasick6packed5teddy7generic15SlimMaskBuilderj1_3mapNCINvMsd_BA_By_10from_teddyKB1K_NtNtNtB8_9core_arch3x867___m128iE0INtBA_4MaskB2n_EEBG_
_RINvMsl_NtCsiL7B6CFZHyD_4core5arrayANtNtNtNtCsc9MEfsw61gC_12aho_corasick6packed5teddy7generic15SlimMaskBuilderj1_7try_mapNCINvMNtNtB8_3ops9try_traitINtB21_17NeverShortCircuitINtBA_4MaskNtNtNtB8_9core_arch3x867___m256iEE10wrap_mut_1By_NCINvMsd_BA_By_10from_teddyKB1K_B2X_E0E0B2m_EBG_
_RINvMsl_NtNtCs3NZLoJsOov_3std3ffi6os_strNtB6_5OsStr3newNtNtCshgx866xcH9W_5alloc6string6StringECsbPHw0ZMlxUx_2cc
_RINvMsl_NtNtNtCshgx866xcH9W_5alloc11collections5btree4nodeINtB6_7NodeRefNtNtB6_6marker3MutINtNtBc_4sync3ArceENtNtNtCsfcZx8z6uiNH_14regex_automata4util10primitives10SmallIndexNtB1a_8InternalE12val_area_mutjINtNtNtCsiL7B6CFZHyD_4core3mem12maybe_uninit11MaybeUninitB1J_EEB1P_
_RINvMsl_NtNtNtCshgx866xcH9W_5alloc11collections5btree4nodeINtB6_7NodeRefNtNtB6_6marker3MutINtNtBc_5boxed3BoxeENtNtB8_7set_val9SetValZSTNtB1a_8InternalE12key_area_mutINtNtNtCsiL7B6CFZHyD_4core3ops5range7RangeTojESINtNtNtB2K_3mem12maybe_uninit11MaybeUninitB1q_EECs20txnxQ5U84_7bindgen
_RINvMsl_NtNtNtCshgx866xcH9W_5alloc11collections5btree4nodeINtB6_7NodeRefNtNtB6_6marker3MutNtNtBc_6string6StringNtCsgwZHJb2rARN_5vcpkg4PortNtB1a_8InternalE12val_area_mutINtNtNtCsiL7B6CFZHyD_4core3ops5range5RangejESINtNtNtB2N_3mem12maybe_uninit11MaybeUninitB1L_EEB1N_
_RINvMsl_NtNtNtCshgx866xcH9W_5alloc11collections5btree4nodeINtB6_7NodeRefNtNtB6_6marker3MutNtNtBc_6string6StringbNtB1a_8InternalE12val_area_mutjINtNtNtCsiL7B6CFZHyD_4core3mem12maybe_uninit11MaybeUninitbEECskvdpLI7AOSZ_5insta
_RINvMsl_NtNtNtCshgx866xcH9W_5alloc11collections5btree4nodeINtB6_7NodeRefNtNtB6_6marker3MutNtNtCsgq42crzOkKS_14parse_zoneinfo9structure5ChildNtNtB8_7set_val9SetValZSTNtB1a_4LeafE12key_area_mutINtNtNtCsiL7B6CFZHyD_4core3ops5range7RangeTojESINtNtNtB3a_3mem12maybe_uninit11MaybeUninitB1q_EEB1u_
_RINvMsl_NtNtNtCshgx866xcH9W_5alloc11collections5btree4nodeINtB6_7NodeRefNtNtB6_6marker3MutNtNtNtCs20txnxQ5U84_7bindgen2ir7context6ItemIdB1q_NtB1a_8InternalE12val_area_mutINtNtNtCsiL7B6CFZHyD_4core3ops5range5RangejESINtNtNtB2P_3mem12maybe_uninit11MaybeUninitB1q_EEB1w_
_RINvMsl_NtNtNtCshgx866xcH9W_5alloc11collections5btree4nodeINtB6_7NodeRefNtNtB6_6marker3MutNtNtNtCs2GX3rYzX9NP_14regex_automata4util10primitives7StateIDNtNtB8_7set_val9SetValZSTNtB1a_4LeafE12val_area_mutjINtNtNtCsiL7B6CFZHyD_4core3mem12maybe_uninit11MaybeUninitB2p_EEB1w_
_RINvMsl_NtNtNtCshgx866xcH9W_5alloc11collections5btree4nodeINtB6_7NodeRefNtNtB6_6marker3MutNtNtNtCsfcZx8z6uiNH_14regex_automata4util10primitives7StateIDINtNtBc_3vec3VecNtB1s_9PatternIDENtB1a_14LeafOrInternalE12key_area_mutINtNtNtCsiL7B6CFZHyD_4core3ops5range7RangeTojESINtNtNtB3E_3mem12maybe_uninit11MaybeUninitB1q_EEB1w_
_RINvMsl_NtNtNtCshgx866xcH9W_5alloc11collections5btree4nodeINtB6_7NodeRefNtNtB6_6marker3MutNtNtNtCsfcZx8z6uiNH_14regex_automata4util10primitives7StateIDNtNtNtB1w_3dfa5accel5AccelNtB1a_8InternalE12val_area_mutINtNtNtCsiL7B6CFZHyD_4core3ops5range5RangejESINtNtNtB3q_3mem12maybe_uninit11MaybeUninitB2p_EEB1w_
_RINvMsl_NtNtNtCshgx866xcH9W_5alloc11collections5btree4nodeINtB6_7NodeRefNtNtB6_6marker3MutReINtNtB8_3set8BTreeSetNtNtCsgq42crzOkKS_14parse_zoneinfo9structure5ChildENtB1a_4LeafE12key_area_mutINtNtNtCsiL7B6CFZHyD_4core3ops5range7RangeTojESINtNtNtB39_3mem12maybe_uninit11MaybeUninitB1q_EEB1R_
_RINvMsl_NtNtNtCshgx866xcH9W_5alloc11collections5btree4nodeINtB6_7NodeRefNtNtB6_6marker3MutTRNtNtBc_6string6StringB1r_INtNtCsiL7B6CFZHyD_4core6option6OptionB1r_EERINtNtB8_3map8BTreeMapB1s_B1s_ENtB1a_8InternalE12val_area_mutINtNtNtB1W_3ops5range5RangejESINtNtNtB1W_3mem12maybe_uninit11MaybeUninitB2z_EECsgwZHJb2rARN_5vcpkg
_RINvMsl_NtNtNtCshgx866xcH9W_5alloc11collections5btree4nodeINtB6_7NodeRefNtNtB6_6marker3MutTjjEmNtB1a_8InternalE12key_area_mutjINtNtNtCsiL7B6CFZHyD_4core3mem12maybe_uninit11MaybeUninitB1q_EECsfjsGG03OZM8_7similar
_RINvMsl_NtNtNtCshgx866xcH9W_5alloc11collections5btree4nodeINtB6_7NodeRefNtNtB6_6marker3MutjNtNtNtNtNtCskvdpLI7AOSZ_5insta7content4yaml8vendored4yaml4YamlNtB1a_4LeafE12val_area_mutINtNtNtCsiL7B6CFZHyD_4core3ops5range5RangejESINtNtNtB2Y_3mem12maybe_uninit11MaybeUninitB1r_EEB1B_
_RINvMsm_NtNtCs3paU50YnTHN_10serde_json5value2deNtB8_5Value12invalid_typeNtNtBa_5error5ErrorEBa_
_RINvMsm_NtNtNtCshgx866xcH9W_5alloc11collections5btree4nodeINtB6_7NodeRefNtNtB6_6marker3MutNtNtCs1dEy6nitbLR_7console5utils9AttributeNtNtB8_7set_val9SetValZSTNtB1a_8InternalE13edge_area_mutINtNtNtCsiL7B6CFZHyD_4core3ops5range7RangeTojESINtNtNtB37_3mem12maybe_uninit11MaybeUninitINtNtNtB37_3ptr8non_null7NonNullINtB6_8LeafNodeB1q_B26_EEEEB1u_
_RINvMsm_NtNtNtCshgx866xcH9W_5alloc11collections5btree4nodeINtB6_7NodeRefNtNtB6_6marker3MutNtNtNtNtCsfcZx8z6uiNH_14regex_automata4util11determinize5state5StateNtNtB1w_10primitives7StateIDNtB1a_8InternalE13edge_area_mutINtNtNtCsiL7B6CFZHyD_4core3ops5range5RangejESINtNtNtB3A_3mem12maybe_uninit11MaybeUninitINtNtNtB3A_3ptr8non_null7NonNullINtB6_8LeafNodeB1q_B2w_EEEEB1y_
_RINvMsm_NtNtNtCshgx866xcH9W_5alloc11collections5btree4nodeINtB6_7NodeRefNtNtB6_6marker3MutyNtNtNtCs33TE7WC04bj_5gimli4read6abbrev12AbbreviationNtB1a_8InternalE13edge_area_mutjINtNtNtCsiL7B6CFZHyD_4core3mem12maybe_uninit11MaybeUninitINtNtNtB2U_3ptr8non_null7NonNullINtB6_8LeafNodeyB1r_EEEEB1x_
_RINvMsm_NtNtNtCshgx866xcH9W_5alloc11collections5btree8navigateINtNtB8_4node6HandleINtB11_7NodeRefNtNtB11_6marker5DyingReRDNtNtNtCskt8TpxtZnof_4clap3app4help12ArgWithOrderEL_NtB1z_4LeafENtB1z_4EdgeE27deallocating_next_uncheckedNtNtBc_5alloc6GlobalEB22_
_RINvMsp_NtNtNtCsaz9ix1H7t6h_5alloc11collections5btree4nodeINtB6_7NodeRefNtNtB6_6marker3MutNtNtBc_6string6StringNtNtCs3paU50YnTHN_10serde_json5value5ValueNtB1a_8InternalE30correct_childrens_parent_linksINtNtNtCs5cYH0lLSdLc_4core3ops5range14RangeInclusivejEEB1P_
_RINvMsp_NtNtNtCshgx866xcH9W_5alloc11collections5btree4nodeINtB6_7NodeRefNtNtB6_6marker3MutNtNtCs3NZLoJsOov_3std4path7PathBufINtNtBc_4sync3ArcNtNtCskvdpLI7AOSZ_5insta3env10ToolConfigENtB1a_8InternalE30correct_childrens_parent_linksINtNtNtCsiL7B6CFZHyD_4core3ops5range14RangeInclusivejEEB2j_
_RINvMsp_NtNtNtCshgx866xcH9W_5alloc11collections5btree4nodeINtB6_7NodeRefNtNtB6_6marker3MutTjjEmNtB1a_8InternalE30correct_childrens_parent_linksINtNtNtCsiL7B6CFZHyD_4core3ops5range14RangeInclusivejEECs91GDN4qvfiu_7similar
_RINvMsr_NtCs3NZLoJsOov_3std4pathNtB6_7PathBuf13set_file_nameNtNtCshgx866xcH9W_5alloc6string6StringECskvdpLI7AOSZ_5insta
_RINvMsr_NtNtCsiL7B6CFZHyD_4core4sync6atomicNtB6_8AtomicU812fetch_updateNCNvMNtNtNtCsklwbDpGs7SM_12futures_util6stream6stream17flatten_unorderedNtB1c_15SharedPollState12stop_polling0EB1i_
_RINvMss_NtNtNtCshgx866xcH9W_5alloc11collections5btree4nodeINtB6_7NodeRefNtNtB6_6marker5OwnedNtNtNtCs20txnxQ5U84_7bindgen2ir7context6ItemIdNtNtB8_7set_val9SetValZSTNtB1a_14LeafOrInternalE19push_internal_levelNtNtBc_5alloc6GlobalEB1y_
_RINvMsu_NtNtCs1DT2mKzNIQv_4jiff2tz6offsetNtB6_14OffsetConflict18resolve_via_preferNCNvMNtNtNtBa_3fmt8temporal6parserNtB1n_14ParsedDateTime18to_ambiguous_zoneds_0EBa_
_RINvMsu_NtNtCsiL7B6CFZHyD_4core3str7patternNtB6_14TwoWaySearcher4nextNtB6_14RejectAndMatchECsh0bLIT8i1WW_5cesu8
_RINvMsu_NtNtCsiL7B6CFZHyD_4core3str7patternNtB6_14TwoWaySearcher4nextNtB6_9MatchOnlyECsgIwdqgcNuRU_5serde
_RINvMsw_NtCsfCLqCeWEhWn_9hashbrown3mapINtB6_15RawEntryBuilderINtCsdSUiUOQRSv2_8dlv_list5IndexINtNtCsiL7B6CFZHyD_4core6option6OptionNtNtCshgx866xcH9W_5alloc6string6StringEEINtNtCsa4pJCeafJ14_16ordered_multimap21list_ordered_multimap8MapEntryB1t_NtCs8c3TJ3X0nJ2_3ini10PropertiesENtB2M_10DummyStateE6searchNCINvB2M_9raw_entryB1t_B1t_B3U_B4r_E0EB3W_
_RINvMsw_NtCshDAon63rG69_10ttf_parser6parserNtB6_6Stream12read_array16sEB8_
_RINvMsw_NtCshDAon63rG69_10ttf_parser6parserNtB6_6Stream4skipNtB8_7GlyphIdEB8_
_RINvMsx_NtNtCs5cYH0lLSdLc_4core3str7patternNtB6_14TwoWaySearcher4nextNtB6_9MatchOnlyECskLaOWpELs51_11toml_parser
_RINvNtCs1VYxpr1ArYB_6object3pod16slice_from_bytesINtNtB4_3elf5Rel64NtNtB4_6endian10EndiannessEEB4_
_RINvNtCs1cxMKpSN2o4_3syn5token6DotDotNtCsgMKgB7mnEUJ_11proc_macro24SpanEB4_
_RINvNtCs20txnxQ5U84_7bindgen5clang14visit_childrenNCINvMs0_B2_NtB2_6Cursor9has_attrsKj3_E0EB4_
_RINvNtCs2FIVCi1Wrow_3std2fs14create_dir_allRNtNtB4_4path4PathECskmFptwX7bJS_2cc
_RINvNtCs2FIVCi1Wrow_3std3env6var_osReECs2WU2hRDnNVz_5tokio
_RINvNtCs2FIVCi1Wrow_3std5panic12catch_unwindINtNtNtCs5cYH0lLSdLc_4core5panic11unwind_safe16AssertUnwindSafeNCNvNtCsbLwEFGmkA9L_10rayon_core8registry9main_loops_0EuEB1N_
_RINvNtCs2YROZcXxY28_11num_integer5roots8fixpointoNCNvNvXs8_B2_oNtB2_5Roots8nth_root2go0EB4_
_RINvNtCs3NZLoJsOov_3std2fs11remove_fileRNtNtB4_4path4PathECsa94rZrxPy6K_8tempfile
_RINvNtCs3NZLoJsOov_3std2fs8metadataRNtNtB4_4path4PathECs8qPlBtFINoP_4glob
_RINvNtCs3NZLoJsOov_3std2io16append_to_stringNCINvB2_22default_read_to_stringINtNtNtCsaGnL1G5hXQS_9tiny_http4util12fused_reader11FusedReaderINtNtB1h_12equal_reader11EqualReaderINtNtB1h_10sequential16SequentialReaderINtNtNtB2_8buffered9bufreader9BufReaderNtNtB1h_18refined_tcp_stream16RefinedTcpStreamEEEEE0EB1j_
_RINvNtCs3NZLoJsOov_3std2io18default_read_exactNtNtB4_2fs4FileECshKX2nQO4Ie9_8tempfile
_RINvNtCs3NZLoJsOov_3std3env11split_pathsNtNtNtB4_3ffi6os_str5OsStrECsdFgnYT9J9Ql_15find_msvc_tools
_RINvNtCs3NZLoJsOov_3std3env7set_varRNtNtCshgx866xcH9W_5alloc6string6StringBy_ECsgkuLB8QpvsT_7dotenvy
_RINvNtCs3NZLoJsOov_3std5panic12catch_unwindINtNtNtCsiL7B6CFZHyD_4core5panic11unwind_safe16AssertUnwindSafeNCINvNtNtNtCs4USifnV5z1l_5tokio7runtime4task7harness11poll_futureINtNtNtB1P_8blocking4task12BlockingTaskINtNtCshgx866xcH9W_5alloc5boxed3BoxNCNvXs_NtNtB1R_2io8blockingINtB42_8BlockingNtNtNtB4_2io5stdio6StdoutENtNtB44_11async_write10AsyncWrite10poll_flush0EENtNtB2O_8schedule16BlockingScheduleE0EINtNtNtBM_4task4poll4PollTINtNtBM_6result6ResultjNtNtB4G_5error5ErrorENtB42_3BufB4C_EEEB1R_
_RINvNtCs3NZLoJsOov_3std5panic12catch_unwindINtNtNtCsiL7B6CFZHyD_4core5panic11unwind_safe16AssertUnwindSafeNCINvNtNtNtCsk9QERyUqk6O_5tokio7runtime4task7harness11poll_futureINtNtNtB1P_8blocking4task12BlockingTaskINtNtCshgx866xcH9W_5alloc5boxed3BoxNCNvXsh_NtNtB1R_3net4addrTRetENtNtB43_6sealed17ToSocketAddrsPriv15to_socket_addrs0EENtNtB2O_8schedule16BlockingScheduleE0EINtNtNtBM_4task4poll4PollINtNtBM_6result6ResultINtNtNtB3r_3vec9into_iter8IntoIterNtNtNtBM_3net11socket_addr10SocketAddrENtNtNtB4_2io5error5ErrorEEEB1R_
_RINvNtCs3NZLoJsOov_3std5panic12catch_unwindINtNtNtCsiL7B6CFZHyD_4core5panic11unwind_safe16AssertUnwindSafeNCINvNtNtNtCslBVC6wF8Bgr_5tokio7runtime4task7harness11poll_futureINtNtNtB1P_8blocking4task12BlockingTaskNCNvXs5_NtNtNtNtCsjkF96kpyiNs_10hyper_util6client6legacy7connect3dnsNtB3u_11GaiResolverINtCserb3mYjM2WA_13tower_service7ServiceNtB3u_4NameE4call0ENtNtB2O_8schedule16BlockingScheduleE0EINtNtNtBM_4task4poll4PollINtNtBM_6result6ResultNtB3u_11SocketAddrsNtNtNtB4_2io5error5ErrorEEEB3C_
_RINvNtCs3NZLoJsOov_3std5panic12catch_unwindINtNtNtCsiL7B6CFZHyD_4core5panic11unwind_safe16AssertUnwindSafeNCINvNtNtNtNtNtB4_3sys6common12thread_local10fast_local4fast13destroy_valueINtNtBM_4cell4CellTyyEEE0EuECsdJUMyDMcOD8_6strsim
_RINvNtCs3NZLoJsOov_3std5panic12catch_unwindINtNtNtCsiL7B6CFZHyD_4core5panic11unwind_safe16AssertUnwindSafeNCINvNtNtNtNtNtB4_3sys6common12thread_local10fast_local4fast13destroy_valueINtNtCshgx866xcH9W_5alloc2rc2RcINtNtBM_4cell10UnsafeCellINtNtNtNtCsd5sFayDMH3J_4rand4rngs7adapter9reseeding12ReseedingRngNtNtCs94emUd2Bong_11rand_chacha6chacha12ChaCha12CoreNtNtCsl4lsDTcW8aE_9rand_core2os5OsRngEEEE0EuEB3W_
_RINvNtCs3NZLoJsOov_3std5panic12catch_unwindINtNtNtCsiL7B6CFZHyD_4core5panic11unwind_safe16AssertUnwindSafeNCINvNtNtNtNtNtB4_3sys6common12thread_local10fast_local4fast13destroy_valuejE0EuECs8u8Bt1oxYji_14regex_automata
_RINvNtCs3NZLoJsOov_3std5panic12catch_unwindINtNtNtCsiL7B6CFZHyD_4core5panic11unwind_safe16AssertUnwindSafeNCNvMs0_NtNtNtCs4USifnV5z1l_5tokio7runtime4task7harnessINtB1O_7HarnessINtNtNtB1S_8blocking4task12BlockingTaskNCNvXNtNtB1U_2io8blockingINtB3w_8BlockingNtNtNtB4_2io5stdio5StdinENtNtB3y_10async_read9AsyncRead9poll_read0ENtNtB2T_8schedule16BlockingScheduleE21drop_join_handle_slow0EuEB1U_
_RINvNtCs3NZLoJsOov_3std5panic12catch_unwindINtNtNtCsiL7B6CFZHyD_4core5panic11unwind_safe16AssertUnwindSafeNCNvMs0_NtNtNtCslBVC6wF8Bgr_5tokio7runtime4task7harnessINtB1O_7HarnessINtNtNtB1S_8blocking4task12BlockingTaskINtNtCshgx866xcH9W_5alloc5boxed3BoxNCNvXNtNtB1U_2io8blockingINtB45_8BlockingNtNtNtB4_2io5stdio5StdinENtNtB47_10async_read9AsyncRead9poll_read0EENtNtB2T_8schedule16BlockingScheduleE8complete0EuEB1U_
_RINvNtCs3NZLoJsOov_3std5panic12catch_unwindINtNtNtCsiL7B6CFZHyD_4core5panic11unwind_safe16AssertUnwindSafeNCNvMs1_NtCslAj3ugQP8Tn_10async_task3rawINtB1O_7RawTaskNCINvCskFZxpbhaWoe_8blocking7unblockINtNtBM_6result6ResultINtNtNtCshgx866xcH9W_5alloc3vec9into_iter8IntoIterNtNtNtBM_3net11socket_addr10SocketAddrENtNtNtB4_2io5error5ErrorENCNvXs8_NtNtCshFvNZPQTJhs_9async_std3net4addreNtB5t_13ToSocketAddrs15to_socket_addrs0E0B39_NCINvMs_B2E_NtB2E_8Executor5spawnB39_B2z_Es_0uE3runs_0EINtNtNtBM_4task4poll4PollB39_EEB5x_
_RINvNtCs3NZLoJsOov_3std9panicking11begin_panicReECs2P2SgBKwLCl_7difflib
_RINvNtCs3NZLoJsOov_3std9panicking11begin_panicReECshwKdUnaDEX_5serde
_RINvNtCs3NZLoJsOov_3std9panicking3tryINtNtNtCsiL7B6CFZHyD_4core4task4poll4PollNtNtNtCshFvNZPQTJhs_9async_std2io6stderr5StateEINtNtNtBG_5panic11unwind_safe16AssertUnwindSafeNCNvMs1_NtCslAj3ugQP8Tn_10async_task3rawINtB2S_7RawTaskNCINvCskFZxpbhaWoe_8blocking7unblockB1e_NCNvXB1g_NtB1g_6StderrNtNtCslG5yY4CbCNy_10futures_io6if_std10AsyncWrite10poll_flush0E0B1e_NCINvMs_B3I_NtB3I_8Executor5spawnB1e_B3D_Es_0uE3runs_0EEB1k_
_RINvNtCs3NZLoJsOov_3std9panicking3tryNtNtNtCsiL7B6CFZHyD_4core4task4wake5WakerINtNtNtBF_5panic11unwind_safe16AssertUnwindSafeNCINvMs0_NtNtNtCslBVC6wF8Bgr_5tokio4sync4task12atomic_wakerNtB28_11AtomicWaker11do_registerRBz_Es_0EEB2e_
_RINvNtCs3NZLoJsOov_3std9panicking3tryuINtNtNtCsiL7B6CFZHyD_4core5panic11unwind_safe16AssertUnwindSafeNCINvNtNtNtCsk9QERyUqk6O_5tokio7runtime4task7harness11cancel_taskINtNtBH_3pin3PinINtNtCshgx866xcH9W_5alloc5boxed3BoxINtNtNtCsfuTXiacoSai_15trust_dns_proto4xfer12dns_exchange21DnsExchangeBackgroundINtNtNtB3A_3udp17udp_client_stream15UdpClientStreamNtNtNtB1M_3net3udp9UdpSocketENtB3A_9TokioTimeEEEINtNtB2Z_4sync3ArcNtNtNtNtB1K_9scheduler12multi_thread6handle6HandleEE0EECshfZdcOEXVna_18trust_dns_resolver
_RINvNtCs3NZLoJsOov_3std9panicking3tryuINtNtNtCsiL7B6CFZHyD_4core5panic11unwind_safe16AssertUnwindSafeNCINvNtNtNtCslBVC6wF8Bgr_5tokio7runtime4task7harness11poll_futureINtNtNtB1K_8blocking4task12BlockingTaskNCNvXs5_NtNtNtNtCsjkF96kpyiNs_10hyper_util6client6legacy7connect3dnsNtB3p_11GaiResolverINtCserb3mYjM2WA_13tower_service7ServiceNtB3p_4NameE4call0ENtNtB2J_8schedule16BlockingScheduleEs_0EEB3x_
_RINvNtCs3NZLoJsOov_3std9panicking3tryuINtNtNtCsiL7B6CFZHyD_4core5panic11unwind_safe16AssertUnwindSafeNCINvNtNtNtNtNtB4_3sys6common12thread_local10fast_local4fast13destroy_valueINtNtBH_4cell4CellTyyEEE0EECsf2ITaBRdWIz_8dlv_list
_RINvNtCs3NZLoJsOov_3std9panicking3tryuINtNtNtCsiL7B6CFZHyD_4core5panic11unwind_safe16AssertUnwindSafeNCINvNtNtNtNtNtB4_3sys6common12thread_local10fast_local4fast13destroy_valueNtNtB4_6thread8ThreadIdE0EECs8hP8B7GcjRf_10async_task
_RINvNtCs3NZLoJsOov_3std9panicking3tryuINtNtNtCsiL7B6CFZHyD_4core5panic11unwind_safe16AssertUnwindSafeNCNCINvMNtB4_6threadNtB1J_7Builder16spawn_unchecked_NCNvCsbudUTgWQKts_10threadpool13spawn_in_pool0uEs_00EEB2v_
_RINvNtCs3NZLoJsOov_3std9panicking3tryuINtNtNtCsiL7B6CFZHyD_4core5panic11unwind_safe16AssertUnwindSafeNCNvMs0_NtNtNtCs4USifnV5z1l_5tokio7runtime4task7harnessINtB1J_7HarnessINtNtNtB1N_8blocking4task12BlockingTaskNCNvXs_NtNtB1P_2io8blockingINtB3t_8BlockingNtNtNtB4_2io5stdio6StderrENtNtB3v_11async_write10AsyncWrite10poll_write0ENtNtB2O_8schedule16BlockingScheduleE8completes_0EEB1P_
_RINvNtCs3NZLoJsOov_3std9panicking3tryuINtNtNtCsiL7B6CFZHyD_4core5panic11unwind_safe16AssertUnwindSafeNCNvMs0_NtNtNtCslBVC6wF8Bgr_5tokio7runtime4task7harnessINtB1J_7HarnessINtNtNtB1N_8blocking4task12BlockingTaskINtNtCshgx866xcH9W_5alloc5boxed3BoxNCNvXs_NtNtB1P_2io8blockingINtB42_8BlockingNtNtNtB4_2io5stdio6StdoutENtNtB44_11async_write10AsyncWrite10poll_flush0EENtNtB2O_8schedule16BlockingScheduleE8complete0EEB1P_
_RINvNtCs3SqZR6f63iz_11num_integer5roots4bitsyEB4_
_RINvNtCs3lnki3C6F2g_5vsimd7unified5splatNtNtB4_3isa4AVX2tNtNtB4_6vector4V128ECscAkkHySsZxm_11base64_simd
_RINvNtCs40LqbHUrv1b_5bytes5bytes7ptr_mapNCNCNvB2_20promotable_even_drop00EB4_
_RINvNtCs4EMmDgM0Qf0_3syn5token5BraceNtNtCshS2dRy2YWOW_11proc_macro25extra9DelimSpanEB4_
_RINvNtCs4hLSAroGC2E_7socket23sys10setsockoptNtNtCsc7ZCTqklYdl_4libc4unix6lingerEB4_
_RINvNtCs54g7RpQ33Ud_14matrixmultiply3ptr3PtrPdEB4_
_RINvNtCs54g7RpQ33Ud_14matrixmultiply4gemm19make_packing_bufferNtNtB4_12sgemm_kernel9KernelFmaEB4_
_RINvNtCs58rHsSnLr6S_4net23ext7set_optNtNtCsisbKcmZPvGV_4libc4unix9ipv6_mreqEB4_
_RINvNtCs5MsBAlmYmSD_4time10formatting13format_numberKh6_INtNtCshgx866xcH9W_5alloc3vec3VechEmECsi1PQLdatSvq_11x509_parser
_RINvNtCs5cYH0lLSdLc_4core10intrinsics10typed_swapNtNtCs2X71yuh7ehP_12regex_syntax3hir17ClassUnicodeRangeEBP_
_RINvNtCs5cYH0lLSdLc_4core10intrinsics10typed_swapTINtNtCs7XPJVOJwuEK_13serde_spanned7spanned7SpannedINtNtCsaz9ix1H7t6h_5alloc6borrow3CoweEEIBN_NtNtNtNtCs7NbdE0zyweH_4toml2de6parser7devalue7DeValueEEEB2p_
_RINvNtCs5cYH0lLSdLc_4core10intrinsics11size_of_valDINtNtNtB4_3ops8function2FnuEp6OutputINtNtNtB4_5panic11unwind_safe16AssertUnwindSafeINtNtB4_4cell7RefCellNtNtCs4O6ck48ZfFc_5regex4exec17ProgramCacheInnerEENtNtB4_6marker4SendNtB3j_4SyncNtB1q_10UnwindSafeNtB1q_13RefUnwindSafeEL_EB2x_
_RINvNtCs5cYH0lLSdLc_4core10intrinsics11size_of_valDNtNtB4_5error5ErrorNtNtB4_6marker4SendNtB18_4SyncEL_ECsetRrSidvX01_12tracing_core
_RINvNtCs5cYH0lLSdLc_4core10intrinsics11size_of_valINtNtCs4EMmDgM0Qf0_3syn5drops6NoDropDINtNtBR_10punctuated9IterTraitNtNtBR_8generics14TypeParamBoundEp4ItemRB1R_EL_EEBR_
_RINvNtCs5cYH0lLSdLc_4core10intrinsics11size_of_valINtNtCsaz9ix1H7t6h_5alloc4sync8ArcInnerINtNtNtCsbQWyLdwLkii_5tokio4sync5watch6SharedjEEEB1w_
_RINvNtCs5cYH0lLSdLc_4core10intrinsics11size_of_valINtNtCsaz9ix1H7t6h_5alloc4sync8ArcInnerNtNtNtB4_4sync6atomic10AtomicBoolEECs2WU2hRDnNVz_5tokio
_RINvNtCs5cYH0lLSdLc_4core10intrinsics11size_of_valINtNtCssQs4bxTCl8_15crossbeam_deque5deque5BlockNtNtCsbLwEFGmkA9L_10rayon_core3job6JobRefEEB1B_
_RINvNtCs5cYH0lLSdLc_4core10intrinsics11size_of_valINtNtNtNtCsaz9ix1H7t6h_5alloc11collections5btree4node12InternalNodeNtNtNtCs6nv0K25L1YS_14regex_automata4util10primitives7StateIDNtNtBR_7set_val9SetValZSTEEB1X_
_RINvNtCs5cYH0lLSdLc_4core10intrinsics11size_of_valNtNtCs4EMmDgM0Qf0_3syn8generics12GenericParamEBQ_
_RINvNtCs5cYH0lLSdLc_4core10intrinsics11size_of_valNtNtCsjCOdl0hzWT8_5bytes5bytes6SharedEBQ_
_RINvNtCs5cYH0lLSdLc_4core10intrinsics11size_of_valNtNtNtCs2FIVCi1Wrow_3std2io5error6CustomECsvugNsdF0s4_16parking_lot_core
_RINvNtCs5cYH0lLSdLc_4core10intrinsics11size_of_valSNtNtNtCsdPhejGtpz0t_4http6header3map3PosEBT_
_RINvNtCs5cYH0lLSdLc_4core10intrinsics11size_of_valShECsbDIk78O1aGj_14iana_time_zone
_RINvNtCs5cYH0lLSdLc_4core10intrinsics16min_align_of_valAINtNtCsaz9ix1H7t6h_5alloc3vec3VecINtNtNtB4_3ops5range5RangejEEj1_ECshGQku3tzgPV_12unicode_bidi
_RINvNtCs5cYH0lLSdLc_4core10intrinsics16min_align_of_valDNtNtB4_3any3AnyNtNtB4_6marker4SendEL_ECshS2dRy2YWOW_11proc_macro2
_RINvNtCs5cYH0lLSdLc_4core10intrinsics16min_align_of_valDNtNtB4_5error5ErrorNtNtB4_6marker4SendNtB1d_4SyncEL_ECsuZEldOdkc5_16rustls_pki_types
_RINvNtCs5cYH0lLSdLc_4core10intrinsics16min_align_of_valINtNtCsaz9ix1H7t6h_5alloc4sync8ArcInnerDNtNtCs9ZgoKwCKHe9_12tracing_core10subscriber10SubscriberNtNtB4_6marker4SendNtB2r_4SyncEL_EEB1z_
_RINvNtCs5cYH0lLSdLc_4core10intrinsics16min_align_of_valINtNtCsaz9ix1H7t6h_5alloc4sync8ArcInnerNtCsl8HHYPNKNOu_7parking5InnerEEB1w_
_RINvNtCs5cYH0lLSdLc_4core10intrinsics16min_align_of_valINtNtCsaz9ix1H7t6h_5alloc4sync8ArcInnerNtNtNtCs8ysq7zN6jSI_15crossbeam_utils4sync10wait_group5InnerEEB1A_
_RINvNtCs5cYH0lLSdLc_4core10intrinsics16min_align_of_valINtNtNtB4_3mem12maybe_uninit11MaybeUninitNtNtCs4EMmDgM0Qf0_3syn8generics14WherePredicateEEB1A_
_RINvNtCs5cYH0lLSdLc_4core10intrinsics16min_align_of_valINtNtNtNtCsaz9ix1H7t6h_5alloc11collections5btree4node8LeafNodemNtNtBW_7set_val9SetValZSTEECs4O6ck48ZfFc_5regex
_RINvNtCs5cYH0lLSdLc_4core10intrinsics16min_align_of_valNtNtCs9XN0b3DABn9_12regex_syntax3ast12ClassUnicodeEBV_
_RINvNtCs5cYH0lLSdLc_4core10intrinsics16min_align_of_valNtNtNtCs2FIVCi1Wrow_3std2io5error6CustomECs9ZgoKwCKHe9_12tracing_core
_RINvNtCs5cYH0lLSdLc_4core10intrinsics16min_align_of_valNtNtNtCsfQ8IEn1gy0G_11miniz_oxide7deflate4core12HuffmanOxideEBX_
_RINvNtCs5cYH0lLSdLc_4core10intrinsics16min_align_of_valShECs40LqbHUrv1b_5bytes
_RINvNtCs5cYH0lLSdLc_4core10intrinsics23is_val_statically_knownbECs1QsE4eqaow9_6winnow
_RINvNtCs5cYH0lLSdLc_4core10intrinsics23is_val_statically_knownbECsaluMZKqF2aj_15crossbeam_utils
_RINvNtCs5cYH0lLSdLc_4core10intrinsics23is_val_statically_knownbECslonMRKGuc9M_13toml_datetime
_RINvNtCs5cYH0lLSdLc_4core10intrinsics7type_idNtNtCs5Qv6yQAsokC_4http6status17InvalidStatusCodeEBL_
_RINvNtCs5cYH0lLSdLc_4core10intrinsics7type_idNtNtNtCs2FIVCi1Wrow_3std2io5error5ErrorECskdGv34WPu6C_4glob
_RINvNtCs5cYH0lLSdLc_4core10intrinsics7type_idReECsl8HHYPNKNOu_7parking
_RINvNtCs5cYH0lLSdLc_4core3cmp3maxNtNtCsoIzOoOKbrk_12tracing_core8metadata11LevelFilterECslN86gTjml9v_18tracing_subscriber
_RINvNtCs5cYH0lLSdLc_4core3cmp3minhECs9nCsezDqTf4_12regex_syntax
_RINvNtCs5cYH0lLSdLc_4core3cmp6max_byNtNtCs3k9pxlh0Big_12unicode_bidi5level5LevelNvYBy_NtB2_3Ord3cmpEBC_
_RINvNtCs5cYH0lLSdLc_4core3cmp6max_byjNvYjNtB2_3Ord3cmpECsA3zysNafLn_8num_cpus
_RINvNtCs5cYH0lLSdLc_4core3cmp6max_byjNvYjNtB2_3Ord3cmpECslpSPRSgAWPD_6base64
_RINvNtCs5cYH0lLSdLc_4core3cmp6min_byjNvYjNtB2_3Ord3cmpECs8ysq7zN6jSI_15crossbeam_utils
_RINvNtCs5cYH0lLSdLc_4core3cmp6min_byjNvYjNtB2_3Ord3cmpECskdGv34WPu6C_4glob
_RINvNtCs5cYH0lLSdLc_4core3mem12discriminantNtNtCs7NbdE0zyweH_4toml5value5ValueEBJ_
_RINvNtCs5cYH0lLSdLc_4core3mem4dropINtNtCsaz9ix1H7t6h_5alloc5boxed3BoxINtNtCs26nnaF11nq9_6anyhow5error9ErrorImplINtNtB2_13manually_drop12ManuallyDropNtNtBB_6string6StringEEEEB1a_
_RINvNtCs5cYH0lLSdLc_4core3mem4dropINtNtNtCs2FIVCi1Wrow_3std4sync5mutex10MutexGuarduEECs8ysq7zN6jSI_15crossbeam_utils
_RINvNtCs5cYH0lLSdLc_4core3mem4swapNtNtNtCs6nv0K25L1YS_14regex_automata4util10primitives7StateIDEBC_
_RINvNtCs5cYH0lLSdLc_4core3mem6forgetINtNCNvNtNtNtCs2WU2hRDnNVz_5tokio7runtime4task7harness11poll_future05GuardINtNtNtBJ_8blocking4task12BlockingTaskINtNtCsaz9ix1H7t6h_5alloc5boxed3BoxNCNvXsf_NtNtBL_3net4addreNtNtB33_6sealed17ToSocketAddrsPriv15to_socket_addrs0EENtNtB1P_8schedule16BlockingScheduleEEBL_
_RINvNtCs5cYH0lLSdLc_4core3mem7replaceINtNtB4_6option6OptionNtNtNtB4_4task4wake5WakerEECsjGrg359SR69_5tokio
_RINvNtCs5cYH0lLSdLc_4core3mem7replaceNtNtCs9nCsezDqTf4_12regex_syntax3ast3AstEBD_
_RINvNtCs5cYH0lLSdLc_4core3ptr13drop_in_placeDINtNtNtB4_3ops8function5FnMutTINtNtB4_6result6ResultNtCsuZ9a1F9vBt_9jobserver8AcquiredNtNtNtCs2FIVCi1Wrow_3std2io5error5ErrorEEEp6OutputuNtNtB4_6marker4SendEL_EB1z_
_RINvNtCs5cYH0lLSdLc_4core3ptr13drop_in_placeDNtNtB4_5error5ErrorNtNtB4_6marker4SendNtB12_4SyncEL_ECsf017pQGQFh2_5tokio
_RINvNtCs5cYH0lLSdLc_4core3ptr13drop_in_placeINtCs1OAyg5s2XZU_12thread_local11ThreadLocalINtNtB4_4cell7RefCellNtNtNtCslN86gTjml9v_18tracing_subscriber8registry5stack9SpanStackEEEB1P_
_RINvNtCs5cYH0lLSdLc_4core3ptr13drop_in_placeINtNtB4_3pin3PinINtNtCsaz9ix1H7t6h_5alloc4sync3ArcNtNtCs2FIVCi1Wrow_3std6thread5InnerEEECs9KxnAWPj46c_8fastrand
_RINvNtCs5cYH0lLSdLc_4core3ptr13drop_in_placeINtNtB4_4cell10UnsafeCellINtNtB4_6option6OptionNtNtCshD5YnGfk4Ix_12tracing_core10dispatcher8DispatchEEEB1v_
_RINvNtCs5cYH0lLSdLc_4core3ptr13drop_in_placeINtNtB4_4cell10UnsafeCellINtNtCsaz9ix1H7t6h_5alloc3vec3VecRDNtNtCsoIzOoOKbrk_12tracing_core8callsite8CallsiteEL_EEEB1I_
_RINvNtCs5cYH0lLSdLc_4core3ptr13drop_in_placeINtNtB4_4cell10UnsafeCellINtNtNtNtNtCs2FIVCi1Wrow_3std3sys12thread_local6native4lazy5StateNtNtNtCsf017pQGQFh2_5tokio7runtime4park10ParkThreaduEEEB2e_
_RINvNtCs5cYH0lLSdLc_4core3ptr13drop_in_placeINtNtB4_4cell3RefINtNtB4_6option6OptionNtNtCsoIzOoOKbrk_12tracing_core10dispatcher8DispatchEEEB1n_
_RINvNtCs5cYH0lLSdLc_4core3ptr13drop_in_placeINtNtB4_4cell6RefMutINtNtCsaz9ix1H7t6h_5alloc3vec3VecINtNtCsbXlrBjN2Pbs_12futures_task10future_obj14LocalFutureObjuEEEECs1ufKiBFgexo_16futures_executor
_RINvNtCs5cYH0lLSdLc_4core3ptr13drop_in_placeINtNtB4_4cell7RefCellINtNtCsaz9ix1H7t6h_5alloc3vec3VecNtNtCs2X71yuh7ehP_12regex_syntax3ast7CommentEEECs4O6ck48ZfFc_5regex
_RINvNtCs5cYH0lLSdLc_4core3ptr13drop_in_placeINtNtB4_5array5GuardINtNtNtNtCsdTuBsJ9FlQ2_12aho_corasick6packed5teddy7generic4MaskNtNtNtB4_9core_arch3x867___m128iEEEB19_
_RINvNtCs5cYH0lLSdLc_4core3ptr13drop_in_placeINtNtB4_6option6OptionINtNtCsaz9ix1H7t6h_5alloc3vec3VecNtNtB17_6string6StringEEECskmFptwX7bJS_2cc
_RINvNtCs5cYH0lLSdLc_4core3ptr13drop_in_placeINtNtB4_6option6OptionINtNtCsaz9ix1H7t6h_5alloc5boxed3BoxDG0_INtNtNtB4_3ops8function5FnMutTRL1_NtNtCsa1Fkj6zmIPF_7walkdir4dent8DirEntryRL0_B2d_EEp6OutputNtNtB4_3cmp8OrderingNtNtB4_6marker4SendNtB3v_4SyncEL_EEEB2h_
_RINvNtCs5cYH0lLSdLc_4core3ptr13drop_in_placeINtNtB4_6option6OptionINtNtCsaz9ix1H7t6h_5alloc6borrow3CoweEEECs4uKHT3EpJvV_10env_logger
_RINvNtCs5cYH0lLSdLc_4core3ptr13drop_in_placeINtNtB4_6option6OptionINtNtCskmSJBJCpqyY_12icu_provider8response11DataPayloadNtNtCs5JZIVDbtHij_14icu_properties8provider21AsciiHexDigitV1MarkerEEEB1Z_
_RINvNtCs5cYH0lLSdLc_4core3ptr13drop_in_placeINtNtB4_6option6OptionINtNtCskmSJBJCpqyY_12icu_provider8response11DataPayloadNtNtCs5JZIVDbtHij_14icu_properties8provider33LineBreakValueToShortNameV1MarkerEEEB1Z_
_RINvNtCs5cYH0lLSdLc_4core3ptr13drop_in_placeINtNtB4_6option6OptionINtNtNtCs2FIVCi1Wrow_3std4sync5mutex5MutexINtNtCsaz9ix1H7t6h_5alloc3vec3VecRDNtNtCs9ZgoKwCKHe9_12tracing_core8callsite8CallsiteEL_EEEEB2l_
_RINvNtCs5cYH0lLSdLc_4core3ptr13drop_in_placeINtNtB4_6option6OptionNtNtB4_4char11ToLowercaseEECsjRWpUytRaxp_6chrono
_RINvNtCs5cYH0lLSdLc_4core3ptr13drop_in_placeINtNtB4_6option6OptionNtNtCs4EMmDgM0Qf0_3syn5token5ColonEEB16_
_RINvNtCs5cYH0lLSdLc_4core3ptr13drop_in_placeINtNtB4_6option6OptionNtNtCsaz9ix1H7t6h_5alloc6string6StringEECs4O6ck48ZfFc_5regex
_RINvNtCs5cYH0lLSdLc_4core3ptr13drop_in_placeINtNtB4_6option6OptionNtNtNtCs2FIVCi1Wrow_3std2io5error5ErrorEECsuZ9a1F9vBt_9jobserver
_RINvNtCs5cYH0lLSdLc_4core3ptr13drop_in_placeINtNtB4_6option6OptionNtNtNtCs9nCsezDqTf4_12regex_syntax3hir7literal7LiteralEEB18_
_RINvNtCs5cYH0lLSdLc_4core3ptr13drop_in_placeINtNtB4_6option6OptionNtNtNtNtNtCsjRWpUytRaxp_6chrono6offset5local7tz_info8timezone8TimeZoneEEB1c_
_RINvNtCs5cYH0lLSdLc_4core3ptr13drop_in_placeINtNtB4_6option6OptionjEECs3fINW8eOU7_5hyper
_RINvNtCs5cYH0lLSdLc_4core3ptr13drop_in_placeINtNtB4_6result6ResultNtCsuZ9a1F9vBt_9jobserver6ClientNtNtB14_5error12FromEnvErrorEEB14_
_RINvNtCs5cYH0lLSdLc_4core3ptr13drop_in_placeINtNtB4_6result6ResultNtNtCsaz9ix1H7t6h_5alloc6string6StringNtCsbDIk78O1aGj_14iana_time_zone16GetTimezoneErrorEECsjRWpUytRaxp_6chrono
_RINvNtCs5cYH0lLSdLc_4core3ptr13drop_in_placeINtNtB4_6result6ResultlNtNtNtCs2FIVCi1Wrow_3std2io5error5ErrorEECsnXVG1ei7nV_3mio
_RINvNtCs5cYH0lLSdLc_4core3ptr13drop_in_placeINtNtB4_6result6ResultuNtNtNtCs2FIVCi1Wrow_3std2io5error5ErrorEECsl6ndz8m1wuo_12thread_local
_RINvNtCs5cYH0lLSdLc_4core3ptr13drop_in_placeINtNtCs3jNsHQA6hKW_12tracing_core10dispatcher4KindINtNtCsaz9ix1H7t6h_5alloc4sync4WeakDNtNtBL_10subscriber10SubscriberNtNtB4_6marker4SendNtB2B_4SyncEL_EEEBL_
_RINvNtCs5cYH0lLSdLc_4core3ptr13drop_in_placeINtNtCs5JZIVDbtHij_14icu_properties8provider22PropertyCodePointMapV1NtNtBL_5props18HangulSyllableTypeEEBL_
_RINvNtCs5cYH0lLSdLc_4core3ptr13drop_in_placeINtNtCs8pSesEVi6Kg_9once_cell4sync4LazyINtNtNtCs2FIVCi1Wrow_3std4sync6rwlock6RwLockINtNtCsaz9ix1H7t6h_5alloc3vec3VecNtNtCshD5YnGfk4Ix_12tracing_core10dispatcher9RegistrarEEEEB2C_
_RINvNtCs5cYH0lLSdLc_4core3ptr13drop_in_placeINtNtCsaLbqaq8u1VP_9getrandom8use_file9DropGuardNCNvBJ_10get_rng_fd0EEBL_
_RINvNtCs5cYH0lLSdLc_4core3ptr13drop_in_placeINtNtCsaz9ix1H7t6h_5alloc3vec3VecIBH_NtNtBL_6string6StringEEECslmJ0Mh1KeWG_10pkg_config
_RINvNtCs5cYH0lLSdLc_4core3ptr13drop_in_placeINtNtCsaz9ix1H7t6h_5alloc3vec3VecINtNtBL_5boxed3BoxDINtNtNtB4_3ops8function5FnMutuEp6OutputINtNtB4_6result6ResultuNtNtNtCs2FIVCi1Wrow_3std2io5error5ErrorENtNtB4_6marker4SendNtB3c_4SyncEL_EEECsGnTjlLOiBu_13version_check
_RINvNtCs5cYH0lLSdLc_4core3ptr13drop_in_placeINtNtCsaz9ix1H7t6h_5alloc3vec3VecINtNtNtCsbgyCs3cvOro_7zerovec3ule5tuple9Tuple2ULEINtNtCsby9wAIILX7F_7tinystr11unvalidated23UnvalidatedTinyAsciiStrKj4_EIB21_Kj3_EEEECseytyDyWBuek_19icu_locid_transform
_RINvNtCs5cYH0lLSdLc_4core3ptr13drop_in_placeINtNtCsaz9ix1H7t6h_5alloc3vec3VecNtNtBL_6string6StringEECs9nCsezDqTf4_12regex_syntax
_RINvNtCs5cYH0lLSdLc_4core3ptr13drop_in_placeINtNtCsaz9ix1H7t6h_5alloc3vec3VecNtNtCs4EMmDgM0Qf0_3syn6buffer5EntryEEB1h_
_RINvNtCs5cYH0lLSdLc_4core3ptr13drop_in_placeINtNtCsaz9ix1H7t6h_5alloc3vec3VecNtNtCs9nCsezDqTf4_12regex_syntax3ast9FlagsItemEEB1h_
_RINvNtCs5cYH0lLSdLc_4core3ptr13drop_in_placeINtNtCsaz9ix1H7t6h_5alloc3vec3VecNtNtNtCs6Ps44CJ3Bgw_12aho_corasick3nfa13noncontiguous5MatchEEB1j_
_RINvNtCs5cYH0lLSdLc_4core3ptr13drop_in_placeINtNtCsaz9ix1H7t6h_5alloc3vec3VecNtNtNtCsl2zA8G2heqZ_11toml_parser5lexer5token5TokenEEB1j_
_RINvNtCs5cYH0lLSdLc_4core3ptr13drop_in_placeINtNtCsaz9ix1H7t6h_5alloc3vec3VecNtNtNtNtCsefXhAY67n7n_12aho_corasick6packed5teddy7generic15SlimMaskBuilderEEB1l_.llvm.4702004223357443982
_RINvNtCs5cYH0lLSdLc_4core3ptr13drop_in_placeINtNtCsaz9ix1H7t6h_5alloc3vec3VecTNtNtCs4EMmDgM0Qf0_3syn8generics14TypeParamBoundNtNtB1i_5token4PlusEEEB1i_
_RINvNtCs5cYH0lLSdLc_4core3ptr13drop_in_placeINtNtCsaz9ix1H7t6h_5alloc3vec3VecbEECscpgdAsQ0t7q_12synstructure
_RINvNtCs5cYH0lLSdLc_4core3ptr13drop_in_placeINtNtCsaz9ix1H7t6h_5alloc3vec3VechEECscm8e4zVisyc_7autocfg
_RINvNtCs5cYH0lLSdLc_4core3ptr13drop_in_placeINtNtCsaz9ix1H7t6h_5alloc3vec3VecmEECs6Ps44CJ3Bgw_12aho_corasick
_RINvNtCs5cYH0lLSdLc_4core3ptr13drop_in_placeINtNtCsaz9ix1H7t6h_5alloc4sync3ArcINtNtNtCs2WU2hRDnNVz_5tokio4sync7oneshot5InneruEEEB1l_
_RINvNtCs5cYH0lLSdLc_4core3ptr13drop_in_placeINtNtCsaz9ix1H7t6h_5alloc4sync3ArcNtNtNtB4_4sync6atomic10AtomicBoolEECs2WU2hRDnNVz_5tokio
_RINvNtCs5cYH0lLSdLc_4core3ptr13drop_in_placeINtNtCsaz9ix1H7t6h_5alloc4sync4WeakDG_INtNtNtB4_3ops8function2FnTRL0_NtNtNtNtNtNtNtCsjFsNDcNCHr1_4libc4unix10linux_like5linux3gnu3b646x86_649siginfo_tEEp6OutputuNtNtB4_6marker4SendNtB3j_4SyncEL_RNtNtBL_5alloc6GlobalEECsassPaf2LEjx_20signal_hook_registry
_RINvNtCs5cYH0lLSdLc_4core3ptr13drop_in_placeINtNtCsaz9ix1H7t6h_5alloc4sync4WeakINtNtNtNtCs7eMeuuZvGCQ_12futures_util6stream17futures_unordered4task4TaskINtNtCsbXlrBjN2Pbs_12futures_task10future_obj9FutureObjuEERNtNtBL_5alloc6GlobalEEB1o_
_RINvNtCs5cYH0lLSdLc_4core3ptr13drop_in_placeINtNtCsaz9ix1H7t6h_5alloc4sync4WeakNtNtNtCs2FIVCi1Wrow_3std6thread6scoped9ScopeDataRNtNtBL_5alloc6GlobalEECseXY6b7LfkWH_10rayon_core
_RINvNtCs5cYH0lLSdLc_4core3ptr13drop_in_placeINtNtCsaz9ix1H7t6h_5alloc4sync8ArcInnerINtNtCs1rqAEAWDrYY_15futures_channel7oneshot5InnerNtNtNtCsdPhejGtpz0t_4http6header3map9HeaderMapEEECs3fINW8eOU7_5hyper
_RINvNtCs5cYH0lLSdLc_4core3ptr13drop_in_placeINtNtCsaz9ix1H7t6h_5alloc4sync8ArcInnerINtNtNtNtNtCsdTuBsJ9FlQ2_12aho_corasick6packed5teddy7builder6x86_648SlimAVX2Kj3_EEEB1u_
_RINvNtCs5cYH0lLSdLc_4core3ptr13drop_in_placeINtNtCsaz9ix1H7t6h_5alloc4sync8ArcInnerNtNtNtCsdTuBsJ9FlQ2_12aho_corasick4util9prefilter6MemmemEEB1p_
_RINvNtCs5cYH0lLSdLc_4core3ptr13drop_in_placeINtNtCsaz9ix1H7t6h_5alloc5boxed3BoxDNtNtB4_3any3AnyEL_EECs3fINW8eOU7_5hyper
_RINvNtCs5cYH0lLSdLc_4core3ptr13drop_in_placeINtNtCsaz9ix1H7t6h_5alloc5boxed3BoxDNtNtB4_5error5ErrorNtNtB4_6marker4SendNtB1B_4SyncEL_EECslAsTBdF7oRw_16parking_lot_core
_RINvNtCs5cYH0lLSdLc_4core3ptr13drop_in_placeINtNtCsaz9ix1H7t6h_5alloc5boxed3BoxINtNtNtB4_3mem12maybe_uninit11MaybeUninitNtNtCs4EMmDgM0Qf0_3syn3lit10LitIntReprEEEB1Y_
_RINvNtCs5cYH0lLSdLc_4core3ptr13drop_in_placeINtNtCsaz9ix1H7t6h_5alloc5boxed3BoxINtNtNtNtCs2FIVCi1Wrow_3std11collections4hash3map7HashMapNtNtB4_3any6TypeIdIBH_DNtNtCs5Qv6yQAsokC_4http10extensions8AnyCloneNtNtB4_6marker4SendNtB3h_4SyncEL_EINtNtB4_4hash18BuildHasherDefaultNtB2z_8IdHasherEEEEB2B_
_RINvNtCs5cYH0lLSdLc_4core3ptr13drop_in_placeINtNtCsaz9ix1H7t6h_5alloc5boxed3BoxNtNtCs2mAb9LCDQQz_12regex_syntax3ast8ClassSetEECs2eZKGvXrlyD_14regex_automata.llvm.4161499664727754128
_RINvNtCs5cYH0lLSdLc_4core3ptr13drop_in_placeINtNtCsaz9ix1H7t6h_5alloc5boxed3BoxNtNtCs9nCsezDqTf4_12regex_syntax3ast10RepetitionEEB1j_
_RINvNtCs5cYH0lLSdLc_4core3ptr13drop_in_placeINtNtCsaz9ix1H7t6h_5alloc5boxed3BoxNtNtNtCs2FIVCi1Wrow_3std2io5error6CustomEECseer2JwIJIZX_8anstream
_RINvNtCs5cYH0lLSdLc_4core3ptr13drop_in_placeINtNtCsaz9ix1H7t6h_5alloc5boxed3BoxSINtNtCsby9wAIILX7F_7tinystr5ascii12TinyAsciiStrKj8_EEECsaCO2qWNJEWF_9icu_locid
_RINvNtCs5cYH0lLSdLc_4core3ptr13drop_in_placeINtNtCsaz9ix1H7t6h_5alloc5boxed3BoxShEECsfQ8IEn1gy0G_11miniz_oxide
_RINvNtCs5cYH0lLSdLc_4core3ptr13drop_in_placeINtNtCsaz9ix1H7t6h_5alloc6borrow3CoweEECskmFptwX7bJS_2cc
_RINvNtCs5cYH0lLSdLc_4core3ptr13drop_in_placeINtNtCsaz9ix1H7t6h_5alloc7raw_vec6RawVecINtNtBL_5boxed3BoxDINtNtNtB4_3ops8function5FnMutuEp6OutputINtNtB4_6result6ResultuNtNtNtCs2FIVCi1Wrow_3std2io5error5ErrorENtNtB4_6marker4SendNtB3j_4SyncEL_EEECsgyZjmySQ4Ff_13rustc_version
_RINvNtCs5cYH0lLSdLc_4core3ptr13drop_in_placeINtNtCsaz9ix1H7t6h_5alloc7raw_vec6RawVecINtNtNtCsbgyCs3cvOro_7zerovec3ule5tuple9Tuple2ULEINtNtCsby9wAIILX7F_7tinystr11unvalidated23UnvalidatedTinyAsciiStrKj3_EIB28_Kj4_EEEECseytyDyWBuek_19icu_locid_transform
_RINvNtCs5cYH0lLSdLc_4core3ptr13drop_in_placeINtNtCsaz9ix1H7t6h_5alloc7raw_vec6RawVecNtNtBL_6string6StringEECseN3EgHAt5QS_8petgraph
_RINvNtCs5cYH0lLSdLc_4core3ptr13drop_in_placeINtNtCsaz9ix1H7t6h_5alloc7raw_vec6RawVecNtNtCs5JZIVDbtHij_14icu_properties5props16SentenceBreakULEEEB1o_
_RINvNtCs5cYH0lLSdLc_4core3ptr13drop_in_placeINtNtCsaz9ix1H7t6h_5alloc7raw_vec6RawVecNtNtCshGQku3tzgPV_12unicode_bidi5level5LevelEEB1o_
_RINvNtCs5cYH0lLSdLc_4core3ptr13drop_in_placeINtNtCsaz9ix1H7t6h_5alloc7raw_vec6RawVecNtNtNtCs9nCsezDqTf4_12regex_syntax3hir9translate8HirFrameEEB1q_
_RINvNtCs5cYH0lLSdLc_4core3ptr13drop_in_placeINtNtCsaz9ix1H7t6h_5alloc7raw_vec6RawVecNtNtNtNtCsaCO2qWNJEWF_9icu_locid10extensions7unicode3key3KeyEECseytyDyWBuek_19icu_locid_transform
_RINvNtCs5cYH0lLSdLc_4core3ptr13drop_in_placeINtNtCsaz9ix1H7t6h_5alloc7raw_vec6RawVecTNtNtCs4EMmDgM0Qf0_3syn8generics12GenericParamNtNtB1p_5token5CommaEEEB1p_
_RINvNtCs5cYH0lLSdLc_4core3ptr13drop_in_placeINtNtCsaz9ix1H7t6h_5alloc7raw_vec6RawVeccEECs9nCsezDqTf4_12regex_syntax
_RINvNtCs5cYH0lLSdLc_4core3ptr13drop_in_placeINtNtCsaz9ix1H7t6h_5alloc7raw_vec6RawVechEECseN3EgHAt5QS_8petgraph
_RINvNtCs5cYH0lLSdLc_4core3ptr13drop_in_placeINtNtCsaz9ix1H7t6h_5alloc7raw_vec6RawVectEECshMr4vrUMxNO_11miniz_oxide
_RINvNtCs5cYH0lLSdLc_4core3ptr13drop_in_placeINtNtCsbgyCs3cvOro_7zerovec7zerovec7ZeroVecINtNtCsby9wAIILX7F_7tinystr11unvalidated23UnvalidatedTinyAsciiStrKj3_EEECseytyDyWBuek_19icu_locid_transform
_RINvNtCs5cYH0lLSdLc_4core3ptr13drop_in_placeINtNtCsc2NukElDoJR_4yoke20kinda_sorta_dangling18KindaSortaDanglingNtNtCs5JZIVDbtHij_14icu_properties8provider20PropertyUnicodeSetV1EEB1O_
_RINvNtCs5cYH0lLSdLc_4core3ptr13drop_in_placeINtNtCsc2NukElDoJR_4yoke4yoke4YokeNtNtNtCseytyDyWBuek_19icu_locid_transform8provider13canonicalizer9AliasesV2INtNtBL_12cartable_ptr21CartableOptionPointerINtNtCsaz9ix1H7t6h_5alloc2rc2RcINtNtB3f_5boxed3BoxShEEEEEB1k_
_RINvNtCs5cYH0lLSdLc_4core3ptr13drop_in_placeINtNtCsffYwmj09FSj_9hashbrown10scopeguard10ScopeGuardQNtNtBL_3raw13RawTableInnerNCNvMsa_B1A_B1y_15rehash_in_place0EECsaluMZKqF2aj_15crossbeam_utils
_RINvNtCs5cYH0lLSdLc_4core3ptr13drop_in_placeINtNtCsffYwmj09FSj_9hashbrown3raw8RawTableTINtNtCsaz9ix1H7t6h_5alloc5boxed3BoxeEINtNtB1s_4sync3ArcNtNtNtCs2FIVCi1Wrow_3std3ffi6os_str5OsStrEEEECskmFptwX7bJS_2cc
_RINvNtCs5cYH0lLSdLc_4core3ptr13drop_in_placeINtNtCskmSJBJCpqyY_12icu_provider8response11DataPayloadNtNtCs5JZIVDbtHij_14icu_properties8provider16ExtenderV1MarkerEEB1D_
_RINvNtCs5cYH0lLSdLc_4core3ptr13drop_in_placeINtNtCskmSJBJCpqyY_12icu_provider8response11DataPayloadNtNtCs5JZIVDbtHij_14icu_properties8provider27TerminalPunctuationV1MarkerEEB1D_
_RINvNtCs5cYH0lLSdLc_4core3ptr13drop_in_placeINtNtCskmSJBJCpqyY_12icu_provider8response11DataPayloadNtNtCs5JZIVDbtHij_14icu_properties8provider46CanonicalCombiningClassValueToLongNameV1MarkerEEB1D_
_RINvNtCs5cYH0lLSdLc_4core3ptr13drop_in_placeINtNtCskmSJBJCpqyY_12icu_provider8response16DataPayloadInnerNtNtCs5JZIVDbtHij_14icu_properties8provider18SoftDottedV1MarkerEEB1I_
_RINvNtCs5cYH0lLSdLc_4core3ptr13drop_in_placeINtNtCskmSJBJCpqyY_12icu_provider8response16DataPayloadInnerNtNtCs5JZIVDbtHij_14icu_properties8provider31CanonicalCombiningClassV1MarkerEEB1I_
_RINvNtCs5cYH0lLSdLc_4core3ptr13drop_in_placeINtNtCskmSJBJCpqyY_12icu_provider8response16DataPayloadInnerNtNtNtCseytyDyWBuek_19icu_locid_transform8provider8fallback35CollationFallbackSupplementV1MarkerEEB1K_
_RINvNtCs5cYH0lLSdLc_4core3ptr13drop_in_placeINtNtNtB4_4iter8adapters12GenericShuntINtNtBJ_3map3MapIB1j_IB1j_IB1j_INtNtBJ_3zip3ZipIB1j_INtNtBJ_6copied6CopiedINtNtNtB4_5slice4iter4IterINtNtNtCsbgyCs3cvOro_7zerovec3ule5plain11RawBytesULEKj2_EEENvYNtNtNtB31_10varzerovec10components7Index16NtB3W_16VarZeroVecFormat17rawbytes_to_usizeEINtNtBJ_5chain5ChainINtNtBJ_4skip4SkipB23_EINtNtNtB4_5array4iter8IntoIterjKj1_EEENCNvMs4_B3W_INtB3W_20VarZeroVecComponentsNtNtCseytyDyWBuek_19icu_locid_transform8provider16StrStrPairVarULEB3U_E4iter0ENCB6D_s_0ENvYNtB7i_10StrStrPairINtNtCshzNCNf0A578_8zerofrom9zero_from8ZeroFromB7g_E9zero_fromENCNvXNtB7i_13canonicalizerNtBa7_9AliasesV2INtNtB4_7convert7TryFromNtBa7_9AliasesV1E8try_from0EINtNtB4_6result6ResultNtBaL_10InfallibleNtNtCskmSJBJCpqyY_12icu_provider5error9DataErrorEEEB7k_
_RINvNtCs5cYH0lLSdLc_4core3ptr13drop_in_placeINtNtNtB4_5array4iter8IntoIterjKj2_EECs7NbdE0zyweH_4toml
_RINvNtCs5cYH0lLSdLc_4core3ptr13drop_in_placeINtNtNtCs2FIVCi1Wrow_3std2io5error9ErrorDataINtNtCsaz9ix1H7t6h_5alloc5boxed3BoxNtBJ_6CustomEEECscm8e4zVisyc_7autocfg
_RINvNtCs5cYH0lLSdLc_4core3ptr13drop_in_placeINtNtNtCs2FIVCi1Wrow_3std4sync5mutex10MutexGuardINtNtNtCsjGrg359SR69_5tokio4sync7oneshot8ReceiverINtNtB4_6result6ResultNtNtCs7AKWECV11r_5hyper7upgrade8UpgradedNtNtB2F_5error5ErrorEEEEB2F_
_RINvNtCs5cYH0lLSdLc_4core3ptr13drop_in_placeINtNtNtCs2FIVCi1Wrow_3std4sync5mutex5MutexINtNtCsaz9ix1H7t6h_5alloc3vec3VechEEECsuZ9a1F9vBt_9jobserver
_RINvNtCs5cYH0lLSdLc_4core3ptr13drop_in_placeINtNtNtCs2FIVCi1Wrow_3std4sync6poison11PoisonErrorINtNtBL_5mutex10MutexGuarduEEECsbQWyLdwLkii_5tokio
_RINvNtCs5cYH0lLSdLc_4core3ptr13drop_in_placeINtNtNtCs2FIVCi1Wrow_3std4sync6rwlock16RwLockWriteGuardNtNtNtCslN86gTjml9v_18tracing_subscriber8registry10extensions15ExtensionsInnerEEB1F_
_RINvNtCs5cYH0lLSdLc_4core3ptr13drop_in_placeINtNtNtCs2mAb9LCDQQz_12regex_syntax3hir8interval11IntervalSetNtBL_15ClassBytesRangeEEBN_
_RINvNtCs5cYH0lLSdLc_4core3ptr13drop_in_placeINtNtNtCs9XN0b3DABn9_12regex_syntax3hir8interval11IntervalSetNtBL_15ClassBytesRangeEEBN_
_RINvNtCs5cYH0lLSdLc_4core3ptr13drop_in_placeINtNtNtCsaz9ix1H7t6h_5alloc3vec5drain5DrainNtNtCs9XN0b3DABn9_12regex_syntax3ast12ClassSetItemEEB1r_
_RINvNtCs5cYH0lLSdLc_4core3ptr13drop_in_placeINtNtNtCsaz9ix1H7t6h_5alloc3vec9into_iter8IntoIterNtNtCs4O6ck48ZfFc_5regex7compile4HoleEEB1y_
_RINvNtCs5cYH0lLSdLc_4core3ptr13drop_in_placeINtNtNtCsaz9ix1H7t6h_5alloc3vec9into_iter8IntoIterhEECsr2vRrLtsnw_3url
_RINvNtCs5cYH0lLSdLc_4core3ptr13drop_in_placeINtNtNtCsbgyCs3cvOro_7zerovec5map2d3map9ZeroMap2dNtNtNtNtCsaCO2qWNJEWF_9icu_locid10extensions7unicode3key3KeyNtNtNtBN_3ule11unvalidated14UnvalidatedStrB2r_EECseytyDyWBuek_19icu_locid_transform
_RINvNtCs5cYH0lLSdLc_4core3ptr13drop_in_placeINtNtNtNtB4_4iter8adapters3map3MapINtNtBL_3zip3ZipIBH_INtNtBL_6copied6CopiedINtNtNtB4_5slice4iter4IterINtNtNtCsbgyCs3cvOro_7zerovec3ule5plain11RawBytesULEKj2_EEENvYNtNtNtB2r_10varzerovec10components7Index16NtB3m_16VarZeroVecFormat17rawbytes_to_usizeEINtNtBL_5chain5ChainINtNtBL_4skip4SkipB1u_EINtNtNtB4_5array4iter8IntoIterjKj1_EEENCNvMs4_B3m_INtB3m_20VarZeroVecComponentsNtNtCseytyDyWBuek_19icu_locid_transform8provider24LanguageStrStrPairVarULEB3k_E4iter0EEB6K_
_RINvNtCs5cYH0lLSdLc_4core3ptr13drop_in_placeINtNtNtNtB4_4iter8adapters3map3MapINtNtNtB4_5array5drain5DraintENCINvMNtNtB4_3ops9try_traitINtB1O_17NeverShortCircuitNtCsli4EU09fds1_14icu_normalizer17CharacterAndClassE10wrap_mut_1tNCNvMs1_B2B_INtB2B_13DecompositionNtCs4ysCYVL1rYf_9utf8_iter9Utf8CharsE16decomposing_next0E0EEB2B_
_RINvNtCs5cYH0lLSdLc_4core3ptr13drop_in_placeINtNtNtNtB4_4iter8adapters3zip3ZipINtNtNtCsaz9ix1H7t6h_5alloc3vec9into_iter8IntoIterINtNtCssQs4bxTCl8_15crossbeam_deque5deque6WorkerNtNtCsbLwEFGmkA9L_10rayon_core3job6JobRefEEIB1f_INtB25_7StealerB2O_EEEEB2S_
_RINvNtCs5cYH0lLSdLc_4core3ptr13drop_in_placeINtNtNtNtCs2FIVCi1Wrow_3std11collections4hash3map7HashMapINtNtCsaz9ix1H7t6h_5alloc5boxed3BoxeEINtNtB1G_4sync3ArcNtNtNtBP_3ffi6os_str5OsStrEEECskmFptwX7bJS_2cc
_RINvNtCs5cYH0lLSdLc_4core3ptr13drop_in_placeINtNtNtNtCs2WU2hRDnNVz_5tokio7runtime4task4core4CellINtNtNtBN_8blocking4task12BlockingTaskNCNvXsf_NtNtBP_3net4addreNtNtB2g_6sealed17ToSocketAddrsPriv15to_socket_addrs0ENtNtB1B_8schedule16BlockingScheduleEEBP_
_RINvNtCs5cYH0lLSdLc_4core3ptr13drop_in_placeINtNtNtNtCsX8tozTrT9W_12futures_util6stream17futures_unordered4task4TaskINtNtCsbXlrBjN2Pbs_12futures_task10future_obj9FutureObjuEEEBP_
_RINvNtCs5cYH0lLSdLc_4core3ptr13drop_in_placeINtNtNtNtCsaz9ix1H7t6h_5alloc11collections5btree4node11SplitResultINtNtBP_5boxed3BoxShEjNtNtBJ_6marker4LeafEECsdTuBsJ9FlQ2_12aho_corasick
_RINvNtCs5cYH0lLSdLc_4core3ptr13drop_in_placeINtNtNtNtNtB4_5slice4sort6shared9smallsort10CopyOnDropNtCsli4EU09fds1_14icu_normalizer17CharacterAndClassEEB1A_
_RINvNtCs5cYH0lLSdLc_4core3ptr13drop_in_placeINtNtNtNtNtB4_5slice4sort6stable5merge10MergeStateNtNtNtCs9XN0b3DABn9_12regex_syntax3hir7literal7LiteralEECs6nv0K25L1YS_14regex_automata
_RINvNtCs5cYH0lLSdLc_4core3ptr13drop_in_placeINtNtNtNtNtCs2FIVCi1Wrow_3std3sys12thread_local6native4lazy5StateNtNtNtCsjGrg359SR69_5tokio7runtime4park10ParkThreaduEEB1P_
_RINvNtCs5cYH0lLSdLc_4core3ptr13drop_in_placeINtNtNtNtNtCs2FIVCi1Wrow_3std3sys12thread_local6native5eager7StorageNtNtCshD5YnGfk4Ix_12tracing_core10dispatcher5StateEEB1Q_
_RINvNtCs5cYH0lLSdLc_4core3ptr13drop_in_placeINtNvMNtNtNtCs2WU2hRDnNVz_5tokio7runtime7context6scopedINtBM_6ScopedpE3set5ResetNtNtBQ_9scheduler7ContextEEBS_
_RINvNtCs5cYH0lLSdLc_4core3ptr13drop_in_placeINtNvNtNtCs2FIVCi1Wrow_3std2io5Write9write_fmt7AdapterNtNtNtNtNtBP_3sys3pal4unix5stdio6StderrEECsA3zysNafLn_8num_cpus
_RINvNtCs5cYH0lLSdLc_4core3ptr13drop_in_placeINtNvXNtNtCsaz9ix1H7t6h_5alloc5slice4hackpNtBM_10ConvertVec6to_vec9DropGuardNtNtNtCs2X71yuh7ehP_12regex_syntax3hir7literal7LiteralNtNtBQ_5alloc6GlobalEEB20_
_RINvNtCs5cYH0lLSdLc_4core3ptr13drop_in_placeINtNvXs5_NtNtCsaz9ix1H7t6h_5alloc3vec5drainINtBP_5DrainppENtNtNtB4_3ops4drop4Drop4drop9DropGuardNtNtCs9XN0b3DABn9_12regex_syntax3hir17ClassUnicodeRangeNtNtBT_5alloc6GlobalEEB2i_
_RINvNtCs5cYH0lLSdLc_4core3ptr13drop_in_placeINtNvXsd_NtNtCsaz9ix1H7t6h_5alloc3vec9into_iterINtBP_8IntoIterppENtNtNtB4_3ops4drop4Drop4drop9DropGuardNtNtCs2X71yuh7ehP_12regex_syntax3hir17ClassUnicodeRangeNtNtBT_5alloc6GlobalEEB2p_
_RINvNtCs5cYH0lLSdLc_4core3ptr13drop_in_placeINtNvXsd_NtNtCsaz9ix1H7t6h_5alloc3vec9into_iterINtBP_8IntoIterppENtNtNtB4_3ops4drop4Drop4drop9DropGuardhNtNtBT_5alloc6GlobalEECs9nCsezDqTf4_12regex_syntax
_RINvNtCs5cYH0lLSdLc_4core3ptr13drop_in_placeNCINvMs2_NtCs9y1FA68QrFG_9once_cell3impINtBP_8OnceCellINtNtNtCs2FIVCi1Wrow_3std4sync6rwlock6RwLockINtNtCsaz9ix1H7t6h_5alloc3vec3VecNtNtCs3jNsHQA6hKW_12tracing_core10dispatcher9RegistrarEEE10initializeNCINvMs4_NtBR_4syncINtB43_8OnceCellB1y_E11get_or_initNCNvMs9_B43_INtB43_4LazyB1y_E5force0E0NtNvMs4_B43_IB4e_pE11get_or_init4VoidE0EB2R_
_RINvNtCs5cYH0lLSdLc_4core3ptr13drop_in_placeNCINvMs6_NtCsffYwmj09FSj_9hashbrown3rawINtBP_8RawTableTNtNtCs4O6ck48ZfFc_5regex3dfa5StatemEE24find_or_find_insert_slotNCINvNtBR_3map14equivalent_keyB1z_B1z_mE0NCINvB2F_11make_hasherB1z_mNtNtNtCs2FIVCi1Wrow_3std4hash6random11RandomStateE0E0EB1D_
_RINvNtCs5cYH0lLSdLc_4core3ptr13drop_in_placeNCINvMsi_NtCsaz9ix1H7t6h_5alloc3vecINtBP_3VecNtNtBR_6string6StringE14extend_trustedINtNtNtNtB4_4iter8adapters3map3MapINtNtNtB4_5slice4iter4IterTNtNtNtCs2FIVCi1Wrow_3std3ffi6os_str8OsStringB30_EENCNvXs_CslmJ0Mh1KeWG_10pkg_configNtB3V_14WrappedCommandNtNtB4_3fmt7Display3fmt0EE0EB3V_
_RINvNtCs5cYH0lLSdLc_4core3ptr13drop_in_placeNCINvMsi_NtCsaz9ix1H7t6h_5alloc3vecINtBP_3VecNtNtCs9nCsezDqTf4_12regex_syntax3hir17ClassUnicodeRangeE14extend_trustedINtNtNtB4_5array4iter8IntoIterB1p_Kj1_EE0EB1t_
_RINvNtCs5cYH0lLSdLc_4core3ptr13drop_in_placeNCINvMsi_NtCsaz9ix1H7t6h_5alloc3vecINtBP_3VechE14extend_trustedINtNtNtNtB4_4iter8adapters6copied6CopiedINtNtNtB4_5slice4iter4IterhEEE0ECs8N1fpKxZYXv_6flate2
_RINvNtCs5cYH0lLSdLc_4core3ptr13drop_in_placeNCINvNtNtNtB4_4iter8adapters3map8map_foldRNtNtCs2X71yuh7ehP_12regex_syntax3hir17ClassUnicodeRangeTccEuNCNvMNtCs4O6ck48ZfFc_5regex7compileNtB2p_8Compiler7c_class0NCINvNvNtNtNtBP_6traits8iterator8Iterator8for_each4callB2f_NCINvMsi_NtCsaz9ix1H7t6h_5alloc3vecINtB4n_3VecB2f_E14extend_trustedINtBL_3MapINtNtNtB4_5slice4iter4IterB1m_EB2k_EE0E0E0EB2r_
_RINvNtCs5cYH0lLSdLc_4core3ptr13drop_in_placeNCINvNtNtNtB4_4iter8adapters3map8map_foldRyyuNCNvNtNtCsb5MyUsmU2ju_10num_bigint6bigint4bits14bitxor_neg_pos0NCINvNvNtNtNtBP_6traits8iterator8Iterator8for_each4callyNCINvMsi_NtCsaz9ix1H7t6h_5alloc3vecINtB3t_3VecyE14extend_trustedINtBL_3MapINtNtNtB4_5slice4iter4IteryEB1p_EE0E0E0EB1x_
_RINvNtCs5cYH0lLSdLc_4core3ptr13drop_in_placeNCINvNvNtB4_5array25try_from_trusted_iterator4nextINtNtNtB4_3ops9try_trait17NeverShortCircuitINtNtNtCs57lu83pa5Ym_4jiff4util8rangeint4ri64Knn8000000000000000_Kn7fffffffffffffff_EEINtNtNtNtB4_4iter8adapters3map3MapINtNtBN_5drain5DrainB2b_ENCINvMB1x_B1u_10wrap_mut_1B2b_NCINvMs65_B2e_B2b_9vary_manyKj2_KB5t_KB2V_KB3f_NCINvMs0_NtB2i_9timestampNtB5U_9Timestamp10new_rangedIB2c_Knn57f0f946e1_Kn3afff2d3e0_EINtB2e_4ri32Knn3b9ac9ff_Kn3b9ac9ff_EE0E0E0EE0EB2i_
_RINvNtCs5cYH0lLSdLc_4core3ptr13drop_in_placeNCINvNvNtNtNtNtB4_4iter6traits8iterator8Iterator8for_each4callNtNtCs2X71yuh7ehP_12regex_syntax3hir15ClassBytesRangeNCINvMsi_NtCsaz9ix1H7t6h_5alloc3vecINtB2G_3VecB1G_E14extend_trustedINtNtNtBT_8adapters3map3MapINtNtNtB4_5slice4iter4IterTccEENCNvMs3_NtB1I_9translateNtB4G_11TranslatorI20hir_ascii_byte_class0EE0E0EB1K_
_RINvNtCs5cYH0lLSdLc_4core3ptr13drop_in_placeNCINvNvNtNtNtNtB4_4iter6traits8iterator8Iterator8for_each4callNtNtCsaz9ix1H7t6h_5alloc6string6StringNCINvMsi_NtB1K_3vecINtB2r_3VecB1G_E14extend_trustedINtNtNtBT_8adapters3map3MapINtNtB2r_9into_iter8IntoIterReENvYB1G_INtNtB4_7convert4FromB40_E4fromEE0E0ECslmJ0Mh1KeWG_10pkg_config
_RINvNtCs5cYH0lLSdLc_4core3ptr13drop_in_placeNCINvNvNtNtNtNtB4_4iter6traits8iterator8Iterator8for_each4calliNCINvMsi_NtCsaz9ix1H7t6h_5alloc3vecINtB1Q_3VeciE14extend_trustedINtNtNtBT_8adapters5chain5ChainINtNtNtB4_3ops5range5RangeiEB3e_EE0E0ECsjdZ23FVQsGn_6strsim
_RINvNtCs5cYH0lLSdLc_4core3ptr13drop_in_placeNCNvMs4_NtCs5JpHNn9QXrP_12sharded_slab4pageINtBO_6SharedNtNtNtCslN86gTjml9v_18tracing_subscriber8registry7sharded9DataInnerNtNtBQ_3cfg13DefaultConfigE8allocate0EB1G_
_RINvNtCs5cYH0lLSdLc_4core3ptr13drop_in_placeNtCs1oQKbJZNed1_11tracing_log13DebugCallsiteEBI_
_RINvNtCs5cYH0lLSdLc_4core3ptr13drop_in_placeNtCscpgdAsQ0t7q_12synstructure11BindingInfoEBI_
_RINvNtCs5cYH0lLSdLc_4core3ptr13drop_in_placeNtCsj5CQOIyK9s_16rustls_pki_types17PrivateSec1KeyDerEBI_
_RINvNtCs5cYH0lLSdLc_4core3ptr13drop_in_placeNtNtB4_3fmt5ErrorECs8v0VABUG8rU_14rustc_demangle
_RINvNtCs5cYH0lLSdLc_4core3ptr13drop_in_placeNtNtB4_4cell9BorrowRefECs9XN0b3DABn9_12regex_syntax
_RINvNtCs5cYH0lLSdLc_4core3ptr13drop_in_placeNtNtCs26nnaF11nq9_6anyhow6ensure3BufEBK_
_RINvNtCs5cYH0lLSdLc_4core3ptr13drop_in_placeNtNtCs2FIVCi1Wrow_3std6thread10ThreadNameECs4EMmDgM0Qf0_3syn
_RINvNtCs5cYH0lLSdLc_4core3ptr13drop_in_placeNtNtCs2FIVCi1Wrow_3std7process5ChildECskmFptwX7bJS_2cc
_RINvNtCs5cYH0lLSdLc_4core3ptr13drop_in_placeNtNtCs2X71yuh7ehP_12regex_syntax7unicode13CaseFoldErrorEBK_
_RINvNtCs5cYH0lLSdLc_4core3ptr13drop_in_placeNtNtCs2mAb9LCDQQz_12regex_syntax3ast9GroupKindEBK_.llvm.17617001914045156773
_RINvNtCs5cYH0lLSdLc_4core3ptr13drop_in_placeNtNtCs3paU50YnTHN_10serde_json5value5ValueEBK_
_RINvNtCs5cYH0lLSdLc_4core3ptr13drop_in_placeNtNtCs4EMmDgM0Qf0_3syn4data7VariantEBK_
_RINvNtCs5cYH0lLSdLc_4core3ptr13drop_in_placeNtNtCs4EMmDgM0Qf0_3syn5token4PlusEBK_
_RINvNtCs5cYH0lLSdLc_4core3ptr13drop_in_placeNtNtCs4EMmDgM0Qf0_3syn8generics18TraitBoundModifierEBK_
_RINvNtCs5cYH0lLSdLc_4core3ptr13drop_in_placeNtNtCs57lu83pa5Ym_4jiff4span12RelativeSpanEBK_
_RINvNtCs5cYH0lLSdLc_4core3ptr13drop_in_placeNtNtCs6U8uOOj1kNg_15crossbeam_epoch9collector9CollectorEBK_
_RINvNtCs5cYH0lLSdLc_4core3ptr13drop_in_placeNtNtCs8zkBknKQsDL_12aho_corasick9prefilter12RareBytesTwoEBK_
_RINvNtCs5cYH0lLSdLc_4core3ptr13drop_in_placeNtNtCs9XN0b3DABn9_12regex_syntax7unicode13CaseFoldErrorEBK_
_RINvNtCs5cYH0lLSdLc_4core3ptr13drop_in_placeNtNtCsA3zysNafLn_8num_cpus5linux6CgroupEBK_
_RINvNtCs5cYH0lLSdLc_4core3ptr13drop_in_placeNtNtCsaz9ix1H7t6h_5alloc6string6StringECs57lu83pa5Ym_4jiff
_RINvNtCs5cYH0lLSdLc_4core3ptr13drop_in_placeNtNtCsb25norpuD06_15crossbeam_epoch5guard5GuardEBK_
_RINvNtCs5cYH0lLSdLc_4core3ptr13drop_in_placeNtNtCsdnoBS5ZrN31_5bytes9bytes_mut6SharedEBK_
_RINvNtCs5cYH0lLSdLc_4core3ptr13drop_in_placeNtNtCshD5YnGfk4Ix_12tracing_core10dispatcher9RegistrarEBK_
_RINvNtCs5cYH0lLSdLc_4core3ptr13drop_in_placeNtNtCskxLabLldeBg_5regex5error5ErrorEBK_
_RINvNtCs5cYH0lLSdLc_4core3ptr13drop_in_placeNtNtNtB4_3fmt8builders11DebugStructECs3jNsHQA6hKW_12tracing_core
_RINvNtCs5cYH0lLSdLc_4core3ptr13drop_in_placeNtNtNtB4_3num5error15TryFromIntErrorECshS2dRy2YWOW_11proc_macro2
_RINvNtCs5cYH0lLSdLc_4core3ptr13drop_in_placeNtNtNtB4_5alloc6layout6LayoutECs9SZLB96ovWp_7bumpalo
_RINvNtCs5cYH0lLSdLc_4core3ptr13drop_in_placeNtNtNtCs2FIVCi1Wrow_3std2io5error5ErrorECsfxQUllQ8uWg_9same_file
_RINvNtCs5cYH0lLSdLc_4core3ptr13drop_in_placeNtNtNtCs2FIVCi1Wrow_3std2io5error6CustomECshD5YnGfk4Ix_12tracing_core
_RINvNtCs5cYH0lLSdLc_4core3ptr13drop_in_placeNtNtNtCs2FIVCi1Wrow_3std3net3tcp11TcpListenerECsnXVG1ei7nV_3mio
_RINvNtCs5cYH0lLSdLc_4core3ptr13drop_in_placeNtNtNtCs2FIVCi1Wrow_3std6thread6scoped9ScopeDataECs2WU2hRDnNVz_5tokio
_RINvNtCs5cYH0lLSdLc_4core3ptr13drop_in_placeNtNtNtCs2eZKGvXrlyD_14regex_automata3dfa7onepass7BuilderEBM_
_RINvNtCs5cYH0lLSdLc_4core3ptr13drop_in_placeNtNtNtCs2eZKGvXrlyD_14regex_automata6hybrid3dfa7BuilderEBM_
_RINvNtCs5cYH0lLSdLc_4core3ptr13drop_in_placeNtNtNtCs4O6ck48ZfFc_5regex7literal3imp7MatcherEBM_
_RINvNtCs5cYH0lLSdLc_4core3ptr13drop_in_placeNtNtNtCs6Ps44CJ3Bgw_12aho_corasick4util9prefilter14RareBytesThreeEBM_
_RINvNtCs5cYH0lLSdLc_4core3ptr13drop_in_placeNtNtNtCs6nv0K25L1YS_14regex_automata4meta8wrappers18BoundedBacktrackerEBM_
_RINvNtCs5cYH0lLSdLc_4core3ptr13drop_in_placeNtNtNtCs7NbdE0zyweH_4toml3ser5error5ErrorEBM_
_RINvNtCs5cYH0lLSdLc_4core3ptr13drop_in_placeNtNtNtCsIOS3H4Mofs_8textwrap15wrap_algorithms11optimal_fit13OverflowErrorEBM_
_RINvNtCs5cYH0lLSdLc_4core3ptr13drop_in_placeNtNtNtCsaz9ix1H7t6h_5alloc3vec15set_len_on_drop12SetLenOnDropECs9TyfFA9Qr3c_14iana_time_zone
_RINvNtCs5cYH0lLSdLc_4core3ptr13drop_in_placeNtNtNtCsdTuBsJ9FlQ2_12aho_corasick3nfa13noncontiguous3NFAEBM_
_RINvNtCs5cYH0lLSdLc_4core3ptr13drop_in_placeNtNtNtCsetRrSidvX01_12tracing_core8callsite11dispatchers9RebuilderEBM_
_RINvNtCs5cYH0lLSdLc_4core3ptr13drop_in_placeNtNtNtCslN86gTjml9v_18tracing_subscriber8registry10extensions15ExtensionsInnerEBM_
_RINvNtCs5cYH0lLSdLc_4core3ptr13drop_in_placeNtNtNtNtCs2FIVCi1Wrow_3std2io5error14repr_bitpacked4ReprECslwVcsPhxZTW_13openssl_probe
_RINvNtCs5cYH0lLSdLc_4core3ptr13drop_in_placeNtNtNtNtCs2WU2hRDnNVz_5tokio3net4unix6socket10UnixSocketEBO_
_RINvNtCs5cYH0lLSdLc_4core3ptr13drop_in_placeNtNtNtNtCs2eZKGvXrlyD_14regex_automata3nfa8thompson3nfa5StateEBO_
_RINvNtCs5cYH0lLSdLc_4core3ptr13drop_in_placeNtNtNtNtCs66wWZj37GoV_6memchr4arch3all9rabinkarp4HashEBO_
_RINvNtCs5cYH0lLSdLc_4core3ptr13drop_in_placeNtNtNtNtCs7NbdE0zyweH_4toml2de6parser7dearray7DeArrayEBO_
_RINvNtCs5cYH0lLSdLc_4core3ptr13drop_in_placeNtNtNtNtNtCs2FIVCi1Wrow_3std2os4unix3net8datagram12UnixDatagramECsnXVG1ei7nV_3mio
_RINvNtCs5cYH0lLSdLc_4core3ptr13drop_in_placeNtNtNtNtNtCs2FIVCi1Wrow_3std3sys4sync4once5futex15CompletionGuardECsaluMZKqF2aj_15crossbeam_utils
_RINvNtCs5cYH0lLSdLc_4core3ptr13drop_in_placeNtNvNtNtCs2FIVCi1Wrow_3std3sys12thread_local20abort_on_dtor_unwind15DtorUnwindGuardECs9ZgoKwCKHe9_12tracing_core
_RINvNtCs5cYH0lLSdLc_4core3ptr13drop_in_placeNtNvXs7_NtCs3xBtNxWzGYw_10serde_core2deNtBO_16WithDecimalPointNtNtB4_3fmt7Display3fmt19LookForDecimalPointEBQ_
_RINvNtCs5cYH0lLSdLc_4core3ptr13drop_in_placeRINtNtB2_8non_null7NonNullNtNtNtCs2WU2hRDnNVz_5tokio4sync15batch_semaphore6WaiterEEB1c_
_RINvNtCs5cYH0lLSdLc_4core3ptr13drop_in_placeRINtNtB4_6option6OptionhEECs9nCsezDqTf4_12regex_syntax
_RINvNtCs5cYH0lLSdLc_4core3ptr13drop_in_placeRINtNtCs5tx0e2t1Md0_9toml_edit4repr9FormattedxEEBM_
_RINvNtCs5cYH0lLSdLc_4core3ptr13drop_in_placeRINtNtNtB4_3mem12maybe_uninit11MaybeUninithEECs9oW1mCSfvtA_7socket2
_RINvNtCs5cYH0lLSdLc_4core3ptr13drop_in_placeRINtNtNtNtCsdTuBsJ9FlQ2_12aho_corasick6packed5teddy7generic4SlimNtNtNtB4_9core_arch3x867___m256iKj1_EEBQ_
_RINvNtCs5cYH0lLSdLc_4core3ptr13drop_in_placeRNtNtCs3fINW8eOU7_5hyper5error6HeaderEBL_
_RINvNtCs5cYH0lLSdLc_4core3ptr13drop_in_placeRNtNtCs5tx0e2t1Md0_9toml_edit15array_of_tables13ArrayOfTablesEBL_
_RINvNtCs5cYH0lLSdLc_4core3ptr13drop_in_placeRNtNtCs9nCsezDqTf4_12regex_syntax3hir7CaptureEBL_
_RINvNtCs5cYH0lLSdLc_4core3ptr13drop_in_placeRNtNtNtB4_3num5error12IntErrorKindECs2X71yuh7ehP_12regex_syntax
_RINvNtCs5cYH0lLSdLc_4core3ptr13drop_in_placeRNtNtNtCs2FIVCi1Wrow_3std2io5error5ErrorECsjRWpUytRaxp_6chrono
_RINvNtCs5cYH0lLSdLc_4core3ptr13drop_in_placeRNtNtNtCs6nv0K25L1YS_14regex_automata6hybrid2id11LazyStateIDEBN_
_RINvNtCs5cYH0lLSdLc_4core3ptr13drop_in_placeRNtNtNtNtCs8zkBknKQsDL_12aho_corasick6packed5teddy7runtime5TeddyEBP_
_RINvNtCs5cYH0lLSdLc_4core3ptr13drop_in_placeRReECsbAcuo5IcILv_5errno
_RINvNtCs5cYH0lLSdLc_4core3ptr13drop_in_placeRcECsaMSDOvq7TeD_4idna
_RINvNtCs5cYH0lLSdLc_4core3ptr13drop_in_placeRhECs4O6ck48ZfFc_5regex
_RINvNtCs5cYH0lLSdLc_4core3ptr13drop_in_placeRjECs4O6ck48ZfFc_5regex
_RINvNtCs5cYH0lLSdLc_4core3ptr13drop_in_placeRjECskW2IniEFxkb_7socket2
_RINvNtCs5cYH0lLSdLc_4core3ptr13drop_in_placeRtECsGnTjlLOiBu_13version_check
_RINvNtCs5cYH0lLSdLc_4core3ptr13drop_in_placeRuECskmFptwX7bJS_2cc
_RINvNtCs5cYH0lLSdLc_4core3ptr13drop_in_placeSINtNtCsaz9ix1H7t6h_5alloc3vec3VechEECs6Ps44CJ3Bgw_12aho_corasick
_RINvNtCs5cYH0lLSdLc_4core3ptr13drop_in_placeSNtCskdGv34WPu6C_4glob11PathWrapperEBJ_
_RINvNtCs5cYH0lLSdLc_4core3ptr13drop_in_placeSNtNtCs9nCsezDqTf4_12regex_syntax3ast12ClassSetItemEBL_
_RINvNtCs5cYH0lLSdLc_4core3ptr13drop_in_placeSNtNtNtCs9nCsezDqTf4_12regex_syntax3hir7literal5StateEBN_
_RINvNtCs5cYH0lLSdLc_4core3ptr13drop_in_placeTINtNtCs7XPJVOJwuEK_13serde_spanned7spanned7SpannedINtNtCsaz9ix1H7t6h_5alloc6borrow3CoweEEIBI_NtNtNtNtCs7NbdE0zyweH_4toml2de6parser7devalue7DeValueEEEB2k_
_RINvNtCs5cYH0lLSdLc_4core3ptr13drop_in_placeTNtNtCs4EMmDgM0Qf0_3syn4data5FieldNtNtBL_5token5CommaEEBL_
_RINvNtCs5cYH0lLSdLc_4core3ptr13drop_in_placebECs4O6ck48ZfFc_5regex
_RINvNtCs5cYH0lLSdLc_4core3ptr13drop_in_placehECs3hvKdPaoini_6memchr
_RINvNtCs5cYH0lLSdLc_4core3ptr13drop_in_placejECsezYSAf6KkN7_16rustls_pki_types
_RINvNtCs5cYH0lLSdLc_4core3ptr13drop_in_placenECslN86gTjml9v_18tracing_subscriber
_RINvNtCs5cYH0lLSdLc_4core3ptr14read_unalignedINtNtNtB4_9core_simd6vector4SimdhKj10_EECshS2dRy2YWOW_11proc_macro2
_RINvNtCs5cYH0lLSdLc_4core3ptr14write_volatileINtNtNtB4_3num7nonzero7NonZeroiEECsga13L7fmI5k_7zeroize
_RINvNtCs5cYH0lLSdLc_4core3ptr19swap_nonoverlappingNtNtCs4O6ck48ZfFc_5regex6pikevm7ThreadsEBQ_
_RINvNtCs5cYH0lLSdLc_4core3ptr19swap_nonoverlappingTjcEECspQV0jMy21P_4idna
_RINvNtCs5cYH0lLSdLc_4core3ptr4readINtNtCsaz9ix1H7t6h_5alloc5boxed3BoxNCINvMNtCs6U8uOOj1kNg_15crossbeam_epoch5guardNtB1b_5Guard15defer_uncheckedNCINvB1a_13defer_destroyINtNtNtB1d_4sync5queue4NodeNtNtB1d_8internal9SealedBagEE0INtNtB1d_6atomic5OwnedB2F_EE0EEB1d_
_RINvNtCs5cYH0lLSdLc_4core3ptr5writeINtNtCsaz9ix1H7t6h_5alloc5boxed3BoxNCINvMNtCs6U8uOOj1kNg_15crossbeam_epoch5guardNtB1c_5Guard15defer_uncheckedNCINvB1b_13defer_destroyINtNtNtB1e_4sync5queue4NodeNtNtB1e_8internal9SealedBagEE0INtNtB1e_6atomic5OwnedB2G_EE0EEB1e_
_RINvNtCs5cYH0lLSdLc_4core5array11try_from_fnINtNtNtB4_3ops9try_trait17NeverShortCircuitINtNtNtNtCs6Ps44CJ3Bgw_12aho_corasick6packed5teddy7generic4MaskNtNtNtB4_9core_arch3x867___m256iEEKj1_NCINvNvB2_25try_from_trusted_iterator4nextBG_INtNtNtNtB4_4iter8adapters3map3MapINtNtB2_5drain5DrainNtB1q_14FatMaskBuilderENCINvMBJ_BG_10wrap_mut_1B4B_NCINvMsf_B1q_B4B_10from_teddyKB2X_B2o_E0E0EE0EB1w_
_RINvNtCs5cYH0lLSdLc_4core5array18try_from_fn_erasedINtNtNtNtCs6Ps44CJ3Bgw_12aho_corasick6packed5teddy7generic4MaskNtNtNtB4_9core_arch3x867___m256iEINtNtNtB4_3ops9try_trait17NeverShortCircuitBN_ENCINvNvB2_25try_from_trusted_iterator4nextB2l_INtNtNtNtB4_4iter8adapters3map3MapINtNtB2_5drain5DrainNtBQ_15SlimMaskBuilderENCINvMB2o_B2l_10wrap_mut_1B4I_NCINvMsd_BQ_B4I_10from_teddyKj4_B1O_E0E0EE0EBW_
_RINvNtCs5cYH0lLSdLc_4core5array25try_from_trusted_iteratorINtNtNtNtCsdTuBsJ9FlQ2_12aho_corasick6packed5teddy7generic4MaskNtNtNtB4_9core_arch3x867___m256iEINtNtNtB4_3ops9try_trait17NeverShortCircuitBU_EKj2_INtNtNtNtB4_4iter8adapters3map3MapINtNtB2_5drain5DrainNtBX_15SlimMaskBuilderENCINvMB2v_B2s_10wrap_mut_1B49_NCINvMsd_BX_B49_10from_teddyKB3e_B1V_E0E0EEB13_
_RINvNtCs5cYH0lLSdLc_4core9panicking13assert_failedINtNtB4_6option6OptionjEBM_ECsIOS3H4Mofs_8textwrap
_RINvNtCs5cYH0lLSdLc_4core9panicking13assert_failedPNtNtCsbLwEFGmkA9L_10rayon_core8registry12WorkerThreadBM_EBR_
_RINvNtCs5cYH0lLSdLc_4core9panicking13assert_failedjjECs9SZLB96ovWp_7bumpalo
_RINvNtCs5cYH0lLSdLc_4core9panicking13assert_failedssECs57lu83pa5Ym_4jiff
_RINvNtCs5dWRGIcTDwp_4eyre5error17object_drop_frontNtNtCshgx866xcH9W_5alloc6string6StringEB4_
_RINvNtCs6Lc9gOt6nma_16parking_lot_core11parking_lot4parkNCNvMs_NtCs3PKxsq3HmSM_11parking_lot4onceNtBZ_4Once14call_once_slow0NCBU_s_0NCBU_s0_0EB11_
_RINvNtCs6uRFoiHRIgn_3nom10combinator3cutRShNtNtCsi1PQLdatSvq_11x509_parser10extensions20CRLDistributionPointNtNtCsfcdQbM8XNhc_7asn1_rs5error5ErrorNvNtBH_6parser26parse_crldistributionpointEBJ_
_RINvNtCs6uRFoiHRIgn_3nom10combinator8completeRShINtNtCshgx866xcH9W_5alloc3vec3VecNtNtNtCsi1PQLdatSvq_11x509_parser10extensions11generalname11GeneralNameENtNtCsfcdQbM8XNhc_7asn1_rs5error5ErrorNCINvNtNtCsbHXshUE3PXC_10der_parser3der5multi19parse_der_containerBK_NCINvNtB3a_6tagged27parse_der_tagged_implicit_gmBK_NCNCNvNtB1l_6parser26parse_crldistributionpoint0s_0B2r_E0B2r_E0EB1n_
_RINvNtCs73ztbjO6fBx_6ignore3dir16create_gitignoreReEB4_
_RINvNtCs7GlkVKgSNI8_3nom10combinator8completeRShhINtNtB4_5error5ErrorBH_ENvNvNtCsdvjIhOb5ndw_5cexpr7literal11float_width6parserEB1f_
_RINvNtCs7GlkVKgSNI8_3nom8sequence5tupleRShTINtNtCshgx866xcH9W_5alloc3vec3VechEINtNtCsiL7B6CFZHyD_4core6option6OptionhEBF_TB1e_BF_EEINtNtB4_5error5ErrorBB_ETNCINvNtB4_5multi5many1BB_hB25_NCINvNtB4_10combinator8completeBB_hB25_NvNtCsdvjIhOb5ndw_5cexpr7literal7decimalE0E0NCINvB33_3optBB_hB25_NvNvB3D_7c_floats1_6parserE0NCINvB2z_5many0BB_hB25_B2Y_E0NvB3D_9float_expEEB3F_
_RINvNtCs7VDwacPzN0q_6rustix5utils6as_ptrNtNtCshZbRNFauiz1_13linux_raw_sys3elf8Elf_EhdrEB4_
_RINvNtCs7jsyuWpYTJC_19brotli_decompressor6decode22HuffmanTreeGroupDecodeINtNtCskiuEwMy1gmd_15alloc_no_stdlib15stack_allocator14StackAllocatorhINtB4_7MemPoolhEEIB19_mIB2h_mEEIB19_NtNtB4_7huffman11HuffmanCodeIB2h_B2Q_EEEB4_
_RINvNtCs83M1ESKWGqG_8bitflags6parser8from_strNtNtNtNtCsiMH1ImEuv9R_6rustix7backend2io5types14ReadWriteFlagsEBP_
_RINvNtCs8NalhHLbrlY_11fancy_regex8replacer12no_expansionRNtNtCshgx866xcH9W_5alloc6string6StringEB4_
_RINvNtCs8zkBknKQsDL_12aho_corasick8state_id17usize_to_state_idmECs4O6ck48ZfFc_5regex
_RINvNtCs9A9JS0ryDJM_3nom10combinator7map_optRShINtNtCshgx866xcH9W_5alloc3vec3VechEyINtNtB4_5error5ErrorBG_ENCINvNtB4_8sequence8precededBG_BG_BJ_B1j_NCINvNtNtB4_5bytes8complete3tagReBG_B1j_E0NCINvNtB4_5multi5many1BG_hB1j_NCINvB2_8completeBG_hB1j_NvNtCsfVvzz2Z4PLT_5cexpr7literal6binaryE0E0E0NCNvB3X_5c_ints1_0EB3Z_
_RINvNtCs9A9JS0ryDJM_3nom8sequence4pairRSNtNtCsfVvzz2Z4PLT_5cexpr5token5TokenINtNtCshgx866xcH9W_5alloc3vec3VechEIB1d_B1c_EINtBG_5ErrorBA_ENCNvMsb_NtBG_4exprNtB2j_4PRef10concat_str0NCINvNtB4_5multi5many0BA_B1c_B1V_NCINvNtB4_10combinator8completeBA_B1c_B1V_NCB2d_s_0E0E0EBG_
_RINvNtCs9ZgoKwCKHe9_12tracing_core10dispatcher11get_defaultNtNtCsiZw9eBwuJ5x_7tracing4span4SpanNCNvMBX_BV_3new0EBZ_
_RINvNtCs9noQX08EQGk_10libloading4util23ensure_compatible_typesINtNtCsiL7B6CFZHyD_4core6option6OptionFUKCNtCsi6pTmhHIU5M_9clang_sys8CXCursorEONtB1G_11CXStringSetEONtNtB13_3ffi6c_voidEB1G_
_RINvNtCs9noQX08EQGk_10libloading4util23ensure_compatible_typesINtNtCsiL7B6CFZHyD_4core6option6OptionFUKCONtNtB13_3ffi6c_voidB1E_ONtCsi6pTmhHIU5M_9clang_sys16IndexerCallbacksmlPaPB2N_lONtB25_13CXUnsavedFilemOB1E_lElEB1E_EB25_
_RINvNtCs9noQX08EQGk_10libloading4util23ensure_compatible_typesINtNtCsiL7B6CFZHyD_4core6option6OptionFUKCOPamEONtNtB13_3ffi6c_voidEB1J_ECsi6pTmhHIU5M_9clang_sys
_RINvNtCs9rvCcTOJGkv_9quick_xml6events8trim_cowNvNtB4_5utils14trim_xml_startEB4_
_RINvNtCsOFqGmZRkrE_8bitflags6parser8from_strNtNtCs69trJGxV1wW_7syscall4flag7RwFlagsEBK_
_RINvNtCsPpbALoXOFe_8bitflags6parser9to_writerNtCs4NLopzIeNt3_9raw_cpuid20ExtendedFeaturesEdx1QNtNtCsiL7B6CFZHyD_4core3fmt9FormatterEBJ_
_RINvNtCsa4pJCeafJ14_16ordered_multimap21list_ordered_multimap9raw_entryINtNtCsiL7B6CFZHyD_4core6option6OptionNtNtCshgx866xcH9W_5alloc6string6StringEB17_NtCs8c3TJ3X0nJ2_3ini10PropertiesNtB2_10DummyStateEB2s_
_RINvNtCsaMSDOvq7TeD_4idna5uts4620write_punycode_labelNtNtCsaz9ix1H7t6h_5alloc6string6StringEB4_
_RINvNtCsaz9ix1H7t6h_5alloc3str17join_generic_copyehNtNtB4_6string6StringECs2eZKGvXrlyD_14regex_automata
_RINvNtCsaz9ix1H7t6h_5alloc3vec9from_elemhECsdTuBsJ9FlQ2_12aho_corasick
_RINvNtCsaz9ix1H7t6h_5alloc5slice11stable_sortTjcENCINvMB2_SBH_11sort_by_keyjNCINvMs2_NtCsaMSDOvq7TeD_4idna8punycodeNtB1l_7Decoder6decodehNtB1l_14ExternalCallerEs0_0E0EB1n_
_RINvNtCsaz9ix1H7t6h_5alloc7raw_vec11finish_growNtNtB4_5alloc6GlobalECsassPaf2LEjx_20signal_hook_registry
_RINvNtCsb25norpuD06_15crossbeam_epoch6atomic11compose_tagNtNtNtB4_4sync4list5EntryEB4_
_RINvNtCsc2HCojBQwtV_10bigdecimal8impl_fmt26write_engineering_notationNtNtCshgx866xcH9W_5alloc6string6StringEB4_
_RINvNtCscnXTRSNDF9a_7console9unix_term8c_resultNCNvB2_11read_secure0EB4_
_RINvNtCsdFqYMsaiBHL_21async_global_executor7reactor8block_onNCNCNCNvNtB4_9threading34wait_for_local_executor_completion000uEB4_
_RINvNtCsdY0gPXVp8pd_12tracing_core5field5debugRINtNtCsiL7B6CFZHyD_4core6option6OptionNtNtBO_4time8DurationEECs4TTACaTIsrt_7polling
_RINvNtCsdztlhaupdrE_8bitflags6parser8from_strNtNtNtCs7VDwacPzN0q_6rustix6thread6libcap15CapabilityFlagsEBN_
_RINvNtCsdztlhaupdrE_8bitflags6parser9to_writerNtNtCskN1Yzg5nTsb_11procfs_core7process9StatFlagsQNtNtCsiL7B6CFZHyD_4core3fmt9FormatterEBM_
_RINvNtCsdztlhaupdrE_8bitflags6parser9to_writerNtNtNtNtCs8xYnUMf3W9W_6rustix7backend2io5types7FdFlagsQNtNtCsiL7B6CFZHyD_4core3fmt9FormatterEBQ_
_RINvNtCsedCA7Tpfiji_7asn1_rs5debug13trace_genericNCNvXsj_NtNtB4_10asn1_types7integermINtNtCsiL7B6CFZHyD_4core7convert7TryFromRNtNtBV_3any3AnyE8try_from0B1Z_mNtNtB4_5error5ErrorEB4_
_RINvNtCsfCLqCeWEhWn_9hashbrown10scopeguard5guardQINtNtB4_3raw8RawTableTINtCsdSUiUOQRSv2_8dlv_list5IndexINtNtCsiL7B6CFZHyD_4core6option6OptionNtNtCshgx866xcH9W_5alloc6string6StringEEINtNtCsa4pJCeafJ14_16ordered_multimap21list_ordered_multimap8MapEntryB1D_NtCs8c3TJ3X0nJ2_3ini10PropertiesEEENCNvMs6_BO_BL_5clear0EB46_
_RINvNtCsfcdQbM8XNhc_7asn1_rs5debug13trace_genericNCNvXsT_NtNtB4_10asn1_types7integerxINtNtCsiL7B6CFZHyD_4core7convert7TryFromRNtNtBV_3any3AnyE8try_from0B1Z_xNtNtB4_5error5ErrorEB4_
_RINvNtCsfeJIbP5z82V_8bitflags6parser8from_strNtNtNtNtCslc5DL33MxoQ_6rustix7backend4time5types12TimerfdFlagsEBP_
_RINvNtCsfeJIbP5z82V_8bitflags6parser9to_writerNtNtNtNtCslc5DL33MxoQ_6rustix7backend4time5types12TimerfdFlagsQNtNtCsiL7B6CFZHyD_4core3fmt9FormatterEBQ_
_RINvNtCsgYs22Aa4k3g_11urlencoding3enc11encode_intoNtNtCsiL7B6CFZHyD_4core7convert10InfallibleNCNvB2_13append_string0EB4_
_RINvNtCshK2h5RPyNs1_9hashbrown3map11make_hasherINtNtCshgx866xcH9W_5alloc4sync3ArceEBJ_NtNtNtCs2UqitWCaGEJ_14regex_automata4util10primitives10SmallIndexNtNtNtNtCs3NZLoJsOov_3std11collections4hash3map11RandomStateEB1s_
_RINvNtCshK2h5RPyNs1_9hashbrown3map11make_hasherNtNtCshgx866xcH9W_5alloc6string6StringBJ_jNtNtNtNtCs3NZLoJsOov_3std11collections4hash3map11RandomStateECs8NalhHLbrlY_11fancy_regex
_RINvNtCshK2h5RPyNs1_9hashbrown3map11make_hasherRRRNtNtCshgx866xcH9W_5alloc6string6StringBJ_uNtNtNtNtCs3NZLoJsOov_3std11collections4hash3map11RandomStateECsgcFSzCu6SVo_15chrono_tz_build
_RINvNtCshK2h5RPyNs1_9hashbrown3map14equivalent_keyINtNtCshgx866xcH9W_5alloc5boxed3BoxSIBN_NtNtNtCs3NZLoJsOov_3std3ffi6os_str5OsStrEEBM_NtNtCsbPHw0ZMlxUx_2cc4tool10ToolFamilyEB2d_
_RINvNtCshK2h5RPyNs1_9hashbrown3map14equivalent_keyNtNtCsiL7B6CFZHyD_4core3any6TypeIdBM_INtNtCshgx866xcH9W_5alloc5boxed3BoxDNtNtCsaRhs7vhgYg1_4http10extensions8AnyCloneNtNtBQ_6marker4SendNtB2H_4SyncEL_EEB21_
_RINvNtCshK2h5RPyNs1_9hashbrown3map14equivalent_keyReBM_uECs20txnxQ5U84_7bindgen
_RINvNtCshK2h5RPyNs1_9hashbrown3map14equivalent_keyeReINtNtCshgx866xcH9W_5alloc3vec3VechEECs6mVhnudWz0o_4term
_RINvNtCshK2h5RPyNs1_9hashbrown3map16make_insert_hashNtNtCshgx866xcH9W_5alloc6string6StringNtNtNtNtCs3NZLoJsOov_3std11collections4hash3map11RandomStateECs5JIXX6ZclYK_13dirs_sys_next
_RINvNtCshK2h5RPyNs1_9hashbrown3map16make_insert_hashReNtNtNtNtCs3NZLoJsOov_3std11collections4hash3map11RandomStateECskt8TpxtZnof_4clap
_RINvNtCshK2h5RPyNs1_9hashbrown3map9make_hashINtNvMs2_NtNtCsfjsGG03OZM8_7similar10algorithms5utilsINtBP_16IdentifyDistinctpE3new3KeyReB25_EBG_NtNtNtNtCs3NZLoJsOov_3std11collections4hash3map11RandomStateEBT_
_RINvNtCshK2h5RPyNs1_9hashbrown3map9make_hashNtNtCsiL7B6CFZHyD_4core3any6TypeIdBG_INtNtBK_4hash18BuildHasherDefaultNtNtCsgsIpKNYvolR_4http10extensions8IdHasherEEB1S_
_RINvNtCshK2h5RPyNs1_9hashbrown3map9make_hashRmBG_NtNtNtNtCs3NZLoJsOov_3std11collections4hash3map11RandomStateECsh0qnI37SO6t_7similar
_RINvNtCshK2h5RPyNs1_9hashbrown3raw16calculate_layoutTNtNtNtCs20txnxQ5U84_7bindgen2ir7context6ItemIdNtNtBT_6derive9CanDeriveEEBV_
_RINvNtCshV5KG6IN3gC_12futures_util6stream13assert_streamNtNtNtCsfuTXiacoSai_15trust_dns_proto4xfer14serial_message13SerialMessageINtNtNtB2_6stream4peek8PeekableINtNtB28_4fuse4FuseINtNtCsgBqAKDoMawG_15futures_channel4mpsc8ReceiverBS_EEEEBY_
_RINvNtCshgx866xcH9W_5alloc2rc11is_danglingINtNtB4_4sync8ArcInnerDNtNtNtCsj00cgAuU9Zj_11signal_hook8iterator7backend13SelfPipeWriteEL_EEB17_
_RINvNtCshgx866xcH9W_5alloc2rc11is_danglingINtNtB4_4sync8ArcInnerINtNtNtCs3NZLoJsOov_3std4sync5mutex5MutexINtNtB4_3vec3VechEEEECs3sZDYscQcZY_10rayon_core
_RINvNtCshgx866xcH9W_5alloc2rc11is_danglingINtNtB4_4sync8ArcInnerINtNtNtNtCs1pmdliUWjrC_12futures_util6stream17futures_unordered4task4TaskINtNtCs3HjF0nTt0Ee_12futures_task10future_obj9FutureObjuEEEEB19_
_RINvNtCshgx866xcH9W_5alloc2rc11is_danglingINtNtB4_4sync8ArcInnerNtNtCs1pmdliUWjrC_12futures_util9abortable10AbortInnerEEB14_
_RINvNtCshgx866xcH9W_5alloc2rc11is_danglingINtNtB4_4sync8ArcInnerNtNtCseA2dGjJQd8F_12futures_util9abortable10AbortInnerEEB14_
_RINvNtCshgx866xcH9W_5alloc2rc11is_danglingINtNtB4_4sync8ArcInnerNtNtNtCs7v7Yapv3qqg_13futures_timer6native5timer5InnerEEB16_
_RINvNtCshgx866xcH9W_5alloc2rc11is_danglingINtNtB4_4sync8ArcInnerNtNtNtNtCs3NZLoJsOov_3std3sys4unix2fs12InnerReadDirEECs6JGgWY6YaLc_6procfs
_RINvNtCshgx866xcH9W_5alloc2rc11is_danglingINtNtB4_4sync8ArcInnerShEECs2GX3rYzX9NP_14regex_automata
_RINvNtCshgx866xcH9W_5alloc3str17join_generic_copyehReECskt8TpxtZnof_4clap
_RINvNtCshgx866xcH9W_5alloc3vec9from_elemNtNtNtCsfcZx8z6uiNH_14regex_automata4util10primitives7StateIDEBI_
_RINvNtCshgx866xcH9W_5alloc3vec9from_elemhECs7adunahxyaw_9backtrace
_RINvNtCshgx866xcH9W_5alloc3vec9from_elemyECsjEyA6YBEhDw_13phf_generator
_RINvNtCshgx866xcH9W_5alloc4sync11data_offseteECs2cchV1ImpSo_4sval
_RINvNtCshgx866xcH9W_5alloc5alloc8box_freeANtNtCs91GDN4qvfiu_7similar5types6DiffOpj1_NtB2_6GlobalEBI_
_RINvNtCshgx866xcH9W_5alloc5alloc8box_freeDG0_INtNtNtCsiL7B6CFZHyD_4core3ops8function2FnTQL1_INtNtB4_3vec3VecRL0_NtNtCs9FARr6NRyzd_10color_eyre6config5FrameEEEp6OutputuNtNtBO_6marker4SendNtB2H_4SyncEL_NtB2_6GlobalEB1Q_
_RINvNtCshgx866xcH9W_5alloc5alloc8box_freeDNtNtCs6HoTchw45No_4http10extensions8AnyCloneNtNtCsiL7B6CFZHyD_4core6marker4SendNtB1o_4SyncEL_NtB2_6GlobalEBI_
_RINvNtCshgx866xcH9W_5alloc5alloc8box_freeDNtNtCsiL7B6CFZHyD_4core3any3AnyNtNtBI_6marker4SendEL_NtB2_6GlobalECs9uh8emyyfsF_14regex_automata
_RINvNtCshgx866xcH9W_5alloc5alloc8box_freeDNtNtCsiL7B6CFZHyD_4core3any3AnyNtNtBI_6marker4SendEL_NtB2_6GlobalECslIjNMLs0yCi_4rand
_RINvNtCshgx866xcH9W_5alloc5alloc8box_freeDNtNtCsiL7B6CFZHyD_4core5error5ErrorNtNtBI_6marker4SendNtB1f_4SyncEL_NtB2_6GlobalECs7GxYLVecAjK_7asn1_rs
_RINvNtCshgx866xcH9W_5alloc5alloc8box_freeDNtNtCsiL7B6CFZHyD_4core5error5ErrorNtNtBI_6marker4SendNtB1f_4SyncEL_NtB2_6GlobalECsczE7PKsO40l_4http
_RINvNtCshgx866xcH9W_5alloc5alloc8box_freeDNtNtCsiL7B6CFZHyD_4core5error5ErrorNtNtBI_6marker4SendNtB1f_4SyncEL_NtB2_6GlobalECslIjNMLs0yCi_4rand
_RINvNtCshgx866xcH9W_5alloc5alloc8box_freeINtNtCs1cxMKpSN2o4_3syn5drops6NoDropDINtNtBI_10punctuated9IterTraitNtNtBI_8generics13CapturedParamEp4ItemRB1I_EL_ENtB2_6GlobalECs19S8JT9Sa42_12prettyplease
_RINvNtCshgx866xcH9W_5alloc5alloc8box_freeINtNtNtB4_11collections11linked_list4NodeNtNtB4_6string6StringENtB2_6GlobalECsivq4NZsOFee_5rayon
_RINvNtCshgx866xcH9W_5alloc5alloc8box_freeINtNtNtCsiL7B6CFZHyD_4core3mem12maybe_uninit11MaybeUninitINtNtNtNtB4_11collections5btree4node12InternalNodeNtNtNtCsklfhaN9lQFy_12aho_corasick4util10primitives7StateIDNtNtB1D_7set_val9SetValZSTEENtB2_6GlobalEB2s_
_RINvNtCshgx866xcH9W_5alloc5alloc8box_freeINtNtNtCsiL7B6CFZHyD_4core3mem12maybe_uninit11MaybeUninitINtNtNtNtB4_11collections5btree4node8LeafNodeNtNtNtCsfcZx8z6uiNH_14regex_automata4util10primitives7StateIDNtNtB1D_7set_val9SetValZSTEENtB2_6GlobalEB2n_
_RINvNtCshgx866xcH9W_5alloc5alloc8box_freeINtNtNtCsiL7B6CFZHyD_4core3mem12maybe_uninit11MaybeUninitNtNtCs6c37mDEUb8k_12regex_syntax3hir11PropertiesIENtB2_6GlobalEB1C_
_RINvNtCshgx866xcH9W_5alloc5alloc8box_freeINtNtNtNtB4_11collections5btree4node12InternalNodeNtNtNtCsklfhaN9lQFy_12aho_corasick4util10primitives7StateIDNtNtBI_7set_val9SetValZSTENtB2_6GlobalEB1x_
_RINvNtCshgx866xcH9W_5alloc5alloc8box_freeINtNtNtNtB4_11collections5btree4node8LeafNodeNtNtNtCsfcZx8z6uiNH_14regex_automata4util10primitives7StateIDNtNtBI_7set_val9SetValZSTENtB2_6GlobalEB1s_
_RINvNtCshgx866xcH9W_5alloc5alloc8box_freeINtNtNtNtCs3NZLoJsOov_3std4sync4mpmc7counter7CounterINtNtBI_4list7ChannelNtNtCsaGnL1G5hXQS_9tiny_http6common6HeaderEENtB2_6GlobalEB1S_
_RINvNtCshgx866xcH9W_5alloc5alloc8box_freeINtNtNtNtCsk9QERyUqk6O_5tokio7runtime4task4core4CellINtNtNtBK_8blocking4task12BlockingTaskNCNvXsh_NtNtBM_3net4addrTRetENtNtB2d_6sealed17ToSocketAddrsPriv15to_socket_addrs0ENtNtB1y_8schedule16BlockingScheduleENtB2_6GlobalEBM_
_RINvNtCshgx866xcH9W_5alloc5alloc8box_freeNCNvXs_NtNtCs4USifnV5z1l_5tokio2io8blockingINtBK_8BlockingNtNtNtCs3NZLoJsOov_3std2io5stdio6StderrENtNtBM_11async_write10AsyncWrite10poll_write0NtB2_6GlobalEBO_
_RINvNtCshgx866xcH9W_5alloc5alloc8box_freeNtNtCs23yxf7uxwGf_12regex_syntax3ast10RepetitionNtB2_6GlobalEBH_
_RINvNtCshgx866xcH9W_5alloc5alloc8box_freeNtNtCs6c37mDEUb8k_12regex_syntax3ast10RepetitionNtB2_6GlobalEBH_
_RINvNtCshgx866xcH9W_5alloc5alloc8box_freeNtNtCsiatNQm0sLz8_15crossbeam_epoch8internal5LocalNtB2_6GlobalEBH_
_RINvNtCshgx866xcH9W_5alloc5alloc8box_freeNtNtCslWI3VPFq81_12regex_syntax3ast3AstNtB2_6GlobalEBH_
_RINvNtCshgx866xcH9W_5alloc5alloc8box_freeNtNtNtCs3NZLoJsOov_3std2io5error6CustomNtB2_6GlobalECs58rHsSnLr6S_4net2
_RINvNtCshgx866xcH9W_5alloc5alloc8box_freeNtNtNtCs3NZLoJsOov_3std2io5error6CustomNtB2_6GlobalECsanAB7VmQ4Jy_12tracing_core
_RINvNtCshgx866xcH9W_5alloc5alloc8box_freeNtNtNtCs3NZLoJsOov_3std2io5error6CustomNtB2_6GlobalECsjFZx60EnzF2_8num_cpus
_RINvNtCshgx866xcH9W_5alloc5alloc8box_freeNtNtNtCsk9QERyUqk6O_5tokio4time5sleep5SleepNtB2_6GlobalEBJ_
_RINvNtCshgx866xcH9W_5alloc5alloc8box_freeSINtNtNtCsiL7B6CFZHyD_4core3mem12maybe_uninit11MaybeUninithENtB2_6GlobalECs1dEy6nitbLR_7console
_RINvNtCshgx866xcH9W_5alloc5alloc8box_freeSNtNtB4_6string6StringNtB2_6GlobalECsi6pTmhHIU5M_9clang_sys
_RINvNtCshgx866xcH9W_5alloc5alloc8box_freeSNtNtCshpKpake7nJI_12regex_syntax3hir3HirNtB2_6GlobalEBI_
_RINvNtCshgx866xcH9W_5alloc5alloc8box_freeSNtNtNtNtCs2GX3rYzX9NP_14regex_automata4util11determinize5state5StateNtB2_6GlobalEBM_
_RINvNtCshgx866xcH9W_5alloc5alloc8box_freeShNtB2_6GlobalECs1cxMKpSN2o4_3syn
_RINvNtCshgx866xcH9W_5alloc5alloc8box_freeShNtB2_6GlobalECsgAlrTXw59u0_6flate2
_RINvNtCshgx866xcH9W_5alloc5alloc8box_freeSyNtB2_6GlobalECsg6ZIQJj5H2g_10num_bigint
_RINvNtCshgx866xcH9W_5alloc5slice11stable_sortNtNtB4_6string6StringNvYBH_NtNtCsiL7B6CFZHyD_4core3cmp10PartialOrd2ltECs73ztbjO6fBx_6ignore
_RINvNtCshgx866xcH9W_5alloc5slice11stable_sortNtNtNtCs6c37mDEUb8k_12regex_syntax3hir7literal7LiteralNvYBH_NtNtCsiL7B6CFZHyD_4core3cmp10PartialOrd2ltECs2GX3rYzX9NP_14regex_automata
_RINvNtCshgx866xcH9W_5alloc7raw_vec11finish_growNtNtB4_5alloc6GlobalECs28jDdmsL6FU_12thread_local
_RINvNtCshgx866xcH9W_5alloc7raw_vec11finish_growNtNtB4_5alloc6GlobalECs6vjS8b6gTe9_15crossbeam_utils
_RINvNtCshgx866xcH9W_5alloc7raw_vec11finish_growNtNtB4_5alloc6GlobalECsc11cvGCy7gV_12erased_serde
_RINvNtCshgx866xcH9W_5alloc7raw_vec11finish_growNtNtB4_5alloc6GlobalECsh0qnI37SO6t_7similar
_RINvNtCshqODCBDRaPH_5serde3ser17iterator_len_hintINtNtNtNtCshgx866xcH9W_5alloc11collections5btree3map4IterNtNtCszyCK4IS6d6_10serde_cbor5value5ValueB1G_EEB1K_
_RINvNtCsiL7B6CFZHyD_4core10intrinsics11write_byteshECsjDu2qtAHalK_5bytes
_RINvNtCsiL7B6CFZHyD_4core10intrinsics19copy_nonoverlappinghECsh7umdSYiYjh_5bytes
_RINvNtCsiL7B6CFZHyD_4core3any9type_nameINtNtCsfzEpHuN0CX2_4libc5types7PaddingAlj10_EEBG_
_RINvNtCsiL7B6CFZHyD_4core3any9type_nameINtNtCsisbKcmZPvGV_4libc5types7PaddingtEEBG_
_RINvNtCsiL7B6CFZHyD_4core3any9type_nameOuECslTWSZ1QIkt9_7tracing
_RINvNtCsiL7B6CFZHyD_4core3any9type_namelECsfcdQbM8XNhc_7asn1_rs
_RINvNtCsiL7B6CFZHyD_4core3cmp3maxhECs302BLY9Avsm_12regex_syntax
_RINvNtCsiL7B6CFZHyD_4core3cmp3maxjECshwiyRBDOsht_14rustc_demangle
_RINvNtCsiL7B6CFZHyD_4core3cmp3mincECslWI3VPFq81_12regex_syntax
_RINvNtCsiL7B6CFZHyD_4core3cmp3minjECsb6BebbR1nVn_3gif
_RINvNtCsiL7B6CFZHyD_4core3cmp3minmECs4rHto5i1Wx6_10regex_lite
_RINvNtCsiL7B6CFZHyD_4core3cmp6max_byRhQNvYBy_NtB2_3Ord3cmpECs2EzG6rTAlYY_8fdeflate
_RINvNtCsiL7B6CFZHyD_4core3cmp6max_byjNvYjNtB2_3Ord3cmpECs27bTk5Qbyxw_6memchr
_RINvNtCsiL7B6CFZHyD_4core3cmp6max_byjNvYjNtB2_3Ord3cmpECs6mVhnudWz0o_4term
_RINvNtCsiL7B6CFZHyD_4core3cmp6max_byjNvYjNtB2_3Ord3cmpECscE4OZ2raHyC_5bytes
_RINvNtCsiL7B6CFZHyD_4core3cmp6max_byjNvYjNtB2_3Ord3cmpECsh0qnI37SO6t_7similar
_RINvNtCsiL7B6CFZHyD_4core3cmp6max_byjNvYjNtB2_3Ord3cmpECslshdI1xb6kN_6memchr
_RINvNtCsiL7B6CFZHyD_4core3cmp6min_byNtNtB4_4time8DurationNvYBy_NtB2_3Ord3cmpECs4USifnV5z1l_5tokio
_RINvNtCsiL7B6CFZHyD_4core3cmp6min_byjNvYjNtB2_3Ord3cmpECs2HqUbEmi8sP_10serde_core
_RINvNtCsiL7B6CFZHyD_4core3cmp6min_byjNvYjNtB2_3Ord3cmpECs6mVhnudWz0o_4term
_RINvNtCsiL7B6CFZHyD_4core3cmp6min_byjNvYjNtB2_3Ord3cmpECscxJIMuSNCzo_8io_uring
_RINvNtCsiL7B6CFZHyD_4core3cmp6min_byjNvYjNtB2_3Ord3cmpECsiIXRVTjwog0_10num_traits
_RINvNtCsiL7B6CFZHyD_4core3cmp6min_byjQNvYjNtB2_3Ord3cmpECshpKpake7nJI_12regex_syntax
_RINvNtCsiL7B6CFZHyD_4core3cmp6min_byyNvYyNtB2_3Ord3cmpECs5vkXSUqiIuV_7socket2
_RINvNtCsiL7B6CFZHyD_4core3mem10needs_drophECs4sdexCj5LDw_11tungstenite
_RINvNtCsiL7B6CFZHyD_4core3mem11swap_simpleINtNtB2_12maybe_uninit11MaybeUninitINtNtB4_6option6OptionINtNtNtNtCs3NZLoJsOov_3std2io8buffered9bufreader9BufReaderNtNtNtCsaGnL1G5hXQS_9tiny_http4util18refined_tcp_stream16RefinedTcpStreamEEEEB2B_
_RINvNtCsiL7B6CFZHyD_4core3mem11swap_simpleINtNtB2_12maybe_uninit11MaybeUninitINtNtCshK2h5RPyNs1_9hashbrown3raw13RawTableInnerNtNtCshgx866xcH9W_5alloc5alloc6GlobalEEECsjVFsjCnhZkR_8num_cpus
_RINvNtCsiL7B6CFZHyD_4core3mem11swap_simpleINtNtB2_12maybe_uninit11MaybeUninitNtNtCs3NZLoJsOov_3std4path7PathBufEECs8qPlBtFINoP_4glob
_RINvNtCsiL7B6CFZHyD_4core3mem11swap_simpleINtNtB2_12maybe_uninit11MaybeUninitNtNtNtCs2GX3rYzX9NP_14regex_automata4util10primitives7StateIDEEB1j_
_RINvNtCsiL7B6CFZHyD_4core3mem11swap_simpleINtNtB2_12maybe_uninit11MaybeUninitTRefEEECsaGnL1G5hXQS_9tiny_http
_RINvNtCsiL7B6CFZHyD_4core3mem11swap_simpleINtNtB2_12maybe_uninit11MaybeUninithEECs89pdyz7HZkL_12aho_corasick
_RINvNtCsiL7B6CFZHyD_4core3mem11swap_simpleINtNtB2_12maybe_uninit11MaybeUninithEECsjh4mrTFEWVx_12regex_syntax
_RINvNtCsiL7B6CFZHyD_4core3mem11swap_simpleINtNtB2_12maybe_uninit11MaybeUninitjEECs91GDN4qvfiu_7similar
_RINvNtCsiL7B6CFZHyD_4core3mem11swap_simpleINtNtB2_12maybe_uninit11MaybeUninitjEECskPDHO4q21Z_11color_quant
_RINvNtCsiL7B6CFZHyD_4core3mem11swap_simpleINtNtCshK2h5RPyNs1_9hashbrown3raw13RawTableInnerNtNtCshgx866xcH9W_5alloc5alloc6GlobalEECsaD6S3I1VQmE_8num_cpus
_RINvNtCsiL7B6CFZHyD_4core3mem11swap_simpleNtCs8NalhHLbrlY_11fancy_regex4ExprEBG_
_RINvNtCsiL7B6CFZHyD_4core3mem11swap_simpleNtNtCshpKpake7nJI_12regex_syntax3hir15ClassBytesRangeEBI_
_RINvNtCsiL7B6CFZHyD_4core3mem11swap_simpleNtNtNtCslWI3VPFq81_12regex_syntax3hir7literal3SeqEBK_
_RINvNtCsiL7B6CFZHyD_4core3mem11swap_simplehECsfUX5QVIqeXh_6memchr
_RINvNtCsiL7B6CFZHyD_4core3mem14transmute_copyANtNtCs4rHto5i1Wx6_10regex_lite3hir10ClassRangej3_AINtNtB2_12maybe_uninit11MaybeUninitBI_EB1s_EBM_
_RINvNtCsiL7B6CFZHyD_4core3mem14transmute_copyATjjEj5_AINtNtB2_12maybe_uninit11MaybeUninitBI_EBM_ECs23yxf7uxwGf_12regex_syntax
_RINvNtCsiL7B6CFZHyD_4core3mem4dropINtNtCseGmTsceaoQM_15futures_channel4lock7TryLockINtNtB4_6option6OptionNtNtNtCs6HoTchw45No_4http6header3map9HeaderMapEEECsl3mREbhXjXK_5hyper
_RINvNtCsiL7B6CFZHyD_4core3mem4dropINtNtCshgx866xcH9W_5alloc5boxed3BoxINtNtCsdxpuzYOuQC7_15crossbeam_deque5deque5BlockNtNtCs3sZDYscQcZY_10rayon_core3job6JobRefEEEB1V_
_RINvNtCsiL7B6CFZHyD_4core3mem4dropINtNtCshgx866xcH9W_5alloc5boxed3BoxINtNtNtNtCsk9QERyUqk6O_5tokio7runtime4task4core4CellINtNtNtB1c_8blocking4task12BlockingTaskNCNvXsh_NtNtB1e_3net4addrTRetENtNtB2G_6sealed17ToSocketAddrsPriv15to_socket_addrs0ENtNtB20_8schedule16BlockingScheduleEEEB1e_
_RINvNtCsiL7B6CFZHyD_4core3mem4dropINtNtCsiatNQm0sLz8_15crossbeam_epoch6atomic5OwnedNtNtBB_8internal5LocalEEBB_
_RINvNtCsiL7B6CFZHyD_4core3mem4dropINtNtNtCs4USifnV5z1l_5tokio7runtime4task4TaskNtNtNtBB_8blocking8schedule16BlockingScheduleEEBD_
_RINvNtCsiL7B6CFZHyD_4core3mem4dropNtNtNtCs7v7Yapv3qqg_13futures_timer6native5timer11TimerHandleEBC_
_RINvNtCsiL7B6CFZHyD_4core3mem4dropcECsoKynq7mBqg_4idna
_RINvNtCsiL7B6CFZHyD_4core3mem4swapINtNtCshK2h5RPyNs1_9hashbrown3raw13RawTableInnerNtNtCshgx866xcH9W_5alloc5alloc6GlobalEECs8u8Bt1oxYji_14regex_automata
_RINvNtCsiL7B6CFZHyD_4core3mem4swapNtCs5YkXyS5HlmN_9addr2line12LineSequenceECsa1XupUGiia1_9backtrace
_RINvNtCsiL7B6CFZHyD_4core3mem4swapNtNtCshgx866xcH9W_5alloc6string6StringECs73ztbjO6fBx_6ignore
_RINvNtCsiL7B6CFZHyD_4core3mem4swapNtNtNtCsjh4mrTFEWVx_12regex_syntax3hir7literal7LiteralECsfcZx8z6uiNH_14regex_automata
_RINvNtCsiL7B6CFZHyD_4core3mem4swaphECsc76UpEbWLyW_6multer
_RINvNtCsiL7B6CFZHyD_4core3mem4takeINtNtNtCshgx866xcH9W_5alloc11collections9vec_deque8VecDequeINtNtNtCsk9QERyUqk6O_5tokio7runtime4task8NotifiedINtNtBD_4sync3ArcNtNtNtB1A_4task5local6SharedEEEEB1A_
_RINvNtCsiL7B6CFZHyD_4core3mem6forgetINtNCNvNtNtNtCs4USifnV5z1l_5tokio7runtime4task7harness11poll_future05GuardINtNtNtBJ_8blocking4task12BlockingTaskINtNtCshgx866xcH9W_5alloc5boxed3BoxNCNvXs_NtNtBL_2io8blockingINtB32_8BlockingNtNtNtCs3NZLoJsOov_3std2io5stdio6StderrENtNtB34_11async_write10AsyncWrite10poll_write0EENtNtB1P_8schedule16BlockingScheduleEEBL_
_RINvNtCsiL7B6CFZHyD_4core3mem6forgetINtNtCs70j6HBCKyJg_3sdd6shared6SharedINtNtNtCseZiuHO0vNIu_3scc10hash_table6bucket12LinkedBucketNtNtCshgx866xcH9W_5alloc6string6StringNtNtCs6MfJgXaOnUR_11serial_test9code_lock20UniqueReentrantMutexKj8_EEEB2L_
_RINvNtCsiL7B6CFZHyD_4core3mem6forgetINtNtNtCsk9QERyUqk6O_5tokio7runtime4task4TaskNtNtNtBD_8blocking8schedule16BlockingScheduleEEBF_
_RINvNtCsiL7B6CFZHyD_4core3mem6forgetNtNtCs2e7O6Zy14mZ_5bytes5bytes6SharedEBC_
_RINvNtCsiL7B6CFZHyD_4core3mem7replaceINtCsdSUiUOQRSv2_8dlv_list5EntryINtNtCsa4pJCeafJ14_16ordered_multimap21list_ordered_multimap10ValueEntryNtNtCshgx866xcH9W_5alloc6string6StringB2f_EEECs8c3TJ3X0nJ2_3ini
_RINvNtCsiL7B6CFZHyD_4core3mem7replaceINtNtCshgx866xcH9W_5alloc3vec3VecNtNtCsf48c72s39yb_14regex_automata3nfa10TransitionEEB1a_
_RINvNtCsiL7B6CFZHyD_4core3mem7replaceINtNtCskiuEwMy1gmd_15alloc_no_stdlib22allocated_stack_memory20AllocatedStackMemoryhEECs7jsyuWpYTJC_19brotli_decompressor
_RINvNtCsiL7B6CFZHyD_4core3mem7replaceINtNtNtNtCslBVC6wF8Bgr_5tokio7runtime4task4core5StageINtNtNtBG_8blocking4task12BlockingTaskNCNvXs_NtNtBI_2io8blockingINtB29_8BlockingNtNtNtCs3NZLoJsOov_3std2io5stdio6StdoutENtNtB2b_11async_write10AsyncWrite10poll_write0EEEBI_
_RINvNtCsiL7B6CFZHyD_4core3mem7replaceNtNtCsjDu2qtAHalK_5bytes5bytes5BytesEBD_
_RINvNtCsiL7B6CFZHyD_4core3mem7replaceQShECsedz0TwNyP2V_5weezl
_RINvNtCsiL7B6CFZHyD_4core3mem7replacetECskrh2G7GktFm_12num_rational
_RINvNtCsiL7B6CFZHyD_4core3ptr13drop_in_placeANtCsgMKgB7mnEUJ_11proc_macro211TokenStreamj1_ECs20txnxQ5U84_7bindgen
_RINvNtCsiL7B6CFZHyD_4core3ptr13drop_in_placeANtNtNtNtNtNtNtCsc4oagjLTc66_4libc4unix10linux_like5linux3gnu3b646x86_6412__libc_xmmregj10_EBV_
_RINvNtCsiL7B6CFZHyD_4core3ptr13drop_in_placeAaj40_ECsisbKcmZPvGV_4libc
_RINvNtCsiL7B6CFZHyD_4core3ptr13drop_in_placeAhj10_ECs1VYxpr1ArYB_6object
_RINvNtCsiL7B6CFZHyD_4core3ptr13drop_in_placeAhj20_ECskiipsQGF2Y8_4libc
_RINvNtCsiL7B6CFZHyD_4core3ptr13drop_in_placeAhj6_ECsaEWb6tiPUS9_6object
_RINvNtCsiL7B6CFZHyD_4core3ptr13drop_in_placeAhjff_ECs9aJIYchcVbh_13data_encoding
_RINvNtCsiL7B6CFZHyD_4core3ptr13drop_in_placeAmj1_ECs72F25776oGR_13linux_raw_sys
_RINvNtCsiL7B6CFZHyD_4core3ptr13drop_in_placeAmj6_ECsg4EaMv70CBa_4libc
_RINvNtCsiL7B6CFZHyD_4core3ptr13drop_in_placeAxj17_ECskiipsQGF2Y8_4libc
_RINvNtCsiL7B6CFZHyD_4core3ptr13drop_in_placeDINtNtNtB4_3ops8function2FnuEp6OutputNtNtNtCs2GX3rYzX9NP_14regex_automata4meta5regex5CacheNtNtB4_6marker4SendNtNtNtB4_5panic11unwind_safe10UnwindSafeNtB2a_4SyncNtB2t_13RefUnwindSafeEL_EB1n_
_RINvNtCsiL7B6CFZHyD_4core3ptr13drop_in_placeDNtNtB4_3any3AnyNtNtB4_6marker4SendEL_ECs5raREKjOxqT_13futures_timer
_RINvNtCsiL7B6CFZHyD_4core3ptr13drop_in_placeDNtNtB4_3any3AnyNtNtB4_6marker4SendEL_ECsgwZHJb2rARN_5vcpkg
_RINvNtCsiL7B6CFZHyD_4core3ptr13drop_in_placeDNtNtB4_5error5ErrorNtNtB4_6marker4SendNtB12_4SyncEL_ECs52Ma2mZ51Xc_12tracing_core
_RINvNtCsiL7B6CFZHyD_4core3ptr13drop_in_placeDNtNtB4_5error5ErrorNtNtB4_6marker4SendNtB12_4SyncEL_ECsaWmuPV6hRxo_12sharded_slab
_RINvNtCsiL7B6CFZHyD_4core3ptr13drop_in_placeDNtNtB4_5error5ErrorNtNtB4_6marker4SendNtB12_4SyncEL_ECsidrnck1WR5S_9yaml_rust
_RINvNtCsiL7B6CFZHyD_4core3ptr13drop_in_placeDNtNtCsczE7PKsO40l_4http10extensions8AnyCloneNtNtB4_6marker4SendNtB1r_4SyncEL_EBL_
_RINvNtCsiL7B6CFZHyD_4core3ptr13drop_in_placeDNtNtNtCsklfhaN9lQFy_12aho_corasick4util9prefilter10PrefilterIEL_EBN_
_RINvNtCsiL7B6CFZHyD_4core3ptr13drop_in_placeINtCs3KahaChA1Mk_8smallvec8SmallVecAINtNtCs9vszGGFNfUy_18tracing_subscriber8registry7SpanRefNtNtB1j_7sharded8RegistryEj10_EEB1l_
_RINvNtCsiL7B6CFZHyD_4core3ptr13drop_in_placeINtCs97ToZhCJ7Fo_12thread_local11ThreadLocalINtNtB4_4cell7RefCellNtNtNtCs9vszGGFNfUy_18tracing_subscriber8registry5stack9SpanStackEEEB1P_
_RINvNtCsiL7B6CFZHyD_4core3ptr13drop_in_placeINtCseCai5FPn4qB_8deranged14OptionRangedU8Kh1_Khc_EECs5MsBAlmYmSD_4time
_RINvNtCsiL7B6CFZHyD_4core3ptr13drop_in_placeINtCskuDRryey3wk_13async_channel8ReceiveruEECsdFqYMsaiBHL_21async_global_executor
_RINvNtCsiL7B6CFZHyD_4core3ptr13drop_in_placeINtNCNvNtNtNtCslBVC6wF8Bgr_5tokio7runtime4task7harness11poll_future05GuardINtNtNtBR_8blocking4task12BlockingTaskINtNtCshgx866xcH9W_5alloc5boxed3BoxNCNvXs_NtNtBT_2io8blockingINtB3a_8BlockingNtNtNtCs3NZLoJsOov_3std2io5stdio6StdoutENtNtB3c_11async_write10AsyncWrite10poll_flush0EENtNtB1X_8schedule16BlockingScheduleEEBT_
_RINvNtCsiL7B6CFZHyD_4core3ptr13drop_in_placeINtNtB4_3pin3PinINtNtCshgx866xcH9W_5alloc5boxed3BoxDNtNtNtB4_6future6future6Futurep6OutputINtNtB4_6result6ResultNtNtNtCsfuTXiacoSai_15trust_dns_proto4xfer12dns_response11DnsResponseNtNtB2A_5error10ProtoErrorENtNtB4_6marker4SendEL_EEEB2A_
_RINvNtCsiL7B6CFZHyD_4core3ptr13drop_in_placeINtNtB4_4cell10UnsafeCellINtNtB4_6option6OptionINtBJ_7RefCellINtNtCshgx866xcH9W_5alloc3vec3VecINtNtNtNtB1K_11collections5btree3map8BTreeMapNtNtB1K_6string6StringNtNtCskvdpLI7AOSZ_5insta8snapshot8SnapshotEEEEEEB3l_
_RINvNtCsiL7B6CFZHyD_4core3ptr13drop_in_placeINtNtB4_4cell10UnsafeCellINtNtB4_6option6OptionINtNtCshgx866xcH9W_5alloc4sync3ArcNtCsi6pTmhHIU5M_9clang_sys13SharedLibraryEEEEB21_
_RINvNtCsiL7B6CFZHyD_4core3ptr13drop_in_placeINtNtB4_4cell10UnsafeCellINtNtB4_6option6OptionNtNtCs3GpQl59W6pW_15crossbeam_epoch9collector11LocalHandleEEEB1v_
_RINvNtCsiL7B6CFZHyD_4core3ptr13drop_in_placeINtNtB4_4cell10UnsafeCellINtNtB4_6option6OptionNtNtNtB4_4task4wake5WakerEEECslBVC6wF8Bgr_5tokio
_RINvNtCsiL7B6CFZHyD_4core3ptr13drop_in_placeINtNtB4_4cell10UnsafeCellINtNtCshgx866xcH9W_5alloc3vec3VecINtNtB1a_5boxed3BoxNtNtNtCs2UqitWCaGEJ_14regex_automata4meta5regex5CacheEEEEB21_
_RINvNtCsiL7B6CFZHyD_4core3ptr13drop_in_placeINtNtB4_4cell10UnsafeCellINtNtCshgx866xcH9W_5alloc3vec3VecNtNtNtCs5Ng0wM7PJ5I_12regex_syntax3ast5parse10GroupStateEEEB1I_
_RINvNtCsiL7B6CFZHyD_4core3ptr13drop_in_placeINtNtB4_4cell10UnsafeCellINtNtCshgx866xcH9W_5alloc3vec3VecjEEECsf48c72s39yb_14regex_automata
_RINvNtCsiL7B6CFZHyD_4core3ptr13drop_in_placeINtNtB4_4cell10UnsafeCellINtNtNtNtCshgx866xcH9W_5alloc11collections5btree3set8BTreeSetNtNtB1e_6string6StringEEECskvdpLI7AOSZ_5insta
_RINvNtCsiL7B6CFZHyD_4core3ptr13drop_in_placeINtNtB4_4cell10UnsafeCellNtNtCshgx866xcH9W_5alloc6string6StringEECshpKpake7nJI_12regex_syntax
_RINvNtCsiL7B6CFZHyD_4core3ptr13drop_in_placeINtNtB4_4cell10UnsafeCellNtNtNtNtCs4USifnV5z1l_5tokio7runtime2io12scheduled_io7WaitersEEB1d_
_RINvNtCsiL7B6CFZHyD_4core3ptr13drop_in_placeINtNtB4_4cell3RefINtNtCshgx866xcH9W_5alloc3vec3VecINtNtCsix7ZBkNupea_12futures_task10future_obj14LocalFutureObjuEEEECs3H9oKPe6824_16futures_executor
_RINvNtCsiL7B6CFZHyD_4core3ptr13drop_in_placeINtNtB4_4cell3RefINtNtCshgx866xcH9W_5alloc3vec3VecNtNtNtNtCs8u8Bt1oxYji_14regex_automata3nfa8thompson10range_trie8NextIterEEEB1C_
_RINvNtCsiL7B6CFZHyD_4core3ptr13drop_in_placeINtNtB4_4cell3RefNtNtNtNtCshfzWP1bsRXe_14regex_automata3nfa8thompson3map13Utf8SuffixMapEEB15_
_RINvNtCsiL7B6CFZHyD_4core3ptr13drop_in_placeINtNtB4_4cell4CellbEECsjh4mrTFEWVx_12regex_syntax
_RINvNtCsiL7B6CFZHyD_4core3ptr13drop_in_placeINtNtB4_4cell6RefMutINtNtCshgx866xcH9W_5alloc3vec3VecNtNtCs5Ng0wM7PJ5I_12regex_syntax3ast11CaptureNameEEEB1B_
_RINvNtCsiL7B6CFZHyD_4core3ptr13drop_in_placeINtNtB4_4cell6RefMutINtNtCshgx866xcH9W_5alloc3vec3VecTjjEEEECsf48c72s39yb_14regex_automata
_RINvNtCsiL7B6CFZHyD_4core3ptr13drop_in_placeINtNtB4_4cell6RefMutNtNtNtNtCsfcZx8z6uiNH_14regex_automata3nfa8thompson7builder7BuilderEEB18_
_RINvNtCsiL7B6CFZHyD_4core3ptr13drop_in_placeINtNtB4_4cell7RefCellINtNtCshgx866xcH9W_5alloc3vec3VecNtNtCslWI3VPFq81_12regex_syntax3ast7CommentEEEB1C_
_RINvNtCsiL7B6CFZHyD_4core3ptr13drop_in_placeINtNtB4_4cell7RefCellNtNtCshgx866xcH9W_5alloc6string6StringEECslWI3VPFq81_12regex_syntax
_RINvNtCsiL7B6CFZHyD_4core3ptr13drop_in_placeINtNtB4_6marker11PhantomDataReEECs1DT2mKzNIQv_4jiff
_RINvNtCsiL7B6CFZHyD_4core3ptr13drop_in_placeINtNtB4_6option6OptionFKCPNtNtB4_3ffi6c_voidEuEECs2xgxDYohJXC_19core_foundation_sys
_RINvNtCsiL7B6CFZHyD_4core3ptr13drop_in_placeINtNtB4_6option6OptionFUKCNtCsi6pTmhHIU5M_9clang_sys8CXCursorENtB18_9CXCommentEEB18_
_RINvNtCsiL7B6CFZHyD_4core3ptr13drop_in_placeINtNtB4_6option6OptionFUKCONtCsi6pTmhHIU5M_9clang_sys8CXCursorEuEEB19_
_RINvNtCsiL7B6CFZHyD_4core3ptr13drop_in_placeINtNtB4_6option6OptionFUKCONtNtB4_3ffi6c_voidmEB16_EECsi6pTmhHIU5M_9clang_sys
_RINvNtCsiL7B6CFZHyD_4core3ptr13drop_in_placeINtNtB4_6option6OptionIBH_INtNtB4_6result6ResultNtNtNtNtCs5MsBAlmYmSD_4time18format_description5parse8strftime5TokenNtB1w_5ErrorEEEEB1A_
_RINvNtCsiL7B6CFZHyD_4core3ptr13drop_in_placeINtNtB4_6option6OptionINtNtB4_4cell7RefCellIBH_NtCs7ZKA17RSOQe_6quanta5ClockEEEEB1t_
_RINvNtCsiL7B6CFZHyD_4core3ptr13drop_in_placeINtNtB4_6option6OptionINtNtB4_6result6ResultNtNtCshfZdcOEXVna_18trust_dns_resolver6lookup13ReverseLookupNtNtB1s_5error12ResolveErrorEEEB1s_
_RINvNtCsiL7B6CFZHyD_4core3ptr13drop_in_placeINtNtB4_6option6OptionINtNtB4_6result6ResultuNtNtNtCs3NZLoJsOov_3std2io5error5ErrorEEECsaGnL1G5hXQS_9tiny_http
_RINvNtCsiL7B6CFZHyD_4core3ptr13drop_in_placeINtNtB4_6option6OptionINtNtCshgx866xcH9W_5alloc2rc2RcNtNtNtCsk9QERyUqk6O_5tokio4task5local7ContextEEEB1D_
_RINvNtCsiL7B6CFZHyD_4core3ptr13drop_in_placeINtNtB4_6option6OptionINtNtCshgx866xcH9W_5alloc3vec3VeccEEECs6c37mDEUb8k_12regex_syntax
_RINvNtCsiL7B6CFZHyD_4core3ptr13drop_in_placeINtNtB4_6option6OptionINtNtCshgx866xcH9W_5alloc4sync3ArcINtNtCsgBqAKDoMawG_15futures_channel4mpsc12BoundedInnerNtNtNtCsfuTXiacoSai_15trust_dns_proto4xfer14serial_message13SerialMessageEEEEB2z_
_RINvNtCsiL7B6CFZHyD_4core3ptr13drop_in_placeINtNtB4_6option6OptionINtNtCshgx866xcH9W_5alloc4sync3ArcNtNtNtCs3NZLoJsOov_3std6thread6scoped9ScopeDataEEECsaGnL1G5hXQS_9tiny_http
_RINvNtCsiL7B6CFZHyD_4core3ptr13drop_in_placeINtNtB4_6option6OptionINtNtCshgx866xcH9W_5alloc5boxed3BoxDNtNtCskTUq6jwe4oO_4http10extensions8AnyCloneNtNtB4_6marker4SendNtB2m_4SyncEL_EEEB1G_
_RINvNtCsiL7B6CFZHyD_4core3ptr13drop_in_placeINtNtB4_6option6OptionINtNtCshgx866xcH9W_5alloc5boxed3BoxNtNtCs1cxMKpSN2o4_3syn4item5FnArgEEEB1F_
_RINvNtCsiL7B6CFZHyD_4core3ptr13drop_in_placeINtNtB4_6option6OptionINtNtCshgx866xcH9W_5alloc5boxed3BoxSmEEECs1BUWCTf1MUy_9dialoguer
_RINvNtCsiL7B6CFZHyD_4core3ptr13drop_in_placeINtNtB4_6option6OptionINtNtNtCs3NZLoJsOov_3std4sync5mutex10MutexGuarduEEECs7adunahxyaw_9backtrace
_RINvNtCsiL7B6CFZHyD_4core3ptr13drop_in_placeINtNtB4_6option6OptionINtNtNtCshgx866xcH9W_5alloc11collections9vec_deque8VecDequeNtNtCslAj3ugQP8Tn_10async_task8runnable8RunnableEEECshok1JnvBm8X_8blocking
_RINvNtCsiL7B6CFZHyD_4core3ptr13drop_in_placeINtNtB4_6option6OptionINtNtNtNtCshgx866xcH9W_5alloc11collections5btree4node11SplitResultNtNtB1b_6string6StringB26_NtNtB15_6marker4LeafEEECsgwZHJb2rARN_5vcpkg
_RINvNtCsiL7B6CFZHyD_4core3ptr13drop_in_placeINtNtB4_6option6OptionNCNvXs_NtNtCs4USifnV5z1l_5tokio2io8blockingINtB19_8BlockingNtNtNtCs3NZLoJsOov_3std2io5stdio6StdoutENtNtB1b_11async_write10AsyncWrite10poll_write0EEB1d_
_RINvNtCsiL7B6CFZHyD_4core3ptr13drop_in_placeINtNtB4_6option6OptionNtCsiu5ki84x21f_3log14MaybeStaticStrEEB14_
_RINvNtCsiL7B6CFZHyD_4core3ptr13drop_in_placeINtNtB4_6option6OptionNtNtCs1cxMKpSN2o4_3syn5token4AutoEEB16_
_RINvNtCsiL7B6CFZHyD_4core3ptr13drop_in_placeINtNtB4_6option6OptionNtNtCs3NZLoJsOov_3std4path7PathBufEECs67gRWllCrln_7walkdir
_RINvNtCsiL7B6CFZHyD_4core3ptr13drop_in_placeINtNtB4_6option6OptionNtNtCs52Ma2mZ51Xc_12tracing_core10dispatcher7EnteredEEB16_
_RINvNtCsiL7B6CFZHyD_4core3ptr13drop_in_placeINtNtB4_6option6OptionNtNtCsWcctwD8VjY_16parking_lot_core11parking_lot10ThreadDataEEB16_
_RINvNtCsiL7B6CFZHyD_4core3ptr13drop_in_placeINtNtB4_6option6OptionNtNtCsfuTXiacoSai_15trust_dns_proto4xfer25BufDnsRequestStreamHandleEECshfZdcOEXVna_18trust_dns_resolver
_RINvNtCsiL7B6CFZHyD_4core3ptr13drop_in_placeINtNtB4_6option6OptionNtNtCshgx866xcH9W_5alloc6string6StringEECsgq42crzOkKS_14parse_zoneinfo
_RINvNtCsiL7B6CFZHyD_4core3ptr13drop_in_placeINtNtB4_6option6OptionNtNtCsjh4mrTFEWVx_12regex_syntax3hir3HirEEB16_
_RINvNtCsiL7B6CFZHyD_4core3ptr13drop_in_placeINtNtB4_6option6OptionNtNtNtB4_4task4wake5WakerEECs4USifnV5z1l_5tokio
_RINvNtCsiL7B6CFZHyD_4core3ptr13drop_in_placeINtNtB4_6option6OptionNtNtNtCs2GX3rYzX9NP_14regex_automata4meta8wrappers16ReverseDFAEngineEEB18_
_RINvNtCsiL7B6CFZHyD_4core3ptr13drop_in_placeINtNtB4_6option6OptionNtNtNtCs3NZLoJsOov_3std2io5stdio6StdoutEECslBVC6wF8Bgr_5tokio
_RINvNtCsiL7B6CFZHyD_4core3ptr13drop_in_placeINtNtB4_6option6OptionNtNtNtCs8fIdzaEorFr_4term8terminfo4parm5ParamEEB18_
_RINvNtCsiL7B6CFZHyD_4core3ptr13drop_in_placeINtNtB4_6option6OptionNtNtNtCsfcZx8z6uiNH_14regex_automata4util10primitives9PatternIDEEB18_
_RINvNtCsiL7B6CFZHyD_4core3ptr13drop_in_placeINtNtB4_6option6OptionNtNtNtCshgx866xcH9W_5alloc3ffi5c_str7CStringEECs4ZGcWhohb3Y_8fastrand
_RINvNtCsiL7B6CFZHyD_4core3ptr13drop_in_placeINtNtB4_6option6OptionNtNtNtCsklfhaN9lQFy_12aho_corasick4util9prefilter9PrefilterEEB18_
_RINvNtCsiL7B6CFZHyD_4core3ptr13drop_in_placeINtNtB4_6option6OptionNtNtNtNtCs3NZLoJsOov_3std2os5linux7process5PidFdEECskvdpLI7AOSZ_5insta
_RINvNtCsiL7B6CFZHyD_4core3ptr13drop_in_placeINtNtB4_6option6OptionNtNtNtNtCsfuTXiacoSai_15trust_dns_proto2rr6domain5label5LabelEEB1a_
_RINvNtCsiL7B6CFZHyD_4core3ptr13drop_in_placeINtNtB4_6option6OptionRNtNtCsa1XupUGiia1_9backtrace7capture9BacktraceEECs5MwEsFQjsaa_11error_chain
_RINvNtCsiL7B6CFZHyD_4core3ptr13drop_in_placeINtNtB4_6option6OptionTNtNtB4_3any6TypeIdINtNtCshgx866xcH9W_5alloc5boxed3BoxDNtNtCsczE7PKsO40l_4http10extensions8AnyCloneNtNtB4_6marker4SendNtB2F_4SyncEL_EEEEB1Z_
_RINvNtCsiL7B6CFZHyD_4core3ptr13drop_in_placeINtNtB4_6option6OptionTNtNtNtCs20txnxQ5U84_7bindgen2ir7context6ItemIdIBH_INtNtNtNtCshgx866xcH9W_5alloc11collections5btree3set8BTreeSetB13_EEEEEB19_
_RINvNtCsiL7B6CFZHyD_4core3ptr13drop_in_placeINtNtB4_6option6OptionbEECshfzWP1bsRXe_14regex_automata
_RINvNtCsiL7B6CFZHyD_4core3ptr13drop_in_placeINtNtB4_6option6OptionjEECsaWmuPV6hRxo_12sharded_slab
_RINvNtCsiL7B6CFZHyD_4core3ptr13drop_in_placeINtNtB4_6option6OptiontEECs8YSfaSHLRYP_4wasi
_RINvNtCsiL7B6CFZHyD_4core3ptr13drop_in_placeINtNtB4_6result6ResultIBH_INtNtNtCshgx866xcH9W_5alloc3vec9into_iter8IntoIterNtNtNtB4_3net11socket_addr10SocketAddrENtNtNtCs3NZLoJsOov_3std2io5error5ErrorENtNtNtNtCs4USifnV5z1l_5tokio7runtime4task5error9JoinErrorEEB3i_
_RINvNtCsiL7B6CFZHyD_4core3ptr13drop_in_placeINtNtB4_6result6ResultINtNtCshgx866xcH9W_5alloc4sync3ArcNtNtCs3sZDYscQcZY_10rayon_core8registry8RegistryENtB1E_20ThreadPoolBuildErrorEEB1E_
_RINvNtCsiL7B6CFZHyD_4core3ptr13drop_in_placeINtNtB4_6result6ResultNtCs6Rpbmm5Qxkn_7parking8UnparkerNtNtB4_7convert10InfallibleEECsiOHhwSMIjMZ_8async_io
_RINvNtCsiL7B6CFZHyD_4core3ptr13drop_in_placeINtNtB4_6result6ResultNtNtCs3NZLoJsOov_3std2fs4FileNtNtNtB16_2io5error5ErrorEECsaqWvr6p8cVX_6chrono
_RINvNtCsiL7B6CFZHyD_4core3ptr13drop_in_placeINtNtB4_6result6ResultNtNtCs6pPtoQt5gDw_10num_format7strings9DecStringNtNtB16_5error5ErrorEEB16_
_RINvNtCsiL7B6CFZHyD_4core3ptr13drop_in_placeINtNtB4_6result6ResultNtNtCshgx866xcH9W_5alloc6string6StringNtNtCsoKynq7mBqg_4idna5uts466ErrorsEECsfuTXiacoSai_15trust_dns_proto
_RINvNtCsiL7B6CFZHyD_4core3ptr13drop_in_placeINtNtB4_6result6ResultNtNtNtCsbPHw0ZMlxUx_2cc6target6parser21TargetInfoParserInnerNtB18_5ErrorEEB18_
_RINvNtCsiL7B6CFZHyD_4core3ptr13drop_in_placeINtNtB4_6result6ResultRNtNtNtCsl7d2h0H2YpO_3ron5value3raw8RawValueNtNtB19_5error5ErrorEEB19_
_RINvNtCsiL7B6CFZHyD_4core3ptr13drop_in_placeINtNtB4_6result6ResultTRShNtNtCsdvjIhOb5ndw_5cexpr4expr10EvalResultEINtNtCs7GlkVKgSNI8_3nom8internal3ErrINtNtB1R_5error5ErrorB13_EEEEB1a_
_RINvNtCsiL7B6CFZHyD_4core3ptr13drop_in_placeINtNtB4_6result6ResultjINtNtCs9A9JS0ryDJM_3nom8internal3ErrNtNtCs7GxYLVecAjK_7asn1_rs5error5ErrorEEEB1H_
_RINvNtCsiL7B6CFZHyD_4core3ptr13drop_in_placeINtNtB4_6result6ResultmNtNtCslWI3VPFq81_12regex_syntax3ast5ErrorEEB17_
_RINvNtCsiL7B6CFZHyD_4core3ptr13drop_in_placeINtNtB4_6result6ResultuINtNtCshgx866xcH9W_5alloc5boxed3BoxDNtNtB4_3any3AnyNtNtB4_6marker4SendEL_EEECsaWmuPV6hRxo_12sharded_slab
_RINvNtCsiL7B6CFZHyD_4core3ptr13drop_in_placeINtNtB4_6result6ResultuNtCseTSSeIbmzRG_4slog5ErrorEEB15_
_RINvNtCsiL7B6CFZHyD_4core3ptr13drop_in_placeINtNtB4_6result6ResultuNtNtNtCs3NZLoJsOov_3std2io5error5ErrorEECs6vjS8b6gTe9_15crossbeam_utils
_RINvNtCsiL7B6CFZHyD_4core3ptr13drop_in_placeINtNtB4_6result6ResultuNtNtNtCs3NZLoJsOov_3std2io5error5ErrorEECsfcdQbM8XNhc_7asn1_rs
_RINvNtCsiL7B6CFZHyD_4core3ptr13drop_in_placeINtNtCs19S8JT9Sa42_12prettyplease4iter9DelimitedINtNtCs1cxMKpSN2o4_3syn10punctuated4IterNtNtB1x_8generics14TypeParamBoundEEEBL_
_RINvNtCsiL7B6CFZHyD_4core3ptr13drop_in_placeINtNtCs1cxMKpSN2o4_3syn10punctuated11PrivateIterNtNtBL_2ty4TypeNtNtBL_5token5CommaEECs19S8JT9Sa42_12prettyplease
_RINvNtCsiL7B6CFZHyD_4core3ptr13drop_in_placeINtNtCs1dEy6nitbLR_7console5utils12StyledObjectjEECskvdpLI7AOSZ_5insta
_RINvNtCsiL7B6CFZHyD_4core3ptr13drop_in_placeINtNtCs3HjF0nTt0Ee_12futures_task10future_obj9FutureObjuEECshYAZvdTelZw_12futures_util
_RINvNtCsiL7B6CFZHyD_4core3ptr13drop_in_placeINtNtCs3NZLoJsOov_3std6thread9JoinInneruEECsbudUTgWQKts_10threadpool
_RINvNtCsiL7B6CFZHyD_4core3ptr13drop_in_placeINtNtCs5FZ8FOT2Wnz_5ascii12ascii_string14FromAsciiErrorNtNtCshgx866xcH9W_5alloc6string6StringEECsaGnL1G5hXQS_9tiny_http
_RINvNtCsiL7B6CFZHyD_4core3ptr13drop_in_placeINtNtCs7HzlohoAeks_12sharded_slab4page6SharedNtNtNtCs1XKReJ1SRGG_18tracing_subscriber8registry7sharded9DataInnerNtNtBL_3cfg13DefaultConfigEEB1v_
_RINvNtCsiL7B6CFZHyD_4core3ptr13drop_in_placeINtNtCs9A9JS0ryDJM_3nom8internal3ErrNtNtCs7GxYLVecAjK_7asn1_rs5error5ErrorEEB1k_
_RINvNtCsiL7B6CFZHyD_4core3ptr13drop_in_placeINtNtCsanAB7VmQ4Jy_12tracing_core5field12DisplayValueRtEECshfZdcOEXVna_18trust_dns_resolver
_RINvNtCsiL7B6CFZHyD_4core3ptr13drop_in_placeINtNtCsczsURVd1v6z_9addr2line4lazy8LazyCellINtNtB4_6result6ResultNtBL_5LinesNtNtCsh4ySdynPyhh_5gimli4read5ErrorEEECs7adunahxyaw_9backtrace
_RINvNtCsiL7B6CFZHyD_4core3ptr13drop_in_placeINtNtCseWnAVIMley_12prettyplease4iter9DelimitedINtNtCskMVLhTqFmsi_3syn10punctuated4IterNtNtB1w_3pat3PatEEEBL_
_RINvNtCsiL7B6CFZHyD_4core3ptr13drop_in_placeINtNtCsfjsGG03OZM8_7similar4text8TextDiffeEEBL_
_RINvNtCsiL7B6CFZHyD_4core3ptr13drop_in_placeINtNtCsgEQ1G4KV3rS_5quote9___private9RepInterpNtCsgMKgB7mnEUJ_11proc_macro211TokenStreamEECs20txnxQ5U84_7bindgen
_RINvNtCsiL7B6CFZHyD_4core3ptr13drop_in_placeINtNtCshK2h5RPyNs1_9hashbrown10scopeguard10ScopeGuardINtNtBL_3raw13RawTableInnerNtNtCshgx866xcH9W_5alloc5alloc6GlobalENCNvMs9_B1A_B1x_14prepare_resize0EECs2P2SgBKwLCl_7difflib
_RINvNtCsiL7B6CFZHyD_4core3ptr13drop_in_placeINtNtCshK2h5RPyNs1_9hashbrown10scopeguard10ScopeGuardQINtNtBL_3raw13RawTableInnerNtNtCshgx866xcH9W_5alloc5alloc6GlobalENCNvMs9_B1B_B1y_15rehash_in_place0EECs1XKReJ1SRGG_18tracing_subscriber
_RINvNtCsiL7B6CFZHyD_4core3ptr13drop_in_placeINtNtCshK2h5RPyNs1_9hashbrown10scopeguard10ScopeGuardQINtNtBL_3raw8RawTableTNtNtB4_3any6TypeIdINtNtCshgx866xcH9W_5alloc5boxed3BoxDNtB1W_3AnyNtNtB4_6marker4SendNtB2Y_4SyncEL_EEENCNvMs5_B1B_B1y_5clear0EECs9vszGGFNfUy_18tracing_subscriber
_RINvNtCsiL7B6CFZHyD_4core3ptr13drop_in_placeINtNtCshK2h5RPyNs1_9hashbrown3map7HashMapINtNtCshgx866xcH9W_5alloc3vec3VechENtNtCsfVvzz2Z4PLT_5cexpr4expr10EvalResultNtNtNtNtCs3NZLoJsOov_3std11collections4hash3map11RandomStateEEB1Y_
_RINvNtCsiL7B6CFZHyD_4core3ptr13drop_in_placeINtNtCshK2h5RPyNs1_9hashbrown3map7HashMapNtNtCshgx866xcH9W_5alloc6string6StringNtCskN1Yzg5nTsb_11procfs_core12KernelModuleNtNtNtNtCs3NZLoJsOov_3std11collections4hash3map11RandomStateEECs6JGgWY6YaLc_6procfs
_RINvNtCsiL7B6CFZHyD_4core3ptr13drop_in_placeINtNtCshK2h5RPyNs1_9hashbrown3map7HashMapNtNtNtNtCs2GX3rYzX9NP_14regex_automata4util11determinize5state5StateNtNtNtB1t_6hybrid2id11LazyStateIDNtNtNtNtCs3NZLoJsOov_3std11collections4hash3map11RandomStateEEB1t_
_RINvNtCsiL7B6CFZHyD_4core3ptr13drop_in_placeINtNtCshK2h5RPyNs1_9hashbrown3map8IntoIterNtNtB4_3any6TypeIdINtNtCshgx866xcH9W_5alloc5boxed3BoxDNtNtCskTUq6jwe4oO_4http10extensions8AnyCloneNtNtB4_6marker4SendNtB2Y_4SyncEL_EEEB2i_
_RINvNtCsiL7B6CFZHyD_4core3ptr13drop_in_placeINtNtCshK2h5RPyNs1_9hashbrown3raw8RawDrainTtNtNtNtCsfuTXiacoSai_15trust_dns_proto4xfer15dns_multiplexer13ActiveRequestEEECshfZdcOEXVna_18trust_dns_resolver
_RINvNtCsiL7B6CFZHyD_4core3ptr13drop_in_placeINtNtCshK2h5RPyNs1_9hashbrown3raw8RawTableTNtNtCshgx866xcH9W_5alloc6string6StringINtNtB1r_3vec3VecNtNtCseJ4fYN2mE0W_14parse_zoneinfo5table8RuleInfoEEEEB2k_
_RINvNtCsiL7B6CFZHyD_4core3ptr13drop_in_placeINtNtCshK2h5RPyNs1_9hashbrown3raw8RawTableTNtNtNtCsfcdQbM8XNhc_7asn1_rs10asn1_types3oid3OidINtNtCshgx866xcH9W_5alloc3vec3VecRB1n_EEEECsi1PQLdatSvq_11x509_parser
_RINvNtCsiL7B6CFZHyD_4core3ptr13drop_in_placeINtNtCshK2h5RPyNs1_9hashbrown3raw8RawTableTyyEEECs6JGgWY6YaLc_6procfs
_RINvNtCsiL7B6CFZHyD_4core3ptr13drop_in_placeINtNtCshgx866xcH9W_5alloc2rc5RcBoxINtNtBL_3vec3VecINtNtNtCs6x17v5tx4u3_4pest9iterators15queueable_token14QueueableTokenNtNtCs2mjHR4nEvfL_13semver_parser9generated4RuleEEEEB2F_
_RINvNtCsiL7B6CFZHyD_4core3ptr13drop_in_placeINtNtCshgx866xcH9W_5alloc3vec3VecIBH_NtNtCs302BLY9Avsm_12regex_syntax3ast4SpanEEEB1l_
_RINvNtCsiL7B6CFZHyD_4core3ptr13drop_in_placeINtNtCshgx866xcH9W_5alloc3vec3VecINtCsenjpi0lq38C_11color_quant4QuadlEEEB1g_
_RINvNtCsiL7B6CFZHyD_4core3ptr13drop_in_placeINtNtCshgx866xcH9W_5alloc3vec3VecINtNtB4_6result6ResultTNtNtCs3NZLoJsOov_3std4path7PathBufjENtCs8qPlBtFINoP_4glob9GlobErrorEEEB2c_
_RINvNtCsiL7B6CFZHyD_4core3ptr13drop_in_placeINtNtCshgx866xcH9W_5alloc3vec3VecINtNtCsaWj61pWL7fm_12nu_ansi_term7display17AnsiGenericStringeEEEB1i_
_RINvNtCsiL7B6CFZHyD_4core3ptr13drop_in_placeINtNtCshgx866xcH9W_5alloc3vec3VecINtNtNtCsgsIpKNYvolR_4http6header3map6BucketNtNtB1i_5value11HeaderValueEEEB1k_
_RINvNtCsiL7B6CFZHyD_4core3ptr13drop_in_placeINtNtCshgx866xcH9W_5alloc3vec3VecNtCs8qPlBtFINoP_4glob7PatternEEB1f_
_RINvNtCsiL7B6CFZHyD_4core3ptr13drop_in_placeINtNtCshgx866xcH9W_5alloc3vec3VecNtNtBL_6string6StringEECs6mVhnudWz0o_4term
_RINvNtCsiL7B6CFZHyD_4core3ptr13drop_in_placeINtNtCshgx866xcH9W_5alloc3vec3VecNtNtCs20txnxQ5U84_7bindgen5clang6CursorEEB1h_
_RINvNtCsiL7B6CFZHyD_4core3ptr13drop_in_placeINtNtCshgx866xcH9W_5alloc3vec3VecNtNtCs4rHto5i1Wx6_10regex_lite6pikevm13FollowEpsilonEEB1h_
_RINvNtCsiL7B6CFZHyD_4core3ptr13drop_in_placeINtNtCshgx866xcH9W_5alloc3vec3VecNtNtCs8NalhHLbrlY_11fancy_regex2vm4SaveEEB1h_
_RINvNtCsiL7B6CFZHyD_4core3ptr13drop_in_placeINtNtCshgx866xcH9W_5alloc3vec3VecNtNtCsgq42crzOkKS_14parse_zoneinfo9structure5ChildEEB1h_
_RINvNtCsiL7B6CFZHyD_4core3ptr13drop_in_placeINtNtCshgx866xcH9W_5alloc3vec3VecNtNtCsjoGxOb29wVB_10num_bigint7biguint7BigUintEEB1h_
_RINvNtCsiL7B6CFZHyD_4core3ptr13drop_in_placeINtNtCshgx866xcH9W_5alloc3vec3VecNtNtNtB4_3net11socket_addr10SocketAddrEECsjkF96kpyiNs_10hyper_util
_RINvNtCsiL7B6CFZHyD_4core3ptr13drop_in_placeINtNtCshgx866xcH9W_5alloc3vec3VecNtNtNtCs33TE7WC04bj_5gimli4read4line15FileEntryFormatEECsa1XupUGiia1_9backtrace
_RINvNtCsiL7B6CFZHyD_4core3ptr13drop_in_placeINtNtCshgx866xcH9W_5alloc3vec3VecNtNtNtCsc9MEfsw61gC_12aho_corasick3nfa13noncontiguous10TransitionEEB1j_
_RINvNtCsiL7B6CFZHyD_4core3ptr13drop_in_placeINtNtCshgx866xcH9W_5alloc3vec3VecNtNtNtCsjh4mrTFEWVx_12regex_syntax3hir7literal5StateEEB1j_
_RINvNtCsiL7B6CFZHyD_4core3ptr13drop_in_placeINtNtCshgx866xcH9W_5alloc3vec3VecNtNtNtNtCs2UqitWCaGEJ_14regex_automata3nfa8thompson3nfa10TransitionEEB1l_
_RINvNtCsiL7B6CFZHyD_4core3ptr13drop_in_placeINtNtCshgx866xcH9W_5alloc3vec3VecNtNtNtNtCs9uh8emyyfsF_14regex_automata3nfa8thompson3nfa5StateEEB1l_
_RINvNtCsiL7B6CFZHyD_4core3ptr13drop_in_placeINtNtCshgx866xcH9W_5alloc3vec3VecNtNtNtNtCsklfhaN9lQFy_12aho_corasick6packed5teddy7generic15SlimMaskBuilderEEB1l_
_RINvNtCsiL7B6CFZHyD_4core3ptr13drop_in_placeINtNtCshgx866xcH9W_5alloc3vec3VecRNtNtNtCs20txnxQ5U84_7bindgen2ir7context6ItemIdEEB1k_
_RINvNtCsiL7B6CFZHyD_4core3ptr13drop_in_placeINtNtCshgx866xcH9W_5alloc3vec3VecTNtNtBL_6string6StringNtNtNtCs20txnxQ5U84_7bindgen2ir7context6TypeIdEEEB1F_
_RINvNtCsiL7B6CFZHyD_4core3ptr13drop_in_placeINtNtCshgx866xcH9W_5alloc3vec3VecTNtNtNtCs20txnxQ5U84_7bindgen2ir7context6ItemIdNtNtB1k_5clang4TypeNtB20_6CursorINtNtB4_6option6OptionB1e_EEEEB1k_
_RINvNtCsiL7B6CFZHyD_4core3ptr13drop_in_placeINtNtCshgx866xcH9W_5alloc3vec3VecTRNtNtCshpKpake7nJI_12regex_syntax3ast3AstNtNtB1h_7visitor5FrameEEEB1j_
_RINvNtCsiL7B6CFZHyD_4core3ptr13drop_in_placeINtNtCshgx866xcH9W_5alloc3vec3VecTjjEEECs9uh8emyyfsF_14regex_automata
_RINvNtCsiL7B6CFZHyD_4core3ptr13drop_in_placeINtNtCshgx866xcH9W_5alloc3vec3VeccEECsfcdQbM8XNhc_7asn1_rs
_RINvNtCsiL7B6CFZHyD_4core3ptr13drop_in_placeINtNtCshgx866xcH9W_5alloc3vec3VechEECs5Ng0wM7PJ5I_12regex_syntax
_RINvNtCsiL7B6CFZHyD_4core3ptr13drop_in_placeINtNtCshgx866xcH9W_5alloc3vec3VechEECs9rvCcTOJGkv_9quick_xml
_RINvNtCsiL7B6CFZHyD_4core3ptr13drop_in_placeINtNtCshgx866xcH9W_5alloc3vec3VechEECsfwRoeKJwRNm_8textwrap
_RINvNtCsiL7B6CFZHyD_4core3ptr13drop_in_placeINtNtCshgx866xcH9W_5alloc3vec3VechEECskhY8URxp2l8_3nom
_RINvNtCsiL7B6CFZHyD_4core3ptr13drop_in_placeINtNtCshgx866xcH9W_5alloc3vec3VecmEECs60av68niOtt_11flatbuffers
_RINvNtCsiL7B6CFZHyD_4core3ptr13drop_in_placeINtNtCshgx866xcH9W_5alloc3vec3VecyEECslQXtP2qTVhA_13phf_generator
_RINvNtCsiL7B6CFZHyD_4core3ptr13drop_in_placeINtNtCshgx866xcH9W_5alloc4sync3ArcINtCsiOHhwSMIjMZ_8async_io5AsyncNtNtNtCs3NZLoJsOov_3std3net3tcp9TcpStreamEEECshFvNZPQTJhs_9async_std
_RINvNtCsiL7B6CFZHyD_4core3ptr13drop_in_placeINtNtCshgx866xcH9W_5alloc4sync3ArcINtNtNtCs3NZLoJsOov_3std4sync5mutex5MutexINtNtBL_3vec3VechEEEECshok1JnvBm8X_8blocking
_RINvNtCsiL7B6CFZHyD_4core3ptr13drop_in_placeINtNtCshgx866xcH9W_5alloc4sync3ArcINtNtNtNtCshYAZvdTelZw_12futures_util6stream17futures_unordered4task4TaskINtNtCs3HjF0nTt0Ee_12futures_task10future_obj14LocalFutureObjuEEEEB1n_
_RINvNtCsiL7B6CFZHyD_4core3ptr13drop_in_placeINtNtCshgx866xcH9W_5alloc4sync3ArcNtNtCs3NZLoJsOov_3std6thread5InnerEECsaGnL1G5hXQS_9tiny_http
_RINvNtCsiL7B6CFZHyD_4core3ptr13drop_in_placeINtNtCshgx866xcH9W_5alloc4sync3ArcNtNtNtB4_4sync6atomic10AtomicBoolEECslBVC6wF8Bgr_5tokio
_RINvNtCsiL7B6CFZHyD_4core3ptr13drop_in_placeINtNtCshgx866xcH9W_5alloc4sync3ArcNtNtNtCs9uh8emyyfsF_14regex_automata4meta5regex10RegexInfoIEEB1k_
_RINvNtCsiL7B6CFZHyD_4core3ptr13drop_in_placeINtNtCshgx866xcH9W_5alloc4sync3ArcNtNtNtNtCshV5KG6IN3gC_12futures_util6stream6stream17flatten_unordered12WrappedWakerEEB1m_
_RINvNtCsiL7B6CFZHyD_4core3ptr13drop_in_placeINtNtCshgx866xcH9W_5alloc4sync3ArceEECsbPHw0ZMlxUx_2cc
_RINvNtCsiL7B6CFZHyD_4core3ptr13drop_in_placeINtNtCshgx866xcH9W_5alloc4sync4WeakINtCs2b7CItEdzHb_14event_listener5InneruEEECsh5QXVqz78Je_10async_lock
_RINvNtCsiL7B6CFZHyD_4core3ptr13drop_in_placeINtNtCshgx866xcH9W_5alloc4sync4WeakINtNtNtCs3NZLoJsOov_3std4sync5mutex5MutexINtNtBL_3vec3VechEEEECsaGnL1G5hXQS_9tiny_http
_RINvNtCsiL7B6CFZHyD_4core3ptr13drop_in_placeINtNtCshgx866xcH9W_5alloc4sync4WeakINtNtNtNtCseA2dGjJQd8F_12futures_util6stream17futures_unordered18ready_to_run_queue15ReadyToRunQueueINtNtCsix7ZBkNupea_12futures_task10future_obj14LocalFutureObjuEEEEB1o_
_RINvNtCsiL7B6CFZHyD_4core3ptr13drop_in_placeINtNtCshgx866xcH9W_5alloc4sync4WeakNtNtCs3NZLoJsOov_3std4path7PathBufEECskvdpLI7AOSZ_5insta
_RINvNtCsiL7B6CFZHyD_4core3ptr13drop_in_placeINtNtCshgx866xcH9W_5alloc4sync4WeakNtNtCsiatNQm0sLz8_15crossbeam_epoch8internal6GlobalEEB1j_
_RINvNtCsiL7B6CFZHyD_4core3ptr13drop_in_placeINtNtCshgx866xcH9W_5alloc4sync4WeakNtNtNtCs4USifnV5z1l_5tokio4task5local6SharedEEB1l_
_RINvNtCsiL7B6CFZHyD_4core3ptr13drop_in_placeINtNtCshgx866xcH9W_5alloc4sync4WeakNtNtNtNtCs3NZLoJsOov_3std3sys4unix6os_str5SliceEECs9kjVTdy4ls6_6camino
_RINvNtCsiL7B6CFZHyD_4core3ptr13drop_in_placeINtNtCshgx866xcH9W_5alloc4sync4WeakShEECs9kjVTdy4ls6_6camino
_RINvNtCsiL7B6CFZHyD_4core3ptr13drop_in_placeINtNtCshgx866xcH9W_5alloc4sync8ArcInnerINtNtCsgBqAKDoMawG_15futures_channel4mpsc12BoundedInnerNtNtNtCsfuTXiacoSai_15trust_dns_proto4xfer14serial_message13SerialMessageEEEB2i_
_RINvNtCsiL7B6CFZHyD_4core3ptr13drop_in_placeINtNtCshgx866xcH9W_5alloc4sync8ArcInnerINtNtNtCshV5KG6IN3gC_12futures_util4lock5mutex5MutexINtNtB4_6option6OptionNtNtNtCshfZdcOEXVna_18trust_dns_resolver11name_server19connection_provider17GenericConnectionEEEEB2B_
_RINvNtCsiL7B6CFZHyD_4core3ptr13drop_in_placeINtNtCshgx866xcH9W_5alloc4sync8ArcInnerINtNtNtNtNtCs89pdyz7HZkL_12aho_corasick6packed5teddy7builder6x86_649SlimSSSE3Kj4_EEEB1u_
_RINvNtCsiL7B6CFZHyD_4core3ptr13drop_in_placeINtNtCshgx866xcH9W_5alloc4sync8ArcInnerNtCsly5B0ZczUx6_14async_executor5StateEEB1l_
_RINvNtCsiL7B6CFZHyD_4core3ptr13drop_in_placeINtNtCshgx866xcH9W_5alloc4sync8ArcInnerNtNtNtCs2UqitWCaGEJ_14regex_automata4meta8strategy15ReverseAnchoredEEB1p_
_RINvNtCsiL7B6CFZHyD_4core3ptr13drop_in_placeINtNtCshgx866xcH9W_5alloc4sync8ArcInnerNtNtNtCsklfhaN9lQFy_12aho_corasick4util9prefilter6MemmemEEB1p_
_RINvNtCsiL7B6CFZHyD_4core3ptr13drop_in_placeINtNtCshgx866xcH9W_5alloc5boxed3BoxAmj200_EECs2EzG6rTAlYY_8fdeflate
_RINvNtCsiL7B6CFZHyD_4core3ptr13drop_in_placeINtNtCshgx866xcH9W_5alloc5boxed3BoxDNtNtB4_3any3AnyEL_EECsl3mREbhXjXK_5hyper
_RINvNtCsiL7B6CFZHyD_4core3ptr13drop_in_placeINtNtCshgx866xcH9W_5alloc5boxed3BoxDNtNtB4_3any3AnyNtNtB4_6marker4SendEL_EECsdJUMyDMcOD8_6strsim
_RINvNtCsiL7B6CFZHyD_4core3ptr13drop_in_placeINtNtCshgx866xcH9W_5alloc5boxed3BoxDNtNtB4_5error5ErrorNtNtB4_6marker4SendNtB1B_4SyncEL_EECs2SA67IHUEk0_11num_threads
_RINvNtCsiL7B6CFZHyD_4core3ptr13drop_in_placeINtNtCshgx866xcH9W_5alloc5boxed3BoxDNtNtB4_5error5ErrorNtNtB4_6marker4SendNtB1B_4SyncEL_EECs8xYnUMf3W9W_6rustix
_RINvNtCsiL7B6CFZHyD_4core3ptr13drop_in_placeINtNtCshgx866xcH9W_5alloc5boxed3BoxDNtNtB4_5error5ErrorNtNtB4_6marker4SendNtB1B_4SyncEL_EECsemJ988WtEmh_7socket2
_RINvNtCsiL7B6CFZHyD_4core3ptr13drop_in_placeINtNtCshgx866xcH9W_5alloc5boxed3BoxDNtNtCs3NZLoJsOov_3std2io5WriteEL_EECs20txnxQ5U84_7bindgen
_RINvNtCsiL7B6CFZHyD_4core3ptr13drop_in_placeINtNtCshgx866xcH9W_5alloc5boxed3BoxINtNtCs1cxMKpSN2o4_3syn5drops6NoDropDINtNtB1k_10punctuated9IterTraitNtNtB1k_3pat8FieldPatEp4ItemRB2l_EL_EEECs19S8JT9Sa42_12prettyplease
_RINvNtCsiL7B6CFZHyD_4core3ptr13drop_in_placeINtNtCshgx866xcH9W_5alloc5boxed3BoxINtNtCskMVLhTqFmsi_3syn5drops6NoDropDINtNtB1k_10punctuated9IterTraitNtNtB1k_8generics14TypeParamBoundEp4ItemRB2l_EL_EEECseWnAVIMley_12prettyplease
_RINvNtCsiL7B6CFZHyD_4core3ptr13drop_in_placeINtNtCshgx866xcH9W_5alloc5boxed3BoxINtNtNtB4_3mem12maybe_uninit11MaybeUninitINtNtNtNtBL_11collections5btree4node12InternalNodejNtNtB1Z_7set_val9SetValZSTEEEECs8NalhHLbrlY_11fancy_regex
_RINvNtCsiL7B6CFZHyD_4core3ptr13drop_in_placeINtNtCshgx866xcH9W_5alloc5boxed3BoxINtNtNtB4_3mem12maybe_uninit11MaybeUninitINtNtNtNtBL_11collections5btree4node8LeafNodeTjjEmEEEECsh0qnI37SO6t_7similar
_RINvNtCsiL7B6CFZHyD_4core3ptr13drop_in_placeINtNtCshgx866xcH9W_5alloc5boxed3BoxINtNtNtBL_11collections11linked_list4NodeNtNtBL_6string6StringEEECsivq4NZsOFee_5rayon
_RINvNtCsiL7B6CFZHyD_4core3ptr13drop_in_placeINtNtCshgx866xcH9W_5alloc5boxed3BoxINtNtNtNtBL_11collections5btree4node12InternalNodeNtNtNtCsfcZx8z6uiNH_14regex_automata4util10primitives7StateIDNtNtNtB29_3dfa5accel5AccelEEEB29_
_RINvNtCsiL7B6CFZHyD_4core3ptr13drop_in_placeINtNtCshgx866xcH9W_5alloc5boxed3BoxINtNtNtNtBL_11collections5btree4node8LeafNodeNtNtNtCsfcZx8z6uiNH_14regex_automata4util10primitives7StateIDINtNtBL_3vec3VecNtB20_9PatternIDEEEEB24_
_RINvNtCsiL7B6CFZHyD_4core3ptr13drop_in_placeINtNtCshgx866xcH9W_5alloc5boxed3BoxINtNtNtNtCs3NZLoJsOov_3std4sync4mpmc7counter7CounterINtNtB1k_4list7ChannelINtNtNtNtB1o_2io8buffered9bufreader9BufReaderNtNtNtCsaGnL1G5hXQS_9tiny_http4util18refined_tcp_stream16RefinedTcpStreamEEEEEB3g_
_RINvNtCsiL7B6CFZHyD_4core3ptr13drop_in_placeINtNtCshgx866xcH9W_5alloc5boxed3BoxINtNtNtNtCsk9QERyUqk6O_5tokio7runtime4task4core4CellINtNtNtB1m_8blocking4task12BlockingTaskNCNvXsf_NtNtB1o_3net4addreNtNtB2Q_6sealed17ToSocketAddrsPriv15to_socket_addrs0ENtNtB2a_8schedule16BlockingScheduleEEEB1o_
_RINvNtCsiL7B6CFZHyD_4core3ptr13drop_in_placeINtNtCshgx866xcH9W_5alloc5boxed3BoxNCNvXs_NtNtCs4USifnV5z1l_5tokio2io8blockingINtB1m_8BlockingNtNtNtCs3NZLoJsOov_3std2io5stdio6StderrENtNtB1o_11async_write10AsyncWrite10poll_flush0EEB1q_
_RINvNtCsiL7B6CFZHyD_4core3ptr13drop_in_placeINtNtCshgx866xcH9W_5alloc5boxed3BoxNtNtCs23yxf7uxwGf_12regex_syntax3ast10RepetitionEEB1j_
_RINvNtCsiL7B6CFZHyD_4core3ptr13drop_in_placeINtNtCshgx866xcH9W_5alloc5boxed3BoxNtNtCs6c37mDEUb8k_12regex_syntax3ast10RepetitionEEB1j_
_RINvNtCsiL7B6CFZHyD_4core3ptr13drop_in_placeINtNtCshgx866xcH9W_5alloc5boxed3BoxNtNtCsjDu2qtAHalK_5bytes5bytes6SharedEEB1j_
_RINvNtCsiL7B6CFZHyD_4core3ptr13drop_in_placeINtNtCshgx866xcH9W_5alloc5boxed3BoxNtNtCslWI3VPFq81_12regex_syntax3ast5GroupEEB1j_
_RINvNtCsiL7B6CFZHyD_4core3ptr13drop_in_placeINtNtCshgx866xcH9W_5alloc5boxed3BoxNtNtNtCs3NZLoJsOov_3std2io5error6CustomEECs5POHUTZpJRh_3log
_RINvNtCsiL7B6CFZHyD_4core3ptr13drop_in_placeINtNtCshgx866xcH9W_5alloc5boxed3BoxNtNtNtCs3NZLoJsOov_3std2io5error6CustomEECsbcYJleOmJGE_4utf8
_RINvNtCsiL7B6CFZHyD_4core3ptr13drop_in_placeINtNtCshgx866xcH9W_5alloc5boxed3BoxNtNtNtCs3NZLoJsOov_3std2io5error6CustomEECsjbFYZL0GDcx_8dirs_sys
_RINvNtCsiL7B6CFZHyD_4core3ptr13drop_in_placeINtNtCshgx866xcH9W_5alloc5boxed3BoxNtNtNtCslBVC6wF8Bgr_5tokio4time5sleep5SleepEEB1l_
_RINvNtCsiL7B6CFZHyD_4core3ptr13drop_in_placeINtNtCshgx866xcH9W_5alloc5boxed3BoxSINtNtNtB4_3mem12maybe_uninit11MaybeUninithEEECscnXTRSNDF9a_7console
_RINvNtCsiL7B6CFZHyD_4core3ptr13drop_in_placeINtNtCshgx866xcH9W_5alloc5boxed3BoxSNtNtCs23yxf7uxwGf_12regex_syntax3ast8ClassSetEEB1k_
_RINvNtCsiL7B6CFZHyD_4core3ptr13drop_in_placeINtNtCshgx866xcH9W_5alloc5boxed3BoxSNtNtCsjh4mrTFEWVx_12regex_syntax3hir17ClassUnicodeRangeEEB1k_
_RINvNtCsiL7B6CFZHyD_4core3ptr13drop_in_placeINtNtCshgx866xcH9W_5alloc5boxed3BoxSNtNtNtNtCs5MsBAlmYmSD_4time18format_description5parse3ast4ItemEEB1o_
_RINvNtCsiL7B6CFZHyD_4core3ptr13drop_in_placeINtNtCshgx866xcH9W_5alloc5boxed3BoxShEECs2mQEr5hutya_15crossbeam_utils
_RINvNtCsiL7B6CFZHyD_4core3ptr13drop_in_placeINtNtCshgx866xcH9W_5alloc5boxed3BoxShEECsiLl5zM8BuOP_9once_cell
_RINvNtCsiL7B6CFZHyD_4core3ptr13drop_in_placeINtNtCshgx866xcH9W_5alloc5boxed3BoxeEECs23yxf7uxwGf_12regex_syntax
_RINvNtCsiL7B6CFZHyD_4core3ptr13drop_in_placeINtNtCshgx866xcH9W_5alloc6borrow3CowShEECsi34XVEUWc49_15form_urlencoded
_RINvNtCsiL7B6CFZHyD_4core3ptr13drop_in_placeINtNtCshgx866xcH9W_5alloc7raw_vec6RawVecINtCs5YkXyS5HlmN_9addr2line7ResUnitINtNtNtCs33TE7WC04bj_5gimli4read12endian_slice11EndianSliceNtNtB20_9endianity12LittleEndianEEEECsa1XupUGiia1_9backtrace
_RINvNtCsiL7B6CFZHyD_4core3ptr13drop_in_placeINtNtCshgx866xcH9W_5alloc7raw_vec6RawVecINtNtB4_6option6OptionNtNtNtCs9uh8emyyfsF_14regex_automata4util10primitives11NonMaxUsizeEEEB1M_
_RINvNtCsiL7B6CFZHyD_4core3ptr13drop_in_placeINtNtCshgx866xcH9W_5alloc7raw_vec6RawVecINtNtBL_3vec3VechEEECs8YSfaSHLRYP_4wasi
_RINvNtCsiL7B6CFZHyD_4core3ptr13drop_in_placeINtNtCshgx866xcH9W_5alloc7raw_vec6RawVecINtNtCs60av68niOtt_11flatbuffers10primitives9WIPOffsetReEEEB1p_
_RINvNtCsiL7B6CFZHyD_4core3ptr13drop_in_placeINtNtCshgx866xcH9W_5alloc7raw_vec6RawVecINtNtNtCs91GDN4qvfiu_7similar4text6inline12InlineChangeeEEECskvdpLI7AOSZ_5insta
_RINvNtCsiL7B6CFZHyD_4core3ptr13drop_in_placeINtNtCshgx866xcH9W_5alloc7raw_vec6RawVecNtCs4rr8EeQBcJU_10phf_shared6HashesEECslQXtP2qTVhA_13phf_generator
_RINvNtCsiL7B6CFZHyD_4core3ptr13drop_in_placeINtNtCshgx866xcH9W_5alloc7raw_vec6RawVecNtCskN1Yzg5nTsb_11procfs_core7CpuTimeEEB1m_
_RINvNtCsiL7B6CFZHyD_4core3ptr13drop_in_placeINtNtCshgx866xcH9W_5alloc7raw_vec6RawVecNtNtCs1cxMKpSN2o4_3syn4attr9AttributeEEB1o_
_RINvNtCsiL7B6CFZHyD_4core3ptr13drop_in_placeINtNtCshgx866xcH9W_5alloc7raw_vec6RawVecNtNtCs302BLY9Avsm_12regex_syntax3hir3HirEEB1o_
_RINvNtCsiL7B6CFZHyD_4core3ptr13drop_in_placeINtNtCshgx866xcH9W_5alloc7raw_vec6RawVecNtNtCs6c37mDEUb8k_12regex_syntax3hir3HirEEB1o_
_RINvNtCsiL7B6CFZHyD_4core3ptr13drop_in_placeINtNtCshgx866xcH9W_5alloc7raw_vec6RawVecNtNtCseWnAVIMley_12prettyplease9algorithm10PrintFrameEEB1o_
_RINvNtCsiL7B6CFZHyD_4core3ptr13drop_in_placeINtNtCshgx866xcH9W_5alloc7raw_vec6RawVecNtNtCsiTWm3mqjjvj_11resolv_conf2ip8ScopedIpEEB1o_
_RINvNtCsiL7B6CFZHyD_4core3ptr13drop_in_placeINtNtCshgx866xcH9W_5alloc7raw_vec6RawVecNtNtCskvdpLI7AOSZ_5insta7content7ContentEEB1o_
_RINvNtCsiL7B6CFZHyD_4core3ptr13drop_in_placeINtNtCshgx866xcH9W_5alloc7raw_vec6RawVecNtNtNtCs20txnxQ5U84_7bindgen2ir7context10FunctionIdEEB1q_
_RINvNtCsiL7B6CFZHyD_4core3ptr13drop_in_placeINtNtCshgx866xcH9W_5alloc7raw_vec6RawVecNtNtNtCs6mVhnudWz0o_4term8terminfo4parm5ParamEEB1q_
_RINvNtCsiL7B6CFZHyD_4core3ptr13drop_in_placeINtNtCshgx866xcH9W_5alloc7raw_vec6RawVecNtNtNtCsfuTXiacoSai_15trust_dns_proto2rr11record_type10RecordTypeEEB1q_
_RINvNtCsiL7B6CFZHyD_4core3ptr13drop_in_placeINtNtCshgx866xcH9W_5alloc7raw_vec6RawVecNtNtNtNtCs2GX3rYzX9NP_14regex_automata3nfa8thompson10range_trie10TransitionEEB1s_
_RINvNtCsiL7B6CFZHyD_4core3ptr13drop_in_placeINtNtCshgx866xcH9W_5alloc7raw_vec6RawVecNtNtNtNtCs8u8Bt1oxYji_14regex_automata3nfa8thompson10range_trie10TransitionEEB1s_
_RINvNtCsiL7B6CFZHyD_4core3ptr13drop_in_placeINtNtCshgx866xcH9W_5alloc7raw_vec6RawVecNtNtNtNtCsfcZx8z6uiNH_14regex_automata3nfa8thompson3nfa5StateEEB1s_
_RINvNtCsiL7B6CFZHyD_4core3ptr13drop_in_placeINtNtCshgx866xcH9W_5alloc7raw_vec6RawVecPaEECsdFgnYT9J9Ql_15find_msvc_tools
_RINvNtCsiL7B6CFZHyD_4core3ptr13drop_in_placeINtNtCshgx866xcH9W_5alloc7raw_vec6RawVecReEECs8lqQn1C9fxI_3url
_RINvNtCsiL7B6CFZHyD_4core3ptr13drop_in_placeINtNtCshgx866xcH9W_5alloc7raw_vec6RawVecTNtNtCs1cxMKpSN2o4_3syn8generics14TypeParamBoundNtNtB1p_5token4PlusEEEB1p_
_RINvNtCsiL7B6CFZHyD_4core3ptr13drop_in_placeINtNtCshgx866xcH9W_5alloc7raw_vec6RawVecTNtNtNtCs8lFZGbCoHRU_5regex5regex6string5RegexReEEECsc7lFno5nv1N_9inflector
_RINvNtCsiL7B6CFZHyD_4core3ptr13drop_in_placeINtNtCshgx866xcH9W_5alloc7raw_vec6RawVecTccEEECs9zsKVhFsf47_7globset
_RINvNtCsiL7B6CFZHyD_4core3ptr13drop_in_placeINtNtCshgx866xcH9W_5alloc7raw_vec6RawVecTxNtNtCseJ4fYN2mE0W_14parse_zoneinfo11transitions13FixedTimespanEEEB1q_
_RINvNtCsiL7B6CFZHyD_4core3ptr13drop_in_placeINtNtCshgx866xcH9W_5alloc7raw_vec6RawVechEECs25ZhrkksEen_5bytes
_RINvNtCsiL7B6CFZHyD_4core3ptr13drop_in_placeINtNtCshgx866xcH9W_5alloc7raw_vec6RawVechEECs73Npv0AbOVv_15core_foundation
_RINvNtCsiL7B6CFZHyD_4core3ptr13drop_in_placeINtNtCshgx866xcH9W_5alloc7raw_vec6RawVechEECsc11cvGCy7gV_12erased_serde
_RINvNtCsiL7B6CFZHyD_4core3ptr13drop_in_placeINtNtCshgx866xcH9W_5alloc7raw_vec6RawVechEECsh0qnI37SO6t_7similar
_RINvNtCsiL7B6CFZHyD_4core3ptr13drop_in_placeINtNtCshgx866xcH9W_5alloc7raw_vec6RawVeciEECskvdpLI7AOSZ_5insta
_RINvNtCsiL7B6CFZHyD_4core3ptr13drop_in_placeINtNtCshgx866xcH9W_5alloc7raw_vec6RawVecmEECsfjsGG03OZM8_7similar
_RINvNtCsiL7B6CFZHyD_4core3ptr13drop_in_placeINtNtCsiCmXw7sqf3N_10proc_macro6bridge9TokenTreeNtNtBJ_6client11TokenStreamNtB1u_4SpanNtNtBJ_6symbol6SymbolEECs7WdwxyOCujz_5litrs
_RINvNtCsiL7B6CFZHyD_4core3ptr13drop_in_placeINtNtCsisbKcmZPvGV_4libc5types7PaddingyEEBL_
_RINvNtCsiL7B6CFZHyD_4core3ptr13drop_in_placeINtNtCskMVLhTqFmsi_3syn10punctuated10PunctuatedNtNtBL_2ty9BareFnArgNtNtBL_5token5CommaEEBL_
_RINvNtCsiL7B6CFZHyD_4core3ptr13drop_in_placeINtNtCskMVLhTqFmsi_3syn10punctuated4IterNtNtBL_8generics13CapturedParamEECseWnAVIMley_12prettyplease
_RINvNtCsiL7B6CFZHyD_4core3ptr13drop_in_placeINtNtNtB4_3ops12control_flow11ControlFlowINtNtCshgx866xcH9W_5alloc3vec3VecNtNtCsfjsGG03OZM8_7similar5types6DiffOpEEEB1W_
_RINvNtCsiL7B6CFZHyD_4core3ptr13drop_in_placeINtNtNtB4_3ops12control_flow11ControlFlowTNtNtNtCsfuTXiacoSai_15trust_dns_proto2rr8resource6RecordmEEECshfZdcOEXVna_18trust_dns_resolver
_RINvNtCsiL7B6CFZHyD_4core3ptr13drop_in_placeINtNtNtB4_4task4poll4PollINtNtB4_6option6OptionNtNtNtCsfuTXiacoSai_15trust_dns_proto4xfer14serial_message13SerialMessageEEEB1x_
_RINvNtCsiL7B6CFZHyD_4core3ptr13drop_in_placeINtNtNtB4_5array4iter8IntoIterINtNtB4_6option6OptionReEKj1_EECs2GX3rYzX9NP_14regex_automata
_RINvNtCsiL7B6CFZHyD_4core3ptr13drop_in_placeINtNtNtB4_5array4iter8IntoIterRShKj5_EECs4YuQlQH4i4p_11pem_rfc7468
_RINvNtCsiL7B6CFZHyD_4core3ptr13drop_in_placeINtNtNtB4_5slice4iter4IterNtNtNtNtCs2GX3rYzX9NP_14regex_automata3nfa8thompson12literal_trie10TransitionEEB1e_
_RINvNtCsiL7B6CFZHyD_4core3ptr13drop_in_placeINtNtNtB4_5slice4sort13InsertionHoleNtNtCs302BLY9Avsm_12regex_syntax3hir15ClassBytesRangeEEB1k_
_RINvNtCsiL7B6CFZHyD_4core3ptr13drop_in_placeINtNtNtB4_5slice4sort13InsertionHoleTNtNtCshgx866xcH9W_5alloc6string6StringB1h_EEECskt8TpxtZnof_4clap
_RINvNtCsiL7B6CFZHyD_4core3ptr13drop_in_placeINtNtNtCs2GX3rYzX9NP_14regex_automata3dfa6sparse3DFAINtNtCshgx866xcH9W_5alloc3vec3VechEEEBN_
_RINvNtCsiL7B6CFZHyD_4core3ptr13drop_in_placeINtNtNtCs3NZLoJsOov_3std2io5error9ErrorDataINtNtCshgx866xcH9W_5alloc5boxed3BoxNtBJ_6CustomEEECs2b7CItEdzHb_14event_listener
_RINvNtCsiL7B6CFZHyD_4core3ptr13drop_in_placeINtNtNtCs3NZLoJsOov_3std2io5error9ErrorDataINtNtCshgx866xcH9W_5alloc5boxed3BoxNtBJ_6CustomEEECs9aEvtLHT9Ss_6rustix
_RINvNtCsiL7B6CFZHyD_4core3ptr13drop_in_placeINtNtNtCs3NZLoJsOov_3std2io5error9ErrorDataINtNtCshgx866xcH9W_5alloc5boxed3BoxNtBJ_6CustomEEECsfVvzz2Z4PLT_5cexpr
_RINvNtCsiL7B6CFZHyD_4core3ptr13drop_in_placeINtNtNtCs3NZLoJsOov_3std4sync4mpmc8ReceiverINtNtCshgx866xcH9W_5alloc5boxed3BoxDNtCsbudUTgWQKts_10threadpool5FnBoxNtNtB4_6marker4SendEL_EEEB1Z_
_RINvNtCsiL7B6CFZHyD_4core3ptr13drop_in_placeINtNtNtCs3NZLoJsOov_3std4sync5mutex10MutexGuardINtNtCshgx866xcH9W_5alloc3vec3VecINtNtB1w_5boxed3BoxNtNtCs4rHto5i1Wx6_10regex_lite6pikevm5CacheEEEEB2l_
_RINvNtCsiL7B6CFZHyD_4core3ptr13drop_in_placeINtNtNtCs3NZLoJsOov_3std4sync5mutex10MutexGuardNtCsk7teTI8u4vg_14event_listener4ListEEB1t_
_RINvNtCsiL7B6CFZHyD_4core3ptr13drop_in_placeINtNtNtCs3NZLoJsOov_3std4sync5mutex10MutexGuardNtNtNtNtCslBVC6wF8Bgr_5tokio7runtime2io12scheduled_io7WaitersEEB1z_
_RINvNtCsiL7B6CFZHyD_4core3ptr13drop_in_placeINtNtNtCs3NZLoJsOov_3std4sync5mutex5MutexINtNtCshgx866xcH9W_5alloc3vec3VecINtNtB1q_5boxed3BoxNtNtNtCs8u8Bt1oxYji_14regex_automata4util6search10PatternSetEEEECs9zsKVhFsf47_7globset
_RINvNtCsiL7B6CFZHyD_4core3ptr13drop_in_placeINtNtNtCs3NZLoJsOov_3std4sync5mutex5MutexNtNtCs28jDdmsL6FU_12thread_local9thread_id15ThreadIdManagerEEB1p_
_RINvNtCsiL7B6CFZHyD_4core3ptr13drop_in_placeINtNtNtCs3NZLoJsOov_3std4sync6poison11PoisonErrorINtNtBL_5mutex10MutexGuardINtNtB4_6option6OptionINtCscc5jyp3YBiU_4slab4SlabIB1U_NtNtNtB4_4task4wake5WakerEEEEEECs4nTNh3iP9td_12futures_util
_RINvNtCsiL7B6CFZHyD_4core3ptr13drop_in_placeINtNtNtCs3NZLoJsOov_3std4sync6poison11PoisonErrorINtNtBL_5mutex10MutexGuardNtNtCsdf2YM7T1JXi_12thread_local9thread_id15ThreadIdManagerEEEB1X_
_RINvNtCsiL7B6CFZHyD_4core3ptr13drop_in_placeINtNtNtCs3NZLoJsOov_3std4sync6poison11PoisonErrorINtNtBL_5mutex10MutexGuarduEEECs7adunahxyaw_9backtrace
_RINvNtCsiL7B6CFZHyD_4core3ptr13drop_in_placeINtNtNtCs3NZLoJsOov_3std4sync6poison11PoisonErrorINtNtBL_6rwlock16RwLockWriteGuardINtNtNtNtBN_11collections4hash3map7HashMapNtNtCsC7QMccVbR7_12tracing_core8callsite10IdentifierINtNtNtNtCs9vszGGFNfUy_18tracing_subscriber6filter3env9directive8MatchSetNtNtB3B_5field13CallsiteMatchEEEEEB3F_
_RINvNtCsiL7B6CFZHyD_4core3ptr13drop_in_placeINtNtNtCs3NZLoJsOov_3std4sync6rwlock15RwLockReadGuardINtNtNtNtBN_11collections4hash3map7HashMapINtNtCshgx866xcH9W_5alloc5boxed3BoxSIB2e_NtNtNtBN_3ffi6os_str5OsStrEENtNtCsbPHw0ZMlxUx_2cc4tool10ToolFamilyEEEB3o_
_RINvNtCsiL7B6CFZHyD_4core3ptr13drop_in_placeINtNtNtCs3NZLoJsOov_3std4sync6rwlock6RwLockINtNtCshgx866xcH9W_5alloc3vec3VecNtNtCs52Ma2mZ51Xc_12tracing_core10dispatcher9RegistrarEEEB1Y_
_RINvNtCsiL7B6CFZHyD_4core3ptr13drop_in_placeINtNtNtCs4USifnV5z1l_5tokio2io12poll_evented11PollEventedNtNtNtNtCs1kcHt6UhOcT_3mio3net3uds8listener12UnixListenerEEBN_
_RINvNtCsiL7B6CFZHyD_4core3ptr13drop_in_placeINtNtNtCs6c37mDEUb8k_12regex_syntax3hir8interval11IntervalSetNtBL_17ClassUnicodeRangeEEBN_
_RINvNtCsiL7B6CFZHyD_4core3ptr13drop_in_placeINtNtNtCs9uh8emyyfsF_14regex_automata4meta8strategy3PreNtNtNtNtBN_4util9prefilter6memchr7Memchr3EEBN_
_RINvNtCsiL7B6CFZHyD_4core3ptr13drop_in_placeINtNtNtCseZiuHO0vNIu_3scc10hash_table6bucket6ReaderNtNtCshgx866xcH9W_5alloc6string6StringNtNtCs6MfJgXaOnUR_11serial_test9code_lock20UniqueReentrantMutexuKc53_EEB2b_
_RINvNtCsiL7B6CFZHyD_4core3ptr13drop_in_placeINtNtNtCsgkOA8Rcyn8K_7ndarray9dimension12dynindeximpl9IxDynReprjEEBN_
_RINvNtCsiL7B6CFZHyD_4core3ptr13drop_in_placeINtNtNtCshfZdcOEXVna_18trust_dns_resolver11name_server11name_server10NameServerINtNtBL_19connection_provider16GenericConnectorNtNtB20_13tokio_runtime20TokioRuntimeProviderEEEBN_
_RINvNtCsiL7B6CFZHyD_4core3ptr13drop_in_placeINtNtNtCshgx866xcH9W_5alloc11collections9vec_deque8VecDequejEECseWnAVIMley_12prettyplease
_RINvNtCsiL7B6CFZHyD_4core3ptr13drop_in_placeINtNtNtCshgx866xcH9W_5alloc3vec13in_place_drop17InPlaceDstBufDropNtNtCs23yxf7uxwGf_12regex_syntax3hir15ClassBytesRangeEEB1N_
_RINvNtCsiL7B6CFZHyD_4core3ptr13drop_in_placeINtNtNtCshgx866xcH9W_5alloc3vec5drain5DrainNtNtCs302BLY9Avsm_12regex_syntax3ast3AstEEB1r_
_RINvNtCsiL7B6CFZHyD_4core3ptr13drop_in_placeINtNtNtCshgx866xcH9W_5alloc3vec5drain5DrainNtNtNtNtCs8u8Bt1oxYji_14regex_automata3nfa8thompson10range_trie5StateEEB1v_
_RINvNtCsiL7B6CFZHyD_4core3ptr13drop_in_placeINtNtNtCshgx866xcH9W_5alloc3vec9into_iter8IntoIterNtCs8fSZOX0qloS_11proc_macro29TokenTreeEEB1w_
_RINvNtCsiL7B6CFZHyD_4core3ptr13drop_in_placeINtNtNtCshgx866xcH9W_5alloc3vec9into_iter8IntoIterNtNtCsgud9pmtAhJI_5ipnet5ipnet7Ipv4NetEEB1y_
_RINvNtCsiL7B6CFZHyD_4core3ptr13drop_in_placeINtNtNtCshgx866xcH9W_5alloc3vec9into_iter8IntoIterRNtNtCs3NZLoJsOov_3std4path4PathEECs73ztbjO6fBx_6ignore
_RINvNtCsiL7B6CFZHyD_4core3ptr13drop_in_placeINtNtNtCshgx866xcH9W_5alloc3vec9into_iter8IntoItercEECs6skbDnPfptg_10der_parser
_RINvNtCsiL7B6CFZHyD_4core3ptr13drop_in_placeINtNtNtCsk9QERyUqk6O_5tokio4sync7oneshot8ReceiveruEEBN_
_RINvNtCsiL7B6CFZHyD_4core3ptr13drop_in_placeINtNtNtCslBVC6wF8Bgr_5tokio2io8blocking5StateNtNtNtCs3NZLoJsOov_3std2io5stdio6StderrEEBN_
_RINvNtCsiL7B6CFZHyD_4core3ptr13drop_in_placeINtNtNtNtB4_4iter8adapters10filter_map9FilterMapINtNtCs3NZLoJsOov_3std2io5LinesINtNtNtB1v_8buffered9bufreader9BufReaderNtNtB1x_2fs4FileEENCINvMs0_NtCsaD6S3I1VQmE_8num_cpus5linuxNtB32_6Subsys8load_cpuReE0EEB34_
_RINvNtCsiL7B6CFZHyD_4core3ptr13drop_in_placeINtNtNtNtB4_4iter8adapters3map3MapINtNtCs1cxMKpSN2o4_3syn10punctuated4IterNtNtB1j_8generics12GenericParamENCINvNvNtNtNtBN_6traits8iterator8Iterator10max_by_key3keyRB1S_NtNvMNtCs19S8JT9Sa42_12prettyplease8genericsNtNtB3v_9algorithm7Printer8generics5GroupNCB3q_0E0EEB3v_
_RINvNtCsiL7B6CFZHyD_4core3ptr13drop_in_placeINtNtNtNtB4_4iter8adapters3map3MapINtNtNtB4_5array5drain5DrainNtNtNtNtCsklfhaN9lQFy_12aho_corasick6packed5teddy7generic15SlimMaskBuilderENCINvMNtNtB4_3ops9try_traitINtB2Z_17NeverShortCircuitINtB1I_4MaskNtNtNtB4_9core_arch3x867___m256iEE10wrap_mut_1B1G_NCINvMsd_B1I_B1G_10from_teddyKj3_B3W_E0E0EEB1O_
_RINvNtCsiL7B6CFZHyD_4core3ptr13drop_in_placeINtNtNtNtB4_4iter8adapters3map3MapINtNtNtCshgx866xcH9W_5alloc3vec9into_iter8IntoIterReENCNvNtCs6MfJgXaOnUR_11serial_test16serial_code_lock17local_serial_core0EEB2b_
_RINvNtCsiL7B6CFZHyD_4core3ptr13drop_in_placeINtNtNtNtB4_4iter8adapters3zip3ZipINtNtNtCshgx866xcH9W_5alloc3vec9into_iter8IntoIterThhhhEEINtNtNtB4_3ops5range14RangeInclusivehEEECsb6BebbR1nVn_3gif
_RINvNtCsiL7B6CFZHyD_4core3ptr13drop_in_placeINtNtNtNtB4_4iter8adapters6filter6FilterINtNtNtNtCs3NZLoJsOov_3std11collections4hash3map8IntoIterRhINtNtCshgx866xcH9W_5alloc3vec3VecjEENCNvMs1_NtCs2P2SgBKwLCl_7difflib15sequencematcherINtB2Z_15SequenceMatcherhE16chain_second_seqs_0EEB31_
_RINvNtCsiL7B6CFZHyD_4core3ptr13drop_in_placeINtNtNtNtB4_4iter8adapters8peekable8PeekableINtNtCs1cxMKpSN2o4_3syn10punctuated4IterNtNtB1t_2ty4TypeEEECs19S8JT9Sa42_12prettyplease
_RINvNtCsiL7B6CFZHyD_4core3ptr13drop_in_placeINtNtNtNtB4_4iter8adapters9enumerate9EnumerateINtNtNtB4_5array4iter8IntoIterAINtNtB4_6option6OptionReEj1_KB2k_EEECshfzWP1bsRXe_14regex_automata
_RINvNtCsiL7B6CFZHyD_4core3ptr13drop_in_placeINtNtNtNtCs27bTk5Qbyxw_6memchr4arch7generic6memchr3TwoNtNtNtB4_9core_arch3x867___m128iEEBP_
_RINvNtCsiL7B6CFZHyD_4core3ptr13drop_in_placeINtNtNtNtCs3NZLoJsOov_3std11collections4hash3map7HashMapINtNtCshgx866xcH9W_5alloc4sync3ArceENtNtNtCs2UqitWCaGEJ_14regex_automata4util10primitives10SmallIndexEEB2g_
_RINvNtCsiL7B6CFZHyD_4core3ptr13drop_in_placeINtNtNtNtCs3NZLoJsOov_3std11collections4hash3map7HashMapNtNtCshgx866xcH9W_5alloc6string6StringNtNtBP_4path7PathBufEECs3Fu94oynedE_13dirs_sys_next
_RINvNtCsiL7B6CFZHyD_4core3ptr13drop_in_placeINtNtNtNtCs3NZLoJsOov_3std11collections4hash3map7HashMapRReINtNtB4_6option6OptionjEEECsfjsGG03OZM8_7similar
_RINvNtCsiL7B6CFZHyD_4core3ptr13drop_in_placeINtNtNtNtCs3NZLoJsOov_3std11collections4hash3map8IntoIterRcINtNtCshgx866xcH9W_5alloc3vec3VecjEEECs2P2SgBKwLCl_7difflib
_RINvNtCsiL7B6CFZHyD_4core3ptr13drop_in_placeINtNtNtNtCs3NZLoJsOov_3std4sync4mpmc4list7ChannelNtNtCsaGnL1G5hXQS_9tiny_http6common6HeaderEEB1x_
_RINvNtCsiL7B6CFZHyD_4core3ptr13drop_in_placeINtNtNtNtCs3NZLoJsOov_3std4sync4mpmc7counter7CounterINtNtBL_5array7ChannelINtNtNtNtBP_2io8buffered9bufreader9BufReaderNtNtNtCsaGnL1G5hXQS_9tiny_http4util18refined_tcp_stream16RefinedTcpStreamEEEEB2G_
_RINvNtCsiL7B6CFZHyD_4core3ptr13drop_in_placeINtNtNtNtCs4USifnV5z1l_5tokio7runtime4task4core4CellINtNtNtBN_8blocking4task12BlockingTaskINtNtCshgx866xcH9W_5alloc5boxed3BoxNCNvXs_NtNtBP_2io8blockingINtB2O_8BlockingNtNtNtCs3NZLoJsOov_3std2io5stdio6StdoutENtNtB2Q_11async_write10AsyncWrite10poll_write0EENtNtB1B_8schedule16BlockingScheduleEEBP_
_RINvNtCsiL7B6CFZHyD_4core3ptr13drop_in_placeINtNtNtNtCs4USifnV5z1l_5tokio7runtime4task4core9CoreStageINtNtNtBN_8blocking4task12BlockingTaskINtNtCshgx866xcH9W_5alloc5boxed3BoxNCNvXsh_NtNtBP_3net4addrTRetENtNtB2U_6sealed17ToSocketAddrsPriv15to_socket_addrs0EEEEBP_
_RINvNtCsiL7B6CFZHyD_4core3ptr13drop_in_placeINtNtNtNtCs89pdyz7HZkL_12aho_corasick6packed5teddy7generic3FatNtNtNtB4_9core_arch3x867___m256iKj4_EEBP_
_RINvNtCsiL7B6CFZHyD_4core3ptr13drop_in_placeINtNtNtNtCsebUrgibTRpr_7asn1_rs10asn1_types6tagged6parser12TaggedParserNtBL_8ExplicitNtNtBN_3any3AnyEEBP_
_RINvNtCsiL7B6CFZHyD_4core3ptr13drop_in_placeINtNtNtNtCshgx866xcH9W_5alloc11collections5btree3map8BTreeMapNtNtBP_6string6StringNtNtCskt8TpxtZnof_4clap3app3AppEEB24_
_RINvNtCsiL7B6CFZHyD_4core3ptr13drop_in_placeINtNtNtNtCshgx866xcH9W_5alloc11collections5btree3map8IntoIterINtNtBP_5boxed3BoxShEjEECs89pdyz7HZkL_12aho_corasick
_RINvNtCsiL7B6CFZHyD_4core3ptr13drop_in_placeINtNtNtNtCshgx866xcH9W_5alloc11collections5btree3map8IntoIterjNtNtCsidrnck1WR5S_9yaml_rust4yaml4YamlEEB1K_
_RINvNtCsiL7B6CFZHyD_4core3ptr13drop_in_placeINtNtNtNtCshgx866xcH9W_5alloc11collections5btree4node11SplitResultNtNtBP_6string6StringNtNtCskt8TpxtZnof_4clap3app3AppNtNtBJ_6marker8InternalEEB29_
_RINvNtCsiL7B6CFZHyD_4core3ptr13drop_in_placeINtNtNtNtCsk6MyMWEfS3B_6memchr4arch7generic6memchr3OneNtNtNtB4_9core_arch3x867___m128iEEBP_
_RINvNtCsiL7B6CFZHyD_4core3ptr13drop_in_placeINtNtNtNtCsk9QERyUqk6O_5tokio7runtime4task4core4CoreINtNtNtBN_8blocking4task12BlockingTaskNCNvMNtNtNtBN_9scheduler12multi_thread6workerNtB2d_6Launch6launch0ENtNtB1B_8schedule16BlockingScheduleEEBP_
_RINvNtCsiL7B6CFZHyD_4core3ptr13drop_in_placeINtNtNtNtCsklfhaN9lQFy_12aho_corasick6packed5teddy7generic4SlimNtNtNtB4_9core_arch3x867___m256iKj2_EEBP_
_RINvNtCsiL7B6CFZHyD_4core3ptr13drop_in_placeINtNtNtNtCslBVC6wF8Bgr_5tokio7runtime4task4core4CellINtNtNtBN_8blocking4task12BlockingTaskNCNvXs_NtNtBP_2io8blockingINtB2f_8BlockingNtNtNtCs3NZLoJsOov_3std2io5stdio6StdoutENtNtB2h_11async_write10AsyncWrite10poll_write0ENtNtB1B_8schedule16BlockingScheduleEEBP_
_RINvNtCsiL7B6CFZHyD_4core3ptr13drop_in_placeINtNtNtNtCslBVC6wF8Bgr_5tokio7runtime4task4core9CoreStageINtNtNtBN_8blocking4task12BlockingTaskNCNvXsh_NtNtBP_3net4addrTRetENtNtB2l_6sealed17ToSocketAddrsPriv15to_socket_addrs0EEEBP_
_RINvNtCsiL7B6CFZHyD_4core3ptr13drop_in_placeINtNtNtNtNtCs3NZLoJsOov_3std3sys6common12thread_local4lazy12LazyKeyInnerINtNtCshgx866xcH9W_5alloc2rc2RcINtNtB4_4cell10UnsafeCellINtNtNtNtCs9HUfXrfHCDU_4rand4rngs7adapter9reseeding12ReseedingRngNtNtCsg02lyLNTGAp_11rand_chacha6chacha12ChaCha12CoreNtNtCs9PwDbklJZ2W_9rand_core2os5OsRngEEEEEB2T_
_RINvNtCsiL7B6CFZHyD_4core3ptr13drop_in_placeINtNtNtNtNtCsc9MEfsw61gC_12aho_corasick6packed5teddy7builder6x86_647FatAVX2Kj4_EEBR_
_RINvNtCsiL7B6CFZHyD_4core3ptr13drop_in_placeINtNtNtNtNtNtCs3NZLoJsOov_3std3sys6common12thread_local10fast_local4fast3KeyINtNtCshgx866xcH9W_5alloc2rc2RcINtNtB4_4cell7RefCellNtNtNtCs7Uz5kQzfrA5_8nanorand4rand6wyrand6WyRandEEEEB2Q_
_RINvNtCsiL7B6CFZHyD_4core3ptr13drop_in_placeINtNvMs1_NtCslAj3ugQP8Tn_10async_task3rawINtBP_7RawTaskppppE3run5GuardINtNtB4_3pin3PinINtNtCshgx866xcH9W_5alloc5boxed3BoxNCINvCskFZxpbhaWoe_8blocking7unblockNtNtNtCshFvNZPQTJhs_9async_std2io6stderr5StateNCNvXB3f_NtB3f_6StderrNtNtCslG5yY4CbCNy_10futures_io6if_std10AsyncWrite10poll_flush0E0EEB3d_NCINvMs_B2I_NtB2I_8Executor5spawnB3d_B2D_Es_0uEEB3j_
_RINvNtCsiL7B6CFZHyD_4core3ptr13drop_in_placeINtNvMs_NtCshgx866xcH9W_5alloc3vecINtBO_3VecppE10retain_mut15BackshiftOnDropNtNtCsj40W3ef8J8f_12tracing_core10dispatcher9RegistrarNtNtBQ_5alloc6GlobalEEB1Y_
_RINvNtCsiL7B6CFZHyD_4core3ptr13drop_in_placeINtNvNtCs3NZLoJsOov_3std9panicking11begin_panic12PanicPayloadReEECs60av68niOtt_11flatbuffers
_RINvNtCsiL7B6CFZHyD_4core3ptr13drop_in_placeINtNvNtCs3NZLoJsOov_3std9panicking11begin_panic12PanicPayloadReEECslRAnOFuVxXM_14allocator_api2
_RINvNtCsiL7B6CFZHyD_4core3ptr13drop_in_placeINtNvNtNtB4_5slice4sort10merge_sort6RunVecNCINvNtCshgx866xcH9W_5alloc5slice11stable_sortNtNtCs6c37mDEUb8k_12regex_syntax3ast4SpanNvYB26_NtNtB4_3cmp10PartialOrd2ltEs0_0NCB1o_s1_0EEB2a_
_RINvNtCsiL7B6CFZHyD_4core3ptr13drop_in_placeINtNvNtNtB4_5slice4sort10merge_sort6RunVecNCINvNtCshgx866xcH9W_5alloc5slice11stable_sortThcENCINvMB1r_SB26_11sort_by_keyhNCNvMs_NtCsdA9E9juh3JZ_21unicode_normalization9decomposeINtB2K_14DecompositionsNtNtNtB4_3str4iter5CharsE12sort_pending0E0Es0_0NCB1o_s1_0EECs7nzyhGHHeiz_10stringprep
_RINvNtCsiL7B6CFZHyD_4core3ptr13drop_in_placeINtNvNtNtB4_5slice4sort10merge_sort8BufGuardNtNtCs302BLY9Avsm_12regex_syntax3ast4SpanNCINvNtCshgx866xcH9W_5alloc5slice11stable_sortB1o_NvYB1o_NtNtB4_3cmp10PartialOrd2ltEs_0EEB1s_
_RINvNtCsiL7B6CFZHyD_4core3ptr13drop_in_placeINtNvNtNtB4_5slice4sort10merge_sort8BufGuardTNtNtCsh4ySdynPyhh_5gimli6common15DebugInfoOffsetNtB1r_18DebugArangesOffsetENCINvNtCshgx866xcH9W_5alloc5slice11stable_sortB1o_NCINvMB2H_SB1o_11sort_by_keyB1p_NCNvMs0_CsczsURVd1v6z_9addr2lineINtB44_7ContextINtNtNtB1t_4read12endian_slice11EndianSliceNtNtB1t_9endianity12LittleEndianEE11parse_units0E0Es_0EECs7adunahxyaw_9backtrace
_RINvNtCsiL7B6CFZHyD_4core3ptr13drop_in_placeINtNvNtNtB4_5slice4sort5merge9MergeHoleNtNtCs302BLY9Avsm_12regex_syntax3ast4SpanEEB1n_
_RINvNtCsiL7B6CFZHyD_4core3ptr13drop_in_placeINtNvNtNtB4_5slice4sort5merge9MergeHoleTThhhhEhEEECsb6BebbR1nVn_3gif
_RINvNtCsiL7B6CFZHyD_4core3ptr13drop_in_placeINtNvNtNtCs3NZLoJsOov_3std2io5Write9write_fmt7AdapterNtNtNtNtBP_3sys4unix5stdio6StderrEECs3Fu94oynedE_13dirs_sys_next
_RINvNtCsiL7B6CFZHyD_4core3ptr13drop_in_placeINtNvNtNtCs3NZLoJsOov_3std2io5Write9write_fmt7AdapterNtNtNtNtBP_3sys4unix5stdio6StderrEECseiJFhKSjCIQ_4http
_RINvNtCsiL7B6CFZHyD_4core3ptr13drop_in_placeINtNvXNtNtCshgx866xcH9W_5alloc5slice4hackpNtBM_10ConvertVec6to_vec9DropGuardINtNtNtCs6HoTchw45No_4http6header3map10ExtraValueNtNtCs39tN3kAyJfh_5bytes5bytes5BytesENtNtBQ_5alloc6GlobalEECsl3mREbhXjXK_5hyper
_RINvNtCsiL7B6CFZHyD_4core3ptr13drop_in_placeINtNvXNtNtCshgx866xcH9W_5alloc5slice4hackpNtBM_10ConvertVec6to_vec9DropGuardNtNtNtCshpKpake7nJI_12regex_syntax3hir7literal7LiteralNtNtBQ_5alloc6GlobalEEB20_
_RINvNtCsiL7B6CFZHyD_4core3ptr13drop_in_placeINtNvXNtNtCshgx866xcH9W_5alloc5slice4hackpNtBM_10ConvertVec6to_vec9DropGuardTNtNtCs1cxMKpSN2o4_3syn2ty9BareFnArgNtNtB1Z_5token5CommaENtNtBQ_5alloc6GlobalEEB1Z_
_RINvNtCsiL7B6CFZHyD_4core3ptr13drop_in_placeINtNvXs5_NtNtCshgx866xcH9W_5alloc3vec5drainINtBP_5DrainppENtNtNtB4_3ops4drop4Drop4drop9DropGuardNtNtCs23yxf7uxwGf_12regex_syntax3hir17ClassUnicodeRangeNtNtBT_5alloc6GlobalEEB2i_
_RINvNtCsiL7B6CFZHyD_4core3ptr13drop_in_placeINtNvXs5_NtNtCshgx866xcH9W_5alloc3vec5drainINtBP_5DrainppENtNtNtB4_3ops4drop4Drop4drop9DropGuardNtNtNtNtCs3NZLoJsOov_3std4sync4mpmc5waker5EntryNtNtBT_5alloc6GlobalEECsbudUTgWQKts_10threadpool
_RINvNtCsiL7B6CFZHyD_4core3ptr13drop_in_placeINtNvXs_NtNtCshgx866xcH9W_5alloc11collections9vec_dequeINtBO_8VecDequeppENtNtNtB4_3ops4drop4Drop4drop7DroppercEECskvdpLI7AOSZ_5insta
_RINvNtCsiL7B6CFZHyD_4core3ptr13drop_in_placeINtNvXsc_NtNtCshgx866xcH9W_5alloc3vec9into_iterINtBP_8IntoIterppENtNtNtB4_3ops4drop4Drop4drop9DropGuardNtNtCs1cxMKpSN2o4_3syn4item4ItemNtNtBT_5alloc6GlobalEECs20txnxQ5U84_7bindgen
_RINvNtCsiL7B6CFZHyD_4core3ptr13drop_in_placeINtNvXsc_NtNtCshgx866xcH9W_5alloc3vec9into_iterINtBP_8IntoIterppENtNtNtB4_3ops4drop4Drop4drop9DropGuardNtNtNtCs1XKReJ1SRGG_18tracing_subscriber6filter9directive15StaticDirectiveNtNtBT_5alloc6GlobalEEB2r_
_RINvNtCsiL7B6CFZHyD_4core3ptr13drop_in_placeINtNvXsc_NtNtCshgx866xcH9W_5alloc3vec9into_iterINtBP_8IntoIterppENtNtNtB4_3ops4drop4Drop4drop9DropGuardTNtNtCs1cxMKpSN2o4_3syn8generics14TypeParamBoundNtNtB2q_5token4PlusENtNtBT_5alloc6GlobalEEB2q_
_RINvNtCsiL7B6CFZHyD_4core3ptr13drop_in_placeINtNvXsc_NtNtCshgx866xcH9W_5alloc3vec9into_iterINtBP_8IntoIterppENtNtNtB4_3ops4drop4Drop4drop9DropGuardjNtNtBT_5alloc6GlobalEECs23yxf7uxwGf_12regex_syntax
_RINvNtCsiL7B6CFZHyD_4core3ptr13drop_in_placeINtNvXsw_NtNtNtCshgx866xcH9W_5alloc11collections5btree3mapINtBP_8IntoIterpppENtNtNtB4_3ops4drop4Drop4drop9DropGuardNtNtNtNtCsfcZx8z6uiNH_14regex_automata4util11determinize5state5StateNtNtB2D_10primitives7StateIDNtNtBV_5alloc6GlobalEEB2F_
_RINvNtCsiL7B6CFZHyD_4core3ptr13drop_in_placeNCINvMNtCs3NZLoJsOov_3std6threadNtBM_7Builder16spawn_unchecked_NCNvMNtNtCs7v7Yapv3qqg_13futures_timer6native6globalNtB1M_12HelperThread3new0uEs_0EB1Q_
_RINvNtCsiL7B6CFZHyD_4core3ptr13drop_in_placeNCINvMs2_NtCs5Hp1lzAG9q1_9once_cell3impINtBP_8OnceCellNtNtCshFvNZPQTJhs_9async_std2rt7RuntimeE10initializeNCINvMs4_NtBR_4syncINtB2x_8OnceCellB1y_E11get_or_initNCNvMs9_B2x_INtB2x_4LazyB1y_E5force0E0NtNvMs4_B2x_IB2I_pE11get_or_init4VoidE0EB1C_
_RINvNtCsiL7B6CFZHyD_4core3ptr13drop_in_placeNCINvMs4_NtCslAj3ugQP8Tn_10async_task8runnableINtBP_7BuilderuE15spawn_uncheckedNCINvMs3_Cs7cHv9uWQ5Bd_14async_executorNtB26_8Executor11spawn_innerNtNtNtCshFvNZPQTJhs_9async_std2io6stderr5StateINtNtNtB38_4task7builder17SupportTaskLocalsINtNtBR_4task4TaskB32_EEEs_0NCB1Z_0NCNvB22_8schedule0E0EB38_
_RINvNtCsiL7B6CFZHyD_4core3ptr13drop_in_placeNCINvMs5_NtCshK2h5RPyNs1_9hashbrown3rawINtBP_8RawTableTINtNtCshgx866xcH9W_5alloc4sync3ArceENtNtNtCs9uh8emyyfsF_14regex_automata4util10primitives10SmallIndexEE4findNCINvNtBR_3map14equivalent_keyB1z_B1z_B29_E0E0EB2f_
_RINvNtCsiL7B6CFZHyD_4core3ptr13drop_in_placeNCINvMs5_NtCshK2h5RPyNs1_9hashbrown3rawINtBP_8RawTableTNtNtCs20txnxQ5U84_7bindgen5clang6CursorNtNtNtB1D_2ir7context6TypeIdEE14reserve_rehashNCINvNtBR_3map11make_hasherB1z_B1z_B2c_NtCsjt6QawPyDY5_10rustc_hash13FxBuildHasherE0E0EB1D_
_RINvNtCsiL7B6CFZHyD_4core3ptr13drop_in_placeNCINvMs5_NtCshK2h5RPyNs1_9hashbrown3rawINtBP_8RawTableTNtNtCshgx866xcH9W_5alloc6string6StringINtNtB1D_4sync3ArcINtNtB1D_5boxed3BoxDNtNtCs1yFw5o97rjX_6thrift6server10TProcessorNtNtB4_6marker4SendNtB3x_4SyncEL_EEEE4findNCINvNtBR_3map14equivalent_keyeB1z_B2b_E0E0EB2R_
_RINvNtCsiL7B6CFZHyD_4core3ptr13drop_in_placeNCINvMs5_NtCshK2h5RPyNs1_9hashbrown3rawINtBP_8RawTableTNtNtCshgx866xcH9W_5alloc6string6StringjEE4findNCINvNtBR_3map14equivalent_keyB1z_B1z_jE0E0ECsidrnck1WR5S_9yaml_rust
_RINvNtCsiL7B6CFZHyD_4core3ptr13drop_in_placeNCINvMs5_NtCshK2h5RPyNs1_9hashbrown3rawINtBP_8RawTableTNtNtNtCs3NZLoJsOov_3std3ffi6os_str8OsStringNtNtNtCskN1Yzg5nTsb_11procfs_core7process10namespaces9NamespaceEE14reserve_rehashNCINvNtBR_3map11make_hasherB1z_B1z_B2g_NtNtNtNtB1F_11collections4hash3map11RandomStateE0E0ECs6JGgWY6YaLc_6procfs
_RINvNtCsiL7B6CFZHyD_4core3ptr13drop_in_placeNCINvMs5_NtCshK2h5RPyNs1_9hashbrown3rawINtBP_8RawTableTRReINtNtB4_6option6OptionjEEE4findNCNvMNtBR_11rustc_entryINtNtBR_3map7HashMapB1z_B1C_NtNtNtNtCs3NZLoJsOov_3std11collections4hash3map11RandomStateE11rustc_entry0E0ECsfjsGG03OZM8_7similar
_RINvNtCsiL7B6CFZHyD_4core3ptr13drop_in_placeNCINvMs5_NtCshK2h5RPyNs1_9hashbrown3rawINtBP_8RawTableTRmINtNtB4_6option6OptionjEEE14reserve_rehashNCINvNtBR_3map11make_hasherB1z_B1z_B1B_NtNtNtNtCs3NZLoJsOov_3std11collections4hash3map11RandomStateE0E0ECsh0qnI37SO6t_7similar
_RINvNtCsiL7B6CFZHyD_4core3ptr13drop_in_placeNCINvMs_CskFZxpbhaWoe_8blockingNtBO_8Executor5spawnINtNtB4_6result6ResultINtNtNtCshgx866xcH9W_5alloc3vec9into_iter8IntoIterNtNtNtB4_3net11socket_addr10SocketAddrENtNtNtCs3NZLoJsOov_3std2io5error5ErrorENCINvBO_7unblockB1v_NCNvXs8_NtNtCshFvNZPQTJhs_9async_std3net4addreNtB4n_13ToSocketAddrs15to_socket_addrs0E0E0EB4r_
_RINvNtCsiL7B6CFZHyD_4core3ptr13drop_in_placeNCINvMsi_NtCshgx866xcH9W_5alloc3vecINtBP_3VecINtNtNtB4_3mem12maybe_uninit11MaybeUninitNtNtCs3sZDYscQcZY_10rayon_core3job6JobRefEE14extend_trustedINtNtNtNtB4_4iter8adapters3map3MapINtNtNtB4_3ops5range5RangejENCNvMs_NtCsdxpuzYOuQC7_15crossbeam_deque5dequeINtB48_6BufferB24_E5alloc0EE0EB28_
_RINvNtCsiL7B6CFZHyD_4core3ptr13drop_in_placeNCINvMsi_NtCshgx866xcH9W_5alloc3vecINtBP_3VecNtNtBR_6string6StringE14extend_trustedINtNtNtNtB4_4iter8adapters3map3MapINtNtNtB4_5slice4iter4IterNtNtNtCs2UqitWCaGEJ_14regex_automata4util10primitives7StateIDENCNvXs3_NtNtNtB35_3nfa8thompson3nfaNtB47_5StateNtNtB4_3fmt5Debug3fmts_0EE0EB35_
_RINvNtCsiL7B6CFZHyD_4core3ptr13drop_in_placeNCINvMsi_NtCshgx866xcH9W_5alloc3vecINtBP_3VecNtNtCs23yxf7uxwGf_12regex_syntax3hir15ClassBytesRangeE14extend_trustedINtNtNtNtB4_4iter8adapters3map3MapINtNtBP_9into_iter8IntoIterhENCNvMs3_B1r_NtB1r_3Hir11alternations_0EE0EB1t_
_RINvNtCsiL7B6CFZHyD_4core3ptr13drop_in_placeNCINvMsi_NtCshgx866xcH9W_5alloc3vecINtBP_3VecNtNtCs5Ng0wM7PJ5I_12regex_syntax3hir3HirE14extend_trustedINtNtNtNtB4_4iter8adapters3map3MapINtNtNtB4_5slice4iter4IterB1p_ENCNvNtNtCs2UqitWCaGEJ_14regex_automata4meta13reverse_inner10top_concat0EE0EB3v_
_RINvNtCsiL7B6CFZHyD_4core3ptr13drop_in_placeNCINvMsi_NtCshgx866xcH9W_5alloc3vecINtBP_3VecNtNtCshpKpake7nJI_12regex_syntax3hir3HirE14extend_trustedINtNtNtNtB4_4iter8adapters3map3MapINtNtNtB4_5slice4iter4IterB1p_ENCNvNtNtCs9uh8emyyfsF_14regex_automata4meta13reverse_inner10top_concat0EE0EB3v_
_RINvNtCsiL7B6CFZHyD_4core3ptr13drop_in_placeNCINvMsi_NtCshgx866xcH9W_5alloc3vecINtBP_3VecNtNtNtCs2GX3rYzX9NP_14regex_automata4util10primitives7StateIDE14extend_trustedINtNtNtNtB4_4iter8adapters3map3MapINtNtNtB4_3ops5range5RangejENCINvMNtNtB1v_3dfa8remapperNtB3L_8Remapper3newNtNtB3N_7onepass3DFAE0EE0EB1v_
_RINvNtCsiL7B6CFZHyD_4core3ptr13drop_in_placeNCINvMsi_NtCshgx866xcH9W_5alloc3vecINtBP_3VecNtNtNtNtCshfzWP1bsRXe_14regex_automata3nfa8thompson10range_trie5StateE14extend_trustedINtNtBP_5drain5DrainB1p_EE0EB1x_
_RINvNtCsiL7B6CFZHyD_4core3ptr13drop_in_placeNCINvMsi_NtCshgx866xcH9W_5alloc3vecINtBP_3VecTNtNtNtCsgMh45ZzF4i5_10serde_core7private7content7ContentB1q_EE14extend_trustedINtNtNtNtB4_4iter8adapters3map3MapINtNtNtB4_5slice4iter4IterB1p_ENCNvNtNtNtCs9jILlod8Q2y_5serde7private2de7content13content_clone0EE0EB3T_
_RINvNtCsiL7B6CFZHyD_4core3ptr13drop_in_placeNCINvMsi_NtCshgx866xcH9W_5alloc3vecINtBP_3VecjE14extend_trustedINtNtNtNtB4_4iter8adapters3map3MapINtNtBP_9into_iter8IntoIterINtNtB4_6option6OptionjEENCNCINvCslQXtP2qTVhA_13phf_generator26generate_hash_with_hash_fnRRNtNtBR_6string6StringINvCs4rr8EeQBcJU_10phf_shared4hashB47_EEs0_00EE0ECsgcFSzCu6SVo_15chrono_tz_build
_RINvNtCsiL7B6CFZHyD_4core3ptr13drop_in_placeNCINvMsi_NtCshgx866xcH9W_5alloc3vecINtBP_3VecyE14extend_trustedINtNtNtNtB4_4iter8adapters4take4TakeINtNtB1M_6cloned6ClonedINtNtNtB4_5slice4iter4IteryEEEE0ECs2pCiphAJ0IO_8ucd_trie
_RINvNtCsiL7B6CFZHyD_4core3ptr13drop_in_placeNCINvNtNtCs7VDwacPzN0q_6rustix2fs2at10readlinkatRNtNtCs3NZLoJsOov_3std4path7PathBufNtNtNtNtB1x_2os2fd5owned10BorrowedFdINtNtCshgx866xcH9W_5alloc3vec3VechEE0ECs6JGgWY6YaLc_6procfs
_RINvNtCsiL7B6CFZHyD_4core3ptr13drop_in_placeNCINvNtNtNtB4_4iter8adapters3map8map_foldRINtNtCshgx866xcH9W_5alloc4sync3ArceENtNtB1r_6string6StringuNCNvMs3_NtNtNtNtCs1DT2mKzNIQv_4jiff2tz2db12concatenated5innerNtB2r_10NamesInner9available0NCINvNvNtNtNtBP_6traits8iterator8Iterator8for_each4callB1W_NCINvMsi_NtB1r_3vecINtB4R_3VecB1W_E14extend_trustedINtBL_3MapINtNtNtB4_5slice4iter4IterB1m_EB2j_EE0E0E0EB2z_
_RINvNtCsiL7B6CFZHyD_4core3ptr13drop_in_placeNCINvNtNtNtB4_4iter8adapters3map8map_foldRNtNtCshgx866xcH9W_5alloc6string6StringNtCsgMKgB7mnEUJ_11proc_macro211TokenStreamuNCNvXst_NtCs20txnxQ5U84_7bindgen7codegenNtNtNtB2P_2ir7enum_ty4EnumNtB2N_13CodeGenerator7codegens3_0NCINvNvNtNtNtBP_6traits8iterator8Iterator8for_each4callB1Y_NCINvMsi_NtB1q_3vecINtB5m_3VecB1Y_E14extend_trustedINtBL_3MapINtNtNtB4_5slice4iter4IterB1m_EB2F_EE0E0E0EB2P_
_RINvNtCsiL7B6CFZHyD_4core3ptr13drop_in_placeNCINvNtNtNtB4_4iter8adapters3map8map_foldRNtNtNtCskt8TpxtZnof_4clap4args3arg3ArgReuNCINvMNtB1s_3appNtB27_3App28get_matches_from_safe_borrowQNtNtCs3NZLoJsOov_3std3env6ArgsOsNtNtNtB30_3ffi6os_str8OsStringE0NCINvNvNtNtNtBP_6traits8iterator8Iterator8for_each4callB1Y_NCINvMsi_NtCshgx866xcH9W_5alloc3vecINtB54_3VecB1Y_E14extend_trustedINtBL_3MapINtNtNtB4_5slice4iter4IterB1m_EB21_EE0E0E0EB1s_
_RINvNtCsiL7B6CFZHyD_4core3ptr13drop_in_placeNCINvNtNtNtB4_4iter8adapters3map8map_foldRShtuNCNvNtNtCsbHXshUE3PXC_10der_parser3ber8wrap_any22try_berobject_from_any0NCINvNvNtNtNtBP_6traits8iterator8Iterator8for_each4calltNCINvMsi_NtCshgx866xcH9W_5alloc3vecINtB3D_3VectE14extend_trustedINtBL_3MapINtNtNtB4_5slice4iter11ChunksExacthEB1q_EE0E0E0EB1y_
_RINvNtCsiL7B6CFZHyD_4core3ptr13drop_in_placeNCINvNtNtNtB4_4iter8adapters3map8map_foldRhNtNtCshgx866xcH9W_5alloc6string6StringuNCNvXs0_NtCs2mIeKSaVYb8_16rusticata_macros5debugNtB28_8HexSliceNtNtB4_3fmt5Debug3fmt0NCINvNvNtNtNtBP_6traits8iterator8Iterator8for_each4callB1n_NCINvMsi_NtB1r_3vecINtB4t_3VecB1n_E14extend_trustedINtBL_3MapINtNtNtB4_5slice4iter4IterhEB20_EE0E0E0EB2a_
_RINvNtCsiL7B6CFZHyD_4core3ptr13drop_in_placeNCINvNtNtNtB4_4iter8adapters3map8map_foldTRcB1m_EINtCs50cAaw8GDhY_4diff6ResultcEuNCINvB1w_7do_diffcNCNvB1w_5chars0cEs1_0NCINvNvNtNtNtBP_6traits8iterator8Iterator8for_each4callB1t_NCINvMsi_NtCshgx866xcH9W_5alloc3vecINtB3I_3VecB1t_E14extend_trustedINtBL_3MapINtNtBN_3zip3ZipINtNtNtB4_5slice4iter4ItercEB54_EB1Z_EE0E0E0EB1w_
_RINvNtCsiL7B6CFZHyD_4core3ptr13drop_in_placeNCINvNtNtNtB4_4iter8adapters3map8map_foldjINtNtB4_6option6OptionNtNtNtNtCskt8TpxtZnof_4clap4args11arg_builder10positional10PosBuilderEuNCNvMs0_Cs5rTiqEIskse_7vec_mapINtB2Z_6VecMapB1I_E6insert0NCINvNvNtNtNtBP_6traits8iterator8Iterator8for_each4callB1m_NCINvMsi_NtCshgx866xcH9W_5alloc3vecINtB4S_3VecB1m_E14extend_trustedINtBL_3MapINtNtNtB4_3ops5range5RangejEB2R_EE0E0E0EB1Q_
_RINvNtCsiL7B6CFZHyD_4core3ptr13drop_in_placeNCINvNtNtNtB4_4iter8adapters6copied9copy_foldThhEuNCINvNtBN_3map8map_foldB1p_NtNtCshpKpake7nJI_12regex_syntax3hir15ClassBytesRangeuNCNvMs3_NtB1X_9translateNtB2V_11TranslatorI20hir_ascii_byte_class0NCINvNvNtNtNtBP_6traits8iterator8Iterator8for_each4callB1V_NCINvMsi_NtCshgx866xcH9W_5alloc3vecINtB4X_3VecB1V_E14extend_trustedINtB1z_3MapINtBL_6CopiedINtNtNtB4_5slice4iter4IterB1p_EEB2N_EE0E0E0E0EB1Z_
_RINvNtCsiL7B6CFZHyD_4core3ptr13drop_in_placeNCINvNvNtB4_5array25try_from_trusted_iterator4nextINtNtNtB4_3ops9try_trait17NeverShortCircuitINtNtNtNtCsklfhaN9lQFy_12aho_corasick6packed5teddy7generic4MaskNtNtNtB4_9core_arch3x867___m256iEEINtNtNtNtB4_4iter8adapters3map3MapINtNtBN_5drain5DrainNtB2e_15SlimMaskBuilderENCINvMB1x_B1u_10wrap_mut_1B4C_NCINvMsd_B2e_B4C_10from_teddyKj1_B3c_E0E0EE0EB2k_
_RINvNtCsiL7B6CFZHyD_4core3ptr13drop_in_placeNCINvNvNtNtNtNtB4_4iter6traits8iterator8Iterator8for_each4callNtCsgMKgB7mnEUJ_11proc_macro211TokenStreamNCINvMsi_NtCshgx866xcH9W_5alloc3vecINtB2v_3VecB1G_E14extend_trustedINtNtNtBT_8adapters3map3MapINtNtNtB4_5slice4iter4IterNtNtB2x_6string6StringENCNvXsm_NtCs20txnxQ5U84_7bindgen7codegenNtNtNtB4P_2ir4comp8CompInfoNtB4N_13CodeGenerator7codegens6_0EE0E0EB4P_
_RINvNtCsiL7B6CFZHyD_4core3ptr13drop_in_placeNCINvNvNtNtNtNtB4_4iter6traits8iterator8Iterator8for_each4callNtNtCs302BLY9Avsm_12regex_syntax3hir17ClassUnicodeRangeNCINvMsi_NtCshgx866xcH9W_5alloc3vecINtB2I_3VecB1G_E14extend_trustedINtNtNtBT_8adapters3map3MapINtNtNtB4_5slice4iter4IterTccEENCNvMs3_NtB1I_9translateNtB4I_11TranslatorI23hir_ascii_unicode_class0EE0E0EB1K_
_RINvNtCsiL7B6CFZHyD_4core3ptr13drop_in_placeNCINvNvNtNtNtNtB4_4iter6traits8iterator8Iterator8for_each4callNtNtCs6c37mDEUb8k_12regex_syntax3hir17ClassUnicodeRangeNCINvMsi_NtCshgx866xcH9W_5alloc3vecINtB2I_3VecB1G_E14extend_trustedINtNtNtB4_5array4iter8IntoIterB1G_Kj3_EE0E0EB1K_
_RINvNtCsiL7B6CFZHyD_4core3ptr13drop_in_placeNCINvNvNtNtNtNtB4_4iter6traits8iterator8Iterator8for_each4callNtNtCshgx866xcH9W_5alloc6string6StringNCINvMsi_NtB1K_3vecINtB2r_3VecB1G_E14extend_trustedINtNtNtBT_8adapters3map3MapINtNtNtB4_5slice4iter4IterNtNtNtCsfcZx8z6uiNH_14regex_automata4util10primitives7StateIDENCNvXs3_NtNtNtB44_3nfa8thompson3nfaNtB56_5StateNtNtB4_3fmt5Debug3fmts_0EE0E0EB44_
_RINvNtCsiL7B6CFZHyD_4core3ptr13drop_in_placeNCINvNvNtNtNtNtB4_4iter6traits8iterator8Iterator8for_each4callNtNtCsjh4mrTFEWVx_12regex_syntax3hir15ClassBytesRangeNCINvMsi_NtCshgx866xcH9W_5alloc3vecINtB2G_3VecB1G_E14extend_trustedINtNtNtBT_8adapters3map3MapINtNtB3H_6copied6CopiedINtNtNtB4_5slice4iter4IterThhEEENCNvNtB1I_9translate21hir_ascii_class_bytes0EE0E0EB1K_
_RINvNtCsiL7B6CFZHyD_4core3ptr13drop_in_placeNCINvNvNtNtNtNtB4_4iter6traits8iterator8Iterator8for_each4callNtNtNtCs89pdyz7HZkL_12aho_corasick4util10primitives7StateIDNCINvMsi_NtCshgx866xcH9W_5alloc3vecINtB2M_3VecB1G_E14extend_trustedINtNtNtBT_8adapters3map3MapINtNtNtB4_3ops5range5RangejENCINvMNtB1K_8remapperNtB4H_8Remapper3newNtNtNtB1M_3nfa13noncontiguous3NFAE0EE0E0EB1M_
_RINvNtCsiL7B6CFZHyD_4core3ptr13drop_in_placeNCINvNvNtNtNtNtB4_4iter6traits8iterator8Iterator8for_each4callReNCINvMsi_NtCshgx866xcH9W_5alloc3vecINtB1R_3VecB1G_E14extend_trustedINtNtB4_6option8IntoIterB1G_EE0E0ECskt8TpxtZnof_4clap
_RINvNtCsiL7B6CFZHyD_4core3ptr13drop_in_placeNCINvNvNtNtNtNtB4_4iter6traits8iterator8Iterator8for_each4callhNCINvMsi_NtCshgx866xcH9W_5alloc3vecINtB1Q_3VechE14extend_trustedINtNtNtBT_8adapters3map3MapINtNtNtB4_5slice4iter4ItertENCNvNtNtCsk1c4NF7YhJt_12jpeg_decoder7decoder8lossless13convert_to_u80EE0E0EB3K_
_RINvNtCsiL7B6CFZHyD_4core3ptr13drop_in_placeNCINvNvNtNtNtNtB4_4iter6traits8iterator8Iterator8for_each4callyNCINvMsi_NtCshgx866xcH9W_5alloc3vecINtB1Q_3VecyE14extend_trustedINtNtNtBT_8adapters3map3MapINtNtNtB4_5slice4iter6ChunkshENCNvNtNtCs16toIqv7aHG_10num_bigint7biguint7convert22from_bitwise_digits_le0EE0E0EB3M_
_RINvNtCsiL7B6CFZHyD_4core3ptr13drop_in_placeNCINvNvXsi_NtNtNtB4_4iter8adapters7flattenINtBR_13FlattenCompatppENtNtNtBV_6traits8iterator8Iterator4fold7flattenINtNtNtB4_5array4iter8IntoIterhKj3_EuNCINvNvB1K_8for_each4callhNCINvMsi_NtCshgx866xcH9W_5alloc3vecINtB3F_3VechE14extend_trustedINtBR_7FlatMapINtNtNtB4_5slice4iter4IterThhhhEEAhB31_NCNvMs4_NtCsb6BebbR1nVn_3gif6commonNtB5x_5Frame15from_rgba_speeds0_0EE0E0E0EB5z_
_RINvNtCsiL7B6CFZHyD_4core3ptr13drop_in_placeNCNCNvMNtNtNtNtCs2xTbhAl9gLb_3mio3sys4unix5waker7eventfdNtBN_5Waker3new00EBV_
_RINvNtCsiL7B6CFZHyD_4core3ptr13drop_in_placeNCNvMs0_NtCshfZdcOEXVna_18trust_dns_resolver14caching_clientINtBO_13CachingClientINtNtBQ_6lookup12LookupEitherINtNtNtBQ_11name_server19connection_provider16GenericConnectorNtNtB2v_13tokio_runtime20TokioRuntimeProviderEENtNtBQ_5error12ResolveErrorE12inner_lookup0EBQ_
_RINvNtCsiL7B6CFZHyD_4core3ptr13drop_in_placeNCNvMs4_NtNtNtCsk9QERyUqk6O_5tokio7runtime4task4coreINtBO_4CoreINtNtB4_3pin3PinINtNtCshgx866xcH9W_5alloc5boxed3BoxINtNtNtCsfuTXiacoSai_15trust_dns_proto4xfer12dns_exchange21DnsExchangeBackgroundINtNtB2B_15dns_multiplexer14DnsMultiplexerINtNtNtB2D_3tcp17tcp_client_stream15TcpClientStreamINtNtB2D_8iocompat17AsyncIoTokioAsStdNtNtNtNtBU_3net3tcp6stream9TcpStreamEENtNtNtB2D_2op7message20NoopMessageFinalizerENtB2D_9TokioTimeEEEINtNtB22_4sync3ArcNtNtNtNtBS_9scheduler12multi_thread6handle6HandleEE9set_stage0ECshfZdcOEXVna_18trust_dns_resolver
_RINvNtCsiL7B6CFZHyD_4core3ptr13drop_in_placeNCNvMs_CsfSQqsC9MRoJ_12num_rationalINtBN_5RatioNtNtCsg6ZIQJj5H2g_10num_bigint6bigint6BigIntE6reduces_0EBN_
_RINvNtCsiL7B6CFZHyD_4core3ptr13drop_in_placeNCNvMsf_Cs7cHv9uWQ5Bd_14async_executorNtBO_6Runner8runnable0ECsdFqYMsaiBHL_21async_global_executor
_RINvNtCsiL7B6CFZHyD_4core3ptr13drop_in_placeNCNvXNtNtCshFvNZPQTJhs_9async_std2io6stderrNtBL_6StderrNtNtCslG5yY4CbCNy_10futures_io6if_std10AsyncWrite10poll_write0EBP_
_RINvNtCsiL7B6CFZHyD_4core3ptr13drop_in_placeNCNvXsf_NtNtCs4USifnV5z1l_5tokio3net4addreNtNtBO_6sealed17ToSocketAddrsPriv15to_socket_addrs0EBS_
_RINvNtCsiL7B6CFZHyD_4core3ptr13drop_in_placeNtCs4FLWZ2DuVsd_17raw_window_handle15RawWindowHandleEBI_
_RINvNtCsiL7B6CFZHyD_4core3ptr13drop_in_placeNtCs67gRWllCrln_7walkdir8AncestorEBI_
_RINvNtCsiL7B6CFZHyD_4core3ptr13drop_in_placeNtCs8qPlBtFINoP_4glob7PatternEBI_
_RINvNtCsiL7B6CFZHyD_4core3ptr13drop_in_placeNtCsaL6DLWWPl8u_3log5LevelEBI_
_RINvNtCsiL7B6CFZHyD_4core3ptr13drop_in_placeNtCsdKoadSXdgQH_7bit_set6BitSetECs8NalhHLbrlY_11fancy_regex
_RINvNtCsiL7B6CFZHyD_4core3ptr13drop_in_placeNtCsgwZHJb2rARN_5vcpkg11VcpkgTargetEBI_
_RINvNtCsiL7B6CFZHyD_4core3ptr13drop_in_placeNtCsipsjXBnSpju_8matchers7PatternECs9vszGGFNfUy_18tracing_subscriber
_RINvNtCsiL7B6CFZHyD_4core3ptr13drop_in_placeNtCslQXtP2qTVhA_13phf_generator6BucketEBI_
_RINvNtCsiL7B6CFZHyD_4core3ptr13drop_in_placeNtNtB4_3fmt5ErrorECsfcdQbM8XNhc_7asn1_rs
_RINvNtCsiL7B6CFZHyD_4core3ptr13drop_in_placeNtNtB4_3fmt9ArgumentsECsc4gMlinqfBn_3log
_RINvNtCsiL7B6CFZHyD_4core3ptr13drop_in_placeNtNtB4_4cell11BorrowErrorECsl3mREbhXjXK_5hyper
_RINvNtCsiL7B6CFZHyD_4core3ptr13drop_in_placeNtNtB4_4cell14BorrowMutErrorECs73ztbjO6fBx_6ignore
_RINvNtCsiL7B6CFZHyD_4core3ptr13drop_in_placeNtNtB4_4char16TryFromCharErrorECs6c37mDEUb8k_12regex_syntax
_RINvNtCsiL7B6CFZHyD_4core3ptr13drop_in_placeNtNtB4_5array17TryFromSliceErrorECsizjmsvrWqOT_6keccak
_RINvNtCsiL7B6CFZHyD_4core3ptr13drop_in_placeNtNtCs1DT2mKzNIQv_4jiff6shared12PosixDayTimeEBK_
_RINvNtCsiL7B6CFZHyD_4core3ptr13drop_in_placeNtNtCs1cxMKpSN2o4_3syn2ty9TypeArrayEBK_
_RINvNtCsiL7B6CFZHyD_4core3ptr13drop_in_placeNtNtCs1cxMKpSN2o4_3syn4expr11ExprForLoopEBK_
_RINvNtCsiL7B6CFZHyD_4core3ptr13drop_in_placeNtNtCs1cxMKpSN2o4_3syn4item14ItemForeignModEBK_
_RINvNtCsiL7B6CFZHyD_4core3ptr13drop_in_placeNtNtCs1cxMKpSN2o4_3syn5parse10UnexpectedEBK_
_RINvNtCsiL7B6CFZHyD_4core3ptr13drop_in_placeNtNtCs1cxMKpSN2o4_3syn5token5ParenEBK_
_RINvNtCsiL7B6CFZHyD_4core3ptr13drop_in_placeNtNtCs1cxMKpSN2o4_3syn8generics14WherePredicateEBK_
_RINvNtCsiL7B6CFZHyD_4core3ptr13drop_in_placeNtNtCs20txnxQ5U84_7bindgen7codegen15EnumBuilderKindEBK_
_RINvNtCsiL7B6CFZHyD_4core3ptr13drop_in_placeNtNtCs23yxf7uxwGf_12regex_syntax4utf813Utf8SequencesECshfzWP1bsRXe_14regex_automata
_RINvNtCsiL7B6CFZHyD_4core3ptr13drop_in_placeNtNtCs2e5lBM6agA0_3mio4poll4PollECsk9QERyUqk6O_5tokio
_RINvNtCsiL7B6CFZHyD_4core3ptr13drop_in_placeNtNtCs302BLY9Avsm_12regex_syntax3hir10ClassBytesEBK_
_RINvNtCsiL7B6CFZHyD_4core3ptr13drop_in_placeNtNtCs3H9oKPe6824_16futures_executor5enter5EnterEBK_
_RINvNtCsiL7B6CFZHyD_4core3ptr13drop_in_placeNtNtCs3NZLoJsOov_3std2fs8DirEntryECs6JGgWY6YaLc_6procfs
_RINvNtCsiL7B6CFZHyD_4core3ptr13drop_in_placeNtNtCs3NZLoJsOov_3std4path7DisplayECs9FARr6NRyzd_10color_eyre
_RINvNtCsiL7B6CFZHyD_4core3ptr13drop_in_placeNtNtCs3NZLoJsOov_3std6thread5InnerECs5Hp1lzAG9q1_9once_cell
_RINvNtCsiL7B6CFZHyD_4core3ptr13drop_in_placeNtNtCs3NZLoJsOov_3std6thread6ThreadECslk3xJcKQ7ze_8fastrand
_RINvNtCsiL7B6CFZHyD_4core3ptr13drop_in_placeNtNtCs3k2vmUqfuQ7_6memchr6memmem9FinderRevEBK_
_RINvNtCsiL7B6CFZHyD_4core3ptr13drop_in_placeNtNtCs4rHto5i1Wx6_10regex_lite3nfa5StateEBK_
_RINvNtCsiL7B6CFZHyD_4core3ptr13drop_in_placeNtNtCs5MsBAlmYmSD_4time5error5ErrorEBK_
_RINvNtCsiL7B6CFZHyD_4core3ptr13drop_in_placeNtNtCs5Ng0wM7PJ5I_12regex_syntax5error5ErrorECs2UqitWCaGEJ_14regex_automata
_RINvNtCsiL7B6CFZHyD_4core3ptr13drop_in_placeNtNtCs6MfJgXaOnUR_11serial_test6rwlock5LocksEBK_
_RINvNtCsiL7B6CFZHyD_4core3ptr13drop_in_placeNtNtCs6c37mDEUb8k_12regex_syntax7unicode16UnicodeWordErrorEBK_
_RINvNtCsiL7B6CFZHyD_4core3ptr13drop_in_placeNtNtCs73ztbjO6fBx_6ignore4walk8DirEntryEBK_
_RINvNtCsiL7B6CFZHyD_4core3ptr13drop_in_placeNtNtCs8NalhHLbrlY_11fancy_regex2vm4InsnEBK_
_RINvNtCsiL7B6CFZHyD_4core3ptr13drop_in_placeNtNtCs9Nvs4x3YD7W_11rand_chacha6chacha12ChaCha20CoreEBK_
_RINvNtCsiL7B6CFZHyD_4core3ptr13drop_in_placeNtNtCsC7QMccVbR7_12tracing_core8metadata21ParseLevelFilterErrorECs9vszGGFNfUy_18tracing_subscriber
_RINvNtCsiL7B6CFZHyD_4core3ptr13drop_in_placeNtNtCsaGnL1G5hXQS_9tiny_http7request7RequestEBK_
_RINvNtCsiL7B6CFZHyD_4core3ptr13drop_in_placeNtNtCsbPHw0ZMlxUx_2cc8tempfile13NamedTempfileEBK_
_RINvNtCsiL7B6CFZHyD_4core3ptr13drop_in_placeNtNtCscAe09wmyAHU_9once_cell3imp5GuardEBK_
_RINvNtCsiL7B6CFZHyD_4core3ptr13drop_in_placeNtNtCsd0ZesFpofmM_7os_info7version7VersionEBK_
_RINvNtCsiL7B6CFZHyD_4core3ptr13drop_in_placeNtNtCseDWgqLcbJaL_12unicode_bidi5level5ErrorEBK_
_RINvNtCsiL7B6CFZHyD_4core3ptr13drop_in_placeNtNtCsed8IBzXIUik_4bstr9ext_slice5SplitEBK_
_RINvNtCsiL7B6CFZHyD_4core3ptr13drop_in_placeNtNtCsfcdQbM8XNhc_7asn1_rs5class5ClassECsbHXshUE3PXC_10der_parser
_RINvNtCsiL7B6CFZHyD_4core3ptr13drop_in_placeNtNtCsg6ZIQJj5H2g_10num_bigint6bigint6BigIntEBK_
_RINvNtCsiL7B6CFZHyD_4core3ptr13drop_in_placeNtNtCsgq42crzOkKS_14parse_zoneinfo4line7WeekdayEBK_
_RINvNtCsiL7B6CFZHyD_4core3ptr13drop_in_placeNtNtCsh7umdSYiYjh_5bytes5bytes5BytesEBK_
_RINvNtCsiL7B6CFZHyD_4core3ptr13drop_in_placeNtNtCshfZdcOEXVna_18trust_dns_resolver7dns_lru6DnsLruEBK_
_RINvNtCsiL7B6CFZHyD_4core3ptr13drop_in_placeNtNtCshgx866xcH9W_5alloc6string6StringECs1dEy6nitbLR_7console
_RINvNtCsiL7B6CFZHyD_4core3ptr13drop_in_placeNtNtCshgx866xcH9W_5alloc6string6StringECs7GlkVKgSNI8_3nom
_RINvNtCsiL7B6CFZHyD_4core3ptr13drop_in_placeNtNtCshgx866xcH9W_5alloc6string6StringECscnXTRSNDF9a_7console
_RINvNtCsiL7B6CFZHyD_4core3ptr13drop_in_placeNtNtCshgx866xcH9W_5alloc6string6StringECsjQAgS81B8HG_7getopts
_RINvNtCsiL7B6CFZHyD_4core3ptr13drop_in_placeNtNtCshpKpake7nJI_12regex_syntax3hir12ClassUnicodeEBK_
_RINvNtCsiL7B6CFZHyD_4core3ptr13drop_in_placeNtNtCsi1PQLdatSvq_11x509_parser4x50911X509VersionEBK_
_RINvNtCsiL7B6CFZHyD_4core3ptr13drop_in_placeNtNtCsinPGoEsCILk_3hex5error12FromHexErrorECs7FJi1HjuVaM_4uint
_RINvNtCsiL7B6CFZHyD_4core3ptr13drop_in_placeNtNtCsjLjmMvagjD3_13linux_raw_sys7general7timevalEBK_
_RINvNtCsiL7B6CFZHyD_4core3ptr13drop_in_placeNtNtCsjh4mrTFEWVx_12regex_syntax3hir7HirKindEBK_
_RINvNtCsiL7B6CFZHyD_4core3ptr13drop_in_placeNtNtCsk6MyMWEfS3B_6memchr3cow8CowBytesEBK_
_RINvNtCsiL7B6CFZHyD_4core3ptr13drop_in_placeNtNtCskMVLhTqFmsi_3syn4attr13MetaNameValueEBK_
_RINvNtCsiL7B6CFZHyD_4core3ptr13drop_in_placeNtNtCskMVLhTqFmsi_3syn4expr9ExprUnaryEBK_
_RINvNtCsiL7B6CFZHyD_4core3ptr13drop_in_placeNtNtCskMVLhTqFmsi_3syn4path4PathEBK_
_RINvNtCsiL7B6CFZHyD_4core3ptr13drop_in_placeNtNtCskN1Yzg5nTsb_11procfs_core6crypto8SelfTestEBK_
_RINvNtCsiL7B6CFZHyD_4core3ptr13drop_in_placeNtNtCskvdpLI7AOSZ_5insta8settings14ActualSettingsEBK_
_RINvNtCsiL7B6CFZHyD_4core3ptr13drop_in_placeNtNtCslWI3VPFq81_12regex_syntax3ast13ClassSetUnionEBK_
_RINvNtCsiL7B6CFZHyD_4core3ptr13drop_in_placeNtNtCsmm9GeoFTTd_6memchr3cow3ImpEBK_
_RINvNtCsiL7B6CFZHyD_4core3ptr13drop_in_placeNtNtNtB4_3net7ip_addr8Ipv6AddrECsflH2oLbVLAX_11resolv_conf
_RINvNtCsiL7B6CFZHyD_4core3ptr13drop_in_placeNtNtNtB4_3num5error15TryFromIntErrorECsjQAgS81B8HG_7getopts
_RINvNtCsiL7B6CFZHyD_4core3ptr13drop_in_placeNtNtNtB4_3str5error9Utf8ErrorECsgMKgB7mnEUJ_11proc_macro2
_RINvNtCsiL7B6CFZHyD_4core3ptr13drop_in_placeNtNtNtB4_4task4wake5WakerECs7v7Yapv3qqg_13futures_timer
_RINvNtCsiL7B6CFZHyD_4core3ptr13drop_in_placeNtNtNtB4_9core_arch3x867___m128iECsc9MEfsw61gC_12aho_corasick
_RINvNtCsiL7B6CFZHyD_4core3ptr13drop_in_placeNtNtNtCs1DT2mKzNIQv_4jiff2tz9ambiguous14AmbiguousZonedEBM_
_RINvNtCsiL7B6CFZHyD_4core3ptr13drop_in_placeNtNtNtCs1yFw5o97rjX_6thrift9transport3mem9WriteDataEBM_
_RINvNtCsiL7B6CFZHyD_4core3ptr13drop_in_placeNtNtNtCs23yxf7uxwGf_12regex_syntax3hir7literal11ExtractKindEBM_
_RINvNtCsiL7B6CFZHyD_4core3ptr13drop_in_placeNtNtNtCs2GX3rYzX9NP_14regex_automata4meta8wrappers12OnePassCacheEBM_
_RINvNtCsiL7B6CFZHyD_4core3ptr13drop_in_placeNtNtNtCs2GX3rYzX9NP_14regex_automata4util8captures9GroupInfoEBM_
_RINvNtCsiL7B6CFZHyD_4core3ptr13drop_in_placeNtNtNtCs2UqitWCaGEJ_14regex_automata4meta8wrappers23BoundedBacktrackerCacheEBM_
_RINvNtCsiL7B6CFZHyD_4core3ptr13drop_in_placeNtNtNtCs2UqitWCaGEJ_14regex_automata6hybrid5error14BuildErrorKindEBM_
_RINvNtCsiL7B6CFZHyD_4core3ptr13drop_in_placeNtNtNtCs3DfRofSlfnd_4libc4unix10linux_like8sockaddrEBM_
_RINvNtCsiL7B6CFZHyD_4core3ptr13drop_in_placeNtNtNtCs3NZLoJsOov_3std2io5error5ErrorECs2V1jnu7GmYn_4http
_RINvNtCsiL7B6CFZHyD_4core3ptr13drop_in_placeNtNtNtCs3NZLoJsOov_3std2io5error5ErrorECs9HUfXrfHCDU_4rand
_RINvNtCsiL7B6CFZHyD_4core3ptr13drop_in_placeNtNtNtCs3NZLoJsOov_3std2io5error5ErrorECsf48c72s39yb_14regex_automata
_RINvNtCsiL7B6CFZHyD_4core3ptr13drop_in_placeNtNtNtCs3NZLoJsOov_3std2io5error6CustomECs2xTbhAl9gLb_3mio
_RINvNtCsiL7B6CFZHyD_4core3ptr13drop_in_placeNtNtNtCs3NZLoJsOov_3std2io5error6CustomECs9uh8emyyfsF_14regex_automata
_RINvNtCsiL7B6CFZHyD_4core3ptr13drop_in_placeNtNtNtCs3NZLoJsOov_3std2io5error6CustomECsgq42crzOkKS_14parse_zoneinfo
_RINvNtCsiL7B6CFZHyD_4core3ptr13drop_in_placeNtNtNtCs3NZLoJsOov_3std2io5stdio9StdinLockECskt8TpxtZnof_4clap
_RINvNtCsiL7B6CFZHyD_4core3ptr13drop_in_placeNtNtNtCs3NZLoJsOov_3std3net3tcp11TcpListenerECs2e5lBM6agA0_3mio
_RINvNtCsiL7B6CFZHyD_4core3ptr13drop_in_placeNtNtNtCs3NZLoJsOov_3std6thread5local11AccessErrorECs6JGgWY6YaLc_6procfs
_RINvNtCsiL7B6CFZHyD_4core3ptr13drop_in_placeNtNtNtCs3NZLoJsOov_3std6thread5local11AccessErrorECsgkuLB8QpvsT_7dotenvy
_RINvNtCsiL7B6CFZHyD_4core3ptr13drop_in_placeNtNtNtCs4USifnV5z1l_5tokio2io8blocking3BufEBM_
_RINvNtCsiL7B6CFZHyD_4core3ptr13drop_in_placeNtNtNtCs52Ma2mZ51Xc_12tracing_core8callsite11dispatchers9RebuilderEBM_
_RINvNtCsiL7B6CFZHyD_4core3ptr13drop_in_placeNtNtNtCs5TMSIvPP0Fn_5regex8builders6string15RegexSetBuilderEBM_
_RINvNtCsiL7B6CFZHyD_4core3ptr13drop_in_placeNtNtNtCs6vjS8b6gTe9_15crossbeam_utils4sync10wait_group9WaitGroupEBM_
_RINvNtCsiL7B6CFZHyD_4core3ptr13drop_in_placeNtNtNtCs89pdyz7HZkL_12aho_corasick4util6search5InputEBM_
_RINvNtCsiL7B6CFZHyD_4core3ptr13drop_in_placeNtNtNtCs8u8Bt1oxYji_14regex_automata3dfa7onepass7BuilderEBM_
_RINvNtCsiL7B6CFZHyD_4core3ptr13drop_in_placeNtNtNtCs8u8Bt1oxYji_14regex_automata4util6search10MatchErrorEBM_
_RINvNtCsiL7B6CFZHyD_4core3ptr13drop_in_placeNtNtNtCs9uh8emyyfsF_14regex_automata4meta5error14BuildErrorKindECsh7LMuWptdmn_5regex
_RINvNtCsiL7B6CFZHyD_4core3ptr13drop_in_placeNtNtNtCs9uh8emyyfsF_14regex_automata4util8captures8CapturesEBM_
_RINvNtCsiL7B6CFZHyD_4core3ptr13drop_in_placeNtNtNtCsaRhs7vhgYg1_4http6header5value18InvalidHeaderValueEBM_
_RINvNtCsiL7B6CFZHyD_4core3ptr13drop_in_placeNtNtNtCsc9MEfsw61gC_12aho_corasick4util10primitives7StateIDEBM_
_RINvNtCsiL7B6CFZHyD_4core3ptr13drop_in_placeNtNtNtCscmWopf2OJFT_12hdrhistogram13serialization13v2_serializer16V2SerializeErrorEBM_
_RINvNtCsiL7B6CFZHyD_4core3ptr13drop_in_placeNtNtNtCsf48c72s39yb_14regex_automata3nfa3map13Utf8SuffixKeyEBM_
_RINvNtCsiL7B6CFZHyD_4core3ptr13drop_in_placeNtNtNtCsfcZx8z6uiNH_14regex_automata4util8alphabet17ByteClassElementsEBM_
_RINvNtCsiL7B6CFZHyD_4core3ptr13drop_in_placeNtNtNtCsfzEpHuN0CX2_4libc4unix10linux_like11sched_paramEBM_
_RINvNtCsiL7B6CFZHyD_4core3ptr13drop_in_placeNtNtNtCsh1ZAnSc5i7h_4http6header5value18InvalidHeaderValueEBM_
_RINvNtCsiL7B6CFZHyD_4core3ptr13drop_in_placeNtNtNtCshDAon63rG69_10ttf_parser6tables4kern11KerningPairEBM_
_RINvNtCsiL7B6CFZHyD_4core3ptr13drop_in_placeNtNtNtCshfzWP1bsRXe_14regex_automata4meta5regex7BuilderEBM_
_RINvNtCsiL7B6CFZHyD_4core3ptr13drop_in_placeNtNtNtCshgx866xcH9W_5alloc3ffi5c_str7CStringECs3H9oKPe6824_16futures_executor
_RINvNtCsiL7B6CFZHyD_4core3ptr13drop_in_placeNtNtNtCshgx866xcH9W_5alloc3ffi5c_str8NulErrorECs5raREKjOxqT_13futures_timer
_RINvNtCsiL7B6CFZHyD_4core3ptr13drop_in_placeNtNtNtCshgx866xcH9W_5alloc3vec15set_len_on_drop12SetLenOnDropECs6MfJgXaOnUR_11serial_test
_RINvNtCsiL7B6CFZHyD_4core3ptr13drop_in_placeNtNtNtCshgx866xcH9W_5alloc3vec15set_len_on_drop12SetLenOnDropECshpKpake7nJI_12regex_syntax
_RINvNtCsiL7B6CFZHyD_4core3ptr13drop_in_placeNtNtNtCsiMGsmEihaLQ_17crossbeam_channel7flavors5array10ArrayTokenEBM_
_RINvNtCsiL7B6CFZHyD_4core3ptr13drop_in_placeNtNtNtCsk9QERyUqk6O_5tokio4sync9semaphore15SemaphorePermitEBM_
_RINvNtCsiL7B6CFZHyD_4core3ptr13drop_in_placeNtNtNtCskTUq6jwe4oO_4http6header3map9HashValueECs5xbKWwF31JS_7headers
_RINvNtCsiL7B6CFZHyD_4core3ptr13drop_in_placeNtNtNtCsklfhaN9lQFy_12aho_corasick4util9prefilter9PrefilterEBM_
_RINvNtCsiL7B6CFZHyD_4core3ptr13drop_in_placeNtNtNtCslBVC6wF8Bgr_5tokio4sync9semaphore15SemaphorePermitEBM_
_RINvNtCsiL7B6CFZHyD_4core3ptr13drop_in_placeNtNtNtCslshdI1xb6kN_6memchr6memmem8searcher14PrefilterStateEBM_
_RINvNtCsiL7B6CFZHyD_4core3ptr13drop_in_placeNtNtNtNtCs27bTk5Qbyxw_6memchr4arch3all9rabinkarp4HashEBO_
_RINvNtCsiL7B6CFZHyD_4core3ptr13drop_in_placeNtNtNtNtCs2UqitWCaGEJ_14regex_automata3nfa8thompson12literal_trie11LiteralTrieEBO_
_RINvNtCsiL7B6CFZHyD_4core3ptr13drop_in_placeNtNtNtNtCs2e5lBM6agA0_3mio3sys4unix4pipe8ReceiverEBO_
_RINvNtCsiL7B6CFZHyD_4core3ptr13drop_in_placeNtNtNtNtCs3NZLoJsOov_3std10sys_common4once5futex15CompletionGuardECsgMKgB7mnEUJ_11proc_macro2
_RINvNtCsiL7B6CFZHyD_4core3ptr13drop_in_placeNtNtNtNtCs3NZLoJsOov_3std2io5error14repr_bitpacked4ReprECs6oR4gIHhdAD_14event_listener
_RINvNtCsiL7B6CFZHyD_4core3ptr13drop_in_placeNtNtNtNtCs3NZLoJsOov_3std2io5error14repr_bitpacked4ReprECsct93mQCMKYv_14iana_time_zone
_RINvNtCsiL7B6CFZHyD_4core3ptr13drop_in_placeNtNtNtNtCs3NZLoJsOov_3std2io5error14repr_bitpacked4ReprECslAj3ugQP8Tn_10async_task
_RINvNtCsiL7B6CFZHyD_4core3ptr13drop_in_placeNtNtNtNtCs3NZLoJsOov_3std2os2fd5owned7OwnedFdECshLtwNRcj3mz_15find_msvc_tools
_RINvNtCsiL7B6CFZHyD_4core3ptr13drop_in_placeNtNtNtNtCs3NZLoJsOov_3std3sys4unix2fd8FileDescECsgcFSzCu6SVo_15chrono_tz_build
_RINvNtCsiL7B6CFZHyD_4core3ptr13drop_in_placeNtNtNtNtCs3NZLoJsOov_3std3sys4unix2fs4FileECscFcGfZrs1NP_15color_spantrace
_RINvNtCsiL7B6CFZHyD_4core3ptr13drop_in_placeNtNtNtNtCs3NZLoJsOov_3std3sys4unix3net6SocketECsiOHhwSMIjMZ_8async_io
_RINvNtCsiL7B6CFZHyD_4core3ptr13drop_in_placeNtNtNtNtCs3NZLoJsOov_3std3sys4unix6os_str3BufECsjbFYZL0GDcx_8dirs_sys
_RINvNtCsiL7B6CFZHyD_4core3ptr13drop_in_placeNtNtNtNtCs4USifnV5z1l_5tokio3net3tcp11split_owned13OwnedReadHalfEBO_
_RINvNtCsiL7B6CFZHyD_4core3ptr13drop_in_placeNtNtNtNtCs4sdexCj5LDw_11tungstenite8protocol5frame6coding6OpCodeEBO_
_RINvNtCsiL7B6CFZHyD_4core3ptr13drop_in_placeNtNtNtNtCs7nEdhVau9Ex_6memchr4arch3all10packedpair4PairEBO_
_RINvNtCsiL7B6CFZHyD_4core3ptr13drop_in_placeNtNtNtNtCs8u8Bt1oxYji_14regex_automata4util9prefilter12aho_corasick11AhoCorasickEBO_
_RINvNtCsiL7B6CFZHyD_4core3ptr13drop_in_placeNtNtNtNtCs9vszGGFNfUy_18tracing_subscriber6filter3env5field10MatchDebugEBO_
_RINvNtCsiL7B6CFZHyD_4core3ptr13drop_in_placeNtNtNtNtCsc7ZCTqklYdl_4libc4unix10linux_like5linux6fsid_tEBO_
_RINvNtCsiL7B6CFZHyD_4core3ptr13drop_in_placeNtNtNtNtCsfcZx8z6uiNH_14regex_automata3nfa8thompson3nfa3NFAEBO_
_RINvNtCsiL7B6CFZHyD_4core3ptr13drop_in_placeNtNtNtNtCsfuTXiacoSai_15trust_dns_proto2rr5rdata4tlsa4TLSAEBO_
_RINvNtCsiL7B6CFZHyD_4core3ptr13drop_in_placeNtNtNtNtCsg4EaMv70CBa_4libc4unix10linux_like5linux9ff_replayEBO_
_RINvNtCsiL7B6CFZHyD_4core3ptr13drop_in_placeNtNtNtNtCshfzWP1bsRXe_14regex_automata4util9prefilter7byteset7ByteSetEBO_
_RINvNtCsiL7B6CFZHyD_4core3ptr13drop_in_placeNtNtNtNtCsk9QERyUqk6O_5tokio7runtime4task2id2IdEBO_
_RINvNtCsiL7B6CFZHyD_4core3ptr13drop_in_placeNtNtNtNtCskt8TpxtZnof_4clap4args11arg_builder4base4BaseEBO_
_RINvNtCsiL7B6CFZHyD_4core3ptr13drop_in_placeNtNtNtNtCslBVC6wF8Bgr_5tokio7runtime8blocking8shutdown6SenderEBO_
_RINvNtCsiL7B6CFZHyD_4core3ptr13drop_in_placeNtNtNtNtNtCs3DfRofSlfnd_4libc4unix10linux_like5linux3gnu9___timevalEBQ_
_RINvNtCsiL7B6CFZHyD_4core3ptr13drop_in_placeNtNtNtNtNtCs3NZLoJsOov_3std3sys4unix7process14process_common5StdioECsd0ZesFpofmM_7os_info
_RINvNtCsiL7B6CFZHyD_4core3ptr13drop_in_placeNtNtNtNtNtCs8YSfaSHLRYP_4wasi8bindings4wasi7sockets3udp16IncomingDatagramEBQ_
_RINvNtCsiL7B6CFZHyD_4core3ptr13drop_in_placeNtNtNtNtNtCsk9QERyUqk6O_5tokio7runtime9scheduler12multi_thread4park6ParkerEBQ_
_RINvNtCsiL7B6CFZHyD_4core3ptr13drop_in_placeNtNtNtNtNtNtNtCsc4oagjLTc66_4libc4unix10linux_like5linux3gnu3b646x86_6418user_fpregs_structEBU_
_RINvNtCsiL7B6CFZHyD_4core3ptr13drop_in_placeNtNvMNtCs19S8JT9Sa42_12prettyplease3patNtNtBN_9algorithm7Printer12pat_verbatim8PatConstEBN_
_RINvNtCsiL7B6CFZHyD_4core3ptr13drop_in_placeNtNvNtNtNtCs5POHUTZpJRh_3log2kv6source6Source3get3GetEBQ_
_RINvNtCsiL7B6CFZHyD_4core3ptr13drop_in_placeNtNvXs0_NtCsi1qVvTIG17a_8valuable8listableDNtBO_8ListableEL_NtNtB4_3fmt5Debug3fmt13DebugListableEBQ_
_RINvNtCsiL7B6CFZHyD_4core3ptr13drop_in_placeNtNvXs2_NtCsi1qVvTIG17a_8valuable8mappableDNtBO_8MappableEL_NtNtB4_3fmt5Debug3fmt13DebugMappableEBQ_
_RINvNtCsiL7B6CFZHyD_4core3ptr13drop_in_placeNtNvXsb_NtNtCs5TMSIvPP0Fn_5regex5regex6stringNtBO_8CapturesNtNtB4_3fmt5Debug3fmt5ValueEBS_
_RINvNtCsiL7B6CFZHyD_4core3ptr13drop_in_placeNvMs1_Cs5dWRGIcTDwp_4eyreNtBM_14DefaultHandler12default_withEBM_
_RINvNtCsiL7B6CFZHyD_4core3ptr13drop_in_placeONtNtNtCs3DfRofSlfnd_4libc4unix10linux_like8sockaddrEBN_
_RINvNtCsiL7B6CFZHyD_4core3ptr13drop_in_placeONtNtNtNtNtNtNtCsclAvUJFJRY0_4libc4unix10linux_like5linux3gnu3b646x86_6413__libc_fpstateEBV_
_RINvNtCsiL7B6CFZHyD_4core3ptr13drop_in_placeOyECsjLjmMvagjD3_13linux_raw_sys
_RINvNtCsiL7B6CFZHyD_4core3ptr13drop_in_placePhECsiMGsmEihaLQ_17crossbeam_channel
_RINvNtCsiL7B6CFZHyD_4core3ptr13drop_in_placeQINtNvNtNtCs3NZLoJsOov_3std2io5Write9write_fmt7AdapterNtNtBO_4util4SinkEECs7GxYLVecAjK_7asn1_rs
_RINvNtCsiL7B6CFZHyD_4core3ptr13drop_in_placeQINtNvNtNtCs3NZLoJsOov_3std2io5Write9write_fmt7AdapterNtNtNtNtBQ_3sys4unix5stdio6StderrEECsIYQlRCnTdA_4rand
_RINvNtCsiL7B6CFZHyD_4core3ptr13drop_in_placeQINtNvNtNtCs3NZLoJsOov_3std2io5Write9write_fmt7AdapterRNtNtBQ_2fs4FileEECshKX2nQO4Ie9_8tempfile
_RINvNtCsiL7B6CFZHyD_4core3ptr13drop_in_placeQNtNtCshgx866xcH9W_5alloc6string6StringECsedCA7Tpfiji_7asn1_rs
_RINvNtCsiL7B6CFZHyD_4core3ptr13drop_in_placeQNtNtNtNtCs2UqitWCaGEJ_14regex_automata3nfa8thompson8compiler9Utf8StateEBP_
_RINvNtCsiL7B6CFZHyD_4core3ptr13drop_in_placeRAINtNtNtNtCs89pdyz7HZkL_12aho_corasick6packed5teddy7generic4MaskNtNtNtB4_9core_arch3x867___m128iEj3_EBR_
_RINvNtCsiL7B6CFZHyD_4core3ptr13drop_in_placeRANtNtNtNtCsisbKcmZPvGV_4libc4unix10linux_like5linux14ptp_clock_timej3_EBQ_
_RINvNtCsiL7B6CFZHyD_4core3ptr13drop_in_placeRAaj20_ECsg4EaMv70CBa_4libc
_RINvNtCsiL7B6CFZHyD_4core3ptr13drop_in_placeRAdj4_ECs5Q4EiFccXDf_4libc
_RINvNtCsiL7B6CFZHyD_4core3ptr13drop_in_placeRAhj1_ECsjLjmMvagjD3_13linux_raw_sys
_RINvNtCsiL7B6CFZHyD_4core3ptr13drop_in_placeRAhj3_ECsbwwWFvjUPhL_13linux_raw_sys
_RINvNtCsiL7B6CFZHyD_4core3ptr13drop_in_placeRAhj7_ECskiipsQGF2Y8_4libc
_RINvNtCsiL7B6CFZHyD_4core3ptr13drop_in_placeRAlj2_ECs5Q4EiFccXDf_4libc
_RINvNtCsiL7B6CFZHyD_4core3ptr13drop_in_placeRAmj2_ECsfzEpHuN0CX2_4libc
_RINvNtCsiL7B6CFZHyD_4core3ptr13drop_in_placeRAxj3_ECsc7ZCTqklYdl_4libc
_RINvNtCsiL7B6CFZHyD_4core3ptr13drop_in_placeRAyj10_ECs72F25776oGR_13linux_raw_sys
_RINvNtCsiL7B6CFZHyD_4core3ptr13drop_in_placeRAyj7_ECs3DfRofSlfnd_4libc
_RINvNtCsiL7B6CFZHyD_4core3ptr13drop_in_placeRFKCEuECsc4oagjLTc66_4libc
_RINvNtCsiL7B6CFZHyD_4core3ptr13drop_in_placeRFKCPNtNtB4_3ffi6c_voidONtNtCs43bmsDCHG9l_19core_foundation_sys7runloop11___CFRunLoopPNtNtB18_6string10___CFStringEuEB18_
_RINvNtCsiL7B6CFZHyD_4core3ptr13drop_in_placeRFUKCNtCsi6pTmhHIU5M_9clang_sys8CXCursorENtBN_8CXStringEBN_
_RINvNtCsiL7B6CFZHyD_4core3ptr13drop_in_placeRFUKCONtCsi6pTmhHIU5M_9clang_sys22CXPlatformAvailabilityEuEBO_
_RINvNtCsiL7B6CFZHyD_4core3ptr13drop_in_placeRFUKCONtNtB4_3ffi6c_voidlmEuECsi6pTmhHIU5M_9clang_sys
_RINvNtCsiL7B6CFZHyD_4core3ptr13drop_in_placeRFUKCmENtCsi6pTmhHIU5M_9clang_sys8CXStringEBP_
_RINvNtCsiL7B6CFZHyD_4core3ptr13drop_in_placeRINtNtB2_8non_null7NonNullNtNtNtNtCs4USifnV5z1l_5tokio7runtime4time5entry11TimerSharedEEB1e_
_RINvNtCsiL7B6CFZHyD_4core3ptr13drop_in_placeRINtNtB4_6marker11PhantomDataNtNtNtCshDAon63rG69_10ttf_parser3ggg12layout_table7FeatureEEB1f_
_RINvNtCsiL7B6CFZHyD_4core3ptr13drop_in_placeRINtNtB4_6option6OptionFKCEuEECs3DfRofSlfnd_4libc
_RINvNtCsiL7B6CFZHyD_4core3ptr13drop_in_placeRINtNtB4_6option6OptionINtNtB2_8non_null7NonNullNtNtNtNtCsk9QERyUqk6O_5tokio7runtime4task4core6HeaderEEEB1A_
_RINvNtCsiL7B6CFZHyD_4core3ptr13drop_in_placeRINtNtB4_6option6OptionINtNtNtCs3NZLoJsOov_3std4sync5mutex5MutexTIBI_RNtNtCseZiuHO0vNIu_3scc10wait_queue9WaitQueueEIBI_NtNtNtB4_4task4wake5WakerEEEEEB1S_
_RINvNtCsiL7B6CFZHyD_4core3ptr13drop_in_placeRINtNtB4_6option6OptionNtNtCs9ru2DaLwaQK_5yansi9condition9ConditionEEB17_
_RINvNtCsiL7B6CFZHyD_4core3ptr13drop_in_placeRINtNtB4_6option6OptionNtNtNtB4_3num7nonzero12NonZeroUsizeEECs455279n054P_10iri_string
_RINvNtCsiL7B6CFZHyD_4core3ptr13drop_in_placeRINtNtB4_6option6OptionNtNtNtCs455279n054P_10iri_string8template10components11VarListIterEEB19_
_RINvNtCsiL7B6CFZHyD_4core3ptr13drop_in_placeRINtNtB4_6option6OptionNtNtNtCshfzWP1bsRXe_14regex_automata4meta8wrappers9DFAEngineEEB19_
_RINvNtCsiL7B6CFZHyD_4core3ptr13drop_in_placeRINtNtB4_6option6OptionRShEECsjzCn8GLvSXk_19lexical_parse_float
_RINvNtCsiL7B6CFZHyD_4core3ptr13drop_in_placeRINtNtB4_6option6OptionhEECs4USifnV5z1l_5tokio
_RINvNtCsiL7B6CFZHyD_4core3ptr13drop_in_placeRINtNtB4_6option6OptionjEECs8qPlBtFINoP_4glob
_RINvNtCsiL7B6CFZHyD_4core3ptr13drop_in_placeRINtNtB4_6option6OptionjEECsjFZx60EnzF2_8num_cpus
_RINvNtCsiL7B6CFZHyD_4core3ptr13drop_in_placeRINtNtB4_6option6OptionyEECs33TE7WC04bj_5gimli
_RINvNtCsiL7B6CFZHyD_4core3ptr13drop_in_placeRINtNtB4_6result6ResultjNtCs9aJIYchcVbh_13data_encoding11DecodeErrorEEB16_
_RINvNtCsiL7B6CFZHyD_4core3ptr13drop_in_placeRINtNtCs5Q4EiFccXDf_4libc5types7PaddingAyjc_EEBM_
_RINvNtCsiL7B6CFZHyD_4core3ptr13drop_in_placeRINtNtCsf48c72s39yb_14regex_automata9dense_imp13PremultipliedINtNtCshgx866xcH9W_5alloc3vec3VecjEjEECs9vszGGFNfUy_18tracing_subscriber
_RINvNtCsiL7B6CFZHyD_4core3ptr13drop_in_placeRINtNtCshDAon63rG69_10ttf_parser6parser11LazyArray16NtNtNtNtBM_6tables3cff8encoding10SupplementEEBM_
_RINvNtCsiL7B6CFZHyD_4core3ptr13drop_in_placeRINtNtCshgx866xcH9W_5alloc3vec3VecINtNtNtNtCs3NZLoJsOov_3std11collections4hash3map7HashMapNtNtBM_6string6StringB28_EEECskN1Yzg5nTsb_11procfs_core
_RINvNtCsiL7B6CFZHyD_4core3ptr13drop_in_placeRINtNtCshgx866xcH9W_5alloc3vec3VecNtNtCs5Ng0wM7PJ5I_12regex_syntax3ast7CommentEEB1i_
_RINvNtCsiL7B6CFZHyD_4core3ptr13drop_in_placeRINtNtCshgx866xcH9W_5alloc3vec3VecNtNtCskN1Yzg5nTsb_11procfs_core3net8ARPEntryEEB1i_
_RINvNtCsiL7B6CFZHyD_4core3ptr13drop_in_placeRINtNtCshgx866xcH9W_5alloc3vec3VecNtNtNtCsi1PQLdatSvq_11x509_parser10extensions11generalname11GeneralNameEEB1k_
_RINvNtCsiL7B6CFZHyD_4core3ptr13drop_in_placeRINtNtCshgx866xcH9W_5alloc3vec3VecTNtNtNtCs3NZLoJsOov_3std3ffi6os_str8OsStringB1f_EEECshLtwNRcj3mz_15find_msvc_tools
_RINvNtCsiL7B6CFZHyD_4core3ptr13drop_in_placeRINtNtCshgx866xcH9W_5alloc3vec3VechEECs9rvCcTOJGkv_9quick_xml
_RINvNtCsiL7B6CFZHyD_4core3ptr13drop_in_placeRINtNtCshgx866xcH9W_5alloc3vec3VectEECs4Ra6QXC7Q85_10widestring
_RINvNtCsiL7B6CFZHyD_4core3ptr13drop_in_placeRINtNtCshgx866xcH9W_5alloc4sync3ArcNtNtNtCs2UqitWCaGEJ_14regex_automata4util8captures14GroupInfoInnerEEB1l_
_RINvNtCsiL7B6CFZHyD_4core3ptr13drop_in_placeRINtNtCshgx866xcH9W_5alloc5boxed3BoxDNtNtB4_5error5ErrorNtNtB4_6marker4SendNtB1C_4SyncEL_EECs9vszGGFNfUy_18tracing_subscriber
_RINvNtCsiL7B6CFZHyD_4core3ptr13drop_in_placeRINtNtCshgx866xcH9W_5alloc5boxed3BoxNtNtCs5Ng0wM7PJ5I_12regex_syntax3hir3HirEEB1k_
_RINvNtCsiL7B6CFZHyD_4core3ptr13drop_in_placeRINtNtCshgx866xcH9W_5alloc5boxed3BoxNtNtCsjh4mrTFEWVx_12regex_syntax3ast9ClassPerlEEB1k_
_RINvNtCsiL7B6CFZHyD_4core3ptr13drop_in_placeRINtNtCshgx866xcH9W_5alloc5boxed3BoxSIBI_NtNtNtCs3NZLoJsOov_3std3ffi6os_str5OsStrEEECsbPHw0ZMlxUx_2cc
_RINvNtCsiL7B6CFZHyD_4core3ptr13drop_in_placeRINtNtCshgx866xcH9W_5alloc5boxed3BoxeEECsbPHw0ZMlxUx_2cc
_RINvNtCsiL7B6CFZHyD_4core3ptr13drop_in_placeRINtNtCsjLjmMvagjD3_13linux_raw_sys7general22___IncompleteArrayFieldhEEBM_
_RINvNtCsiL7B6CFZHyD_4core3ptr13drop_in_placeRINtNtNtB4_3ops5range5RangejEECs89pdyz7HZkL_12aho_corasick
_RINvNtCsiL7B6CFZHyD_4core3ptr13drop_in_placeRINtNtNtB4_5slice4iter4IterNtNtCshpKpake7nJI_12regex_syntax3hir17ClassUnicodeRangeEEB1b_
_RINvNtCsiL7B6CFZHyD_4core3ptr13drop_in_placeRINtNtNtCs1DT2mKzNIQv_4jiff4util1b14RawBoundsErrorNtBK_10NthWeekdayEEBO_
_RINvNtCsiL7B6CFZHyD_4core3ptr13drop_in_placeRINtNtNtCs1DT2mKzNIQv_4jiff4util6borrow7DumbCowNtNtBO_5zoned5ZonedEEBO_
_RINvNtCsiL7B6CFZHyD_4core3ptr13drop_in_placeRINtNtNtCs3NZLoJsOov_3std4sync5mutex5MutexNtNtNtNtCslBVC6wF8Bgr_5tokio7runtime2io12scheduled_io7WaitersEEB1u_
_RINvNtCsiL7B6CFZHyD_4core3ptr13drop_in_placeRINtNtNtCs8YSfaSHLRYP_4wasi8bindings3__rt8ResourceNtNtNtNtBM_4wasi4http5types15IncomingRequestEEBO_
_RINvNtCsiL7B6CFZHyD_4core3ptr13drop_in_placeRINtNtNtCshgx866xcH9W_5alloc3vec9into_iter8IntoItermEECsIYQlRCnTdA_4rand
_RINvNtCsiL7B6CFZHyD_4core3ptr13drop_in_placeRINtNtNtNtB4_4iter8adapters3map3MapNtCs6t4gltehe4Q_10mime_guess7IterRawFReENtCsktiBBMuWnbs_4mime4MimeEEB1h_
_RINvNtCsiL7B6CFZHyD_4core3ptr13drop_in_placeRINtNtNtNtCs1VYxpr1ArYB_6object4read3elf7segment10ElfSegmentINtNtBQ_3elf12FileHeader32NtNtBQ_6endian10EndiannessEEEBQ_
_RINvNtCsiL7B6CFZHyD_4core3ptr13drop_in_placeRINtNtNtNtCs3NZLoJsOov_3std11collections4hash3map7HashMapNtNtCshgx866xcH9W_5alloc6string6StringB1B_EECskN1Yzg5nTsb_11procfs_core
_RINvNtCsiL7B6CFZHyD_4core3ptr13drop_in_placeRINtNtNtNtCs7nEdhVau9Ex_6memchr4arch7generic10packedpair6FinderNtNtNtB4_9core_arch3x867___m128iEEBQ_
_RINvNtCsiL7B6CFZHyD_4core3ptr13drop_in_placeRINtNtNtNtCsc9MEfsw61gC_12aho_corasick6packed5teddy7generic4SlimNtNtNtB4_9core_arch3x867___m256iKj2_EEBQ_
_RINvNtCsiL7B6CFZHyD_4core3ptr13drop_in_placeRINtNtNtNtCsklfhaN9lQFy_12aho_corasick6packed5teddy7generic3FatNtNtNtB4_9core_arch3x867___m256iKj4_EEBQ_
_RINvNtCsiL7B6CFZHyD_4core3ptr13drop_in_placeRNtCs1nAjV9x5Pde_3log6RecordEBJ_
_RINvNtCsiL7B6CFZHyD_4core3ptr13drop_in_placeRNtCs5a5uyJZDxbc_12unicode_bidi13ParagraphInfoEBJ_
_RINvNtCsiL7B6CFZHyD_4core3ptr13drop_in_placeRNtCs9zsKVhFsf47_7globset14SuffixStrategyEBJ_
_RINvNtCsiL7B6CFZHyD_4core3ptr13drop_in_placeRNtCseTSSeIbmzRG_4slog10FlushErrorEBJ_
_RINvNtCsiL7B6CFZHyD_4core3ptr13drop_in_placeRNtCsjWJmLBcNQXh_8httparse6HeaderEBJ_
_RINvNtCsiL7B6CFZHyD_4core3ptr13drop_in_placeRNtNtB4_4time8DurationECsk9QERyUqk6O_5tokio
_RINvNtCsiL7B6CFZHyD_4core3ptr13drop_in_placeRNtNtCs1cxMKpSN2o4_3syn3lit6LitStrEBL_
_RINvNtCsiL7B6CFZHyD_4core3ptr13drop_in_placeRNtNtCs1cxMKpSN2o4_3syn8lifetime8LifetimeEBL_
_RINvNtCsiL7B6CFZHyD_4core3ptr13drop_in_placeRNtNtCs23yxf7uxwGf_12regex_syntax3hir10RepetitionEBL_
_RINvNtCsiL7B6CFZHyD_4core3ptr13drop_in_placeRNtNtCs302BLY9Avsm_12regex_syntax3ast12ClassUnicodeEBL_
_RINvNtCsiL7B6CFZHyD_4core3ptr13drop_in_placeRNtNtCs39k8jHxWV8Y_3der3tag3TagEBL_
_RINvNtCsiL7B6CFZHyD_4core3ptr13drop_in_placeRNtNtCs3NZLoJsOov_3std4path7PathBufECsbPHw0ZMlxUx_2cc
_RINvNtCsiL7B6CFZHyD_4core3ptr13drop_in_placeRNtNtCs4FLWZ2DuVsd_17raw_window_handle3web15WebWindowHandleEBL_
_RINvNtCsiL7B6CFZHyD_4core3ptr13drop_in_placeRNtNtCs4rHto5i1Wx6_10regex_lite6pikevm15CapturesMatchesEBL_
_RINvNtCsiL7B6CFZHyD_4core3ptr13drop_in_placeRNtNtCs5Ng0wM7PJ5I_12regex_syntax3ast4FlagEBL_
_RINvNtCsiL7B6CFZHyD_4core3ptr13drop_in_placeRNtNtCs6HoTchw45No_4http5error5ErrorEBL_
_RINvNtCsiL7B6CFZHyD_4core3ptr13drop_in_placeRNtNtCs6mVhnudWz0o_4term8terminfo5ErrorEBL_
_RINvNtCsiL7B6CFZHyD_4core3ptr13drop_in_placeRNtNtCs7VDwacPzN0q_6rustix7clockid7ClockIdEBL_
_RINvNtCsiL7B6CFZHyD_4core3ptr13drop_in_placeRNtNtCs9noQX08EQGk_10libloading5error13DlDescriptionEBL_
_RINvNtCsiL7B6CFZHyD_4core3ptr13drop_in_placeRNtNtCsWcctwD8VjY_16parking_lot_core11parking_lot11UnparkTokenEBL_
_RINvNtCsiL7B6CFZHyD_4core3ptr13drop_in_placeRNtNtCsaqWvr6p8cVX_6chrono6format3PadEBL_
_RINvNtCsiL7B6CFZHyD_4core3ptr13drop_in_placeRNtNtCscxJIMuSNCzo_8io_uring3sys11futex_waitvEBL_
_RINvNtCsiL7B6CFZHyD_4core3ptr13drop_in_placeRNtNtCseJ4fYN2mE0W_14parse_zoneinfo4line4ZoneEBL_
_RINvNtCsiL7B6CFZHyD_4core3ptr13drop_in_placeRNtNtCsf48c72s39yb_14regex_automata7classes11ByteClassesEBL_
_RINvNtCsiL7B6CFZHyD_4core3ptr13drop_in_placeRNtNtCsfuTXiacoSai_15trust_dns_proto5error10ProtoErrorECshfZdcOEXVna_18trust_dns_resolver
_RINvNtCsiL7B6CFZHyD_4core3ptr13drop_in_placeRNtNtCsgsIpKNYvolR_4http3uri9ErrorKindEBL_
_RINvNtCsiL7B6CFZHyD_4core3ptr13drop_in_placeRNtNtCshZbRNFauiz1_13linux_raw_sys7general7timevalEBL_
_RINvNtCsiL7B6CFZHyD_4core3ptr13drop_in_placeRNtNtCshgx866xcH9W_5alloc6string6StringECs8fIdzaEorFr_4term
_RINvNtCsiL7B6CFZHyD_4core3ptr13drop_in_placeRNtNtCshgx866xcH9W_5alloc6string6StringECsiTRt6EgJpvM_8fs_extra
_RINvNtCsiL7B6CFZHyD_4core3ptr13drop_in_placeRNtNtCshpKpake7nJI_12regex_syntax3hir17ClassUnicodeRangeEBL_
_RINvNtCsiL7B6CFZHyD_4core3ptr13drop_in_placeRNtNtCsi1qVvTIG17a_8valuable5value5ValueEBL_
_RINvNtCsiL7B6CFZHyD_4core3ptr13drop_in_placeRNtNtCsjDu2qtAHalK_5bytes5bytes5BytesECskTUq6jwe4oO_4http
_RINvNtCsiL7B6CFZHyD_4core3ptr13drop_in_placeRNtNtCsjh4mrTFEWVx_12regex_syntax3hir3HirEBL_
_RINvNtCsiL7B6CFZHyD_4core3ptr13drop_in_placeRNtNtCskN1Yzg5nTsb_11procfs_core6crypto3RngEBL_
_RINvNtCsiL7B6CFZHyD_4core3ptr13drop_in_placeRNtNtCsl3mREbhXjXK_5hyper5error4UserEBL_
_RINvNtCsiL7B6CFZHyD_4core3ptr13drop_in_placeRNtNtCslWI3VPFq81_12regex_syntax5error5ErrorECs8u8Bt1oxYji_14regex_automata
_RINvNtCsiL7B6CFZHyD_4core3ptr13drop_in_placeRNtNtNtB4_3num7nonzero10NonZeroI32ECsjRm39slFFFQ_10tower_http
_RINvNtCsiL7B6CFZHyD_4core3ptr13drop_in_placeRNtNtNtB4_3str5error9Utf8ErrorECs6mVhnudWz0o_4term
_RINvNtCsiL7B6CFZHyD_4core3ptr13drop_in_placeRNtNtNtB4_4task4wake5WakerECscKIDn7oK13w_12futures_task
_RINvNtCsiL7B6CFZHyD_4core3ptr13drop_in_placeRNtNtNtB4_9core_arch3x867___m256iECslshdI1xb6kN_6memchr
_RINvNtCsiL7B6CFZHyD_4core3ptr13drop_in_placeRNtNtNtCs1DT2mKzNIQv_4jiff6shared4tzif18LocalTimeTypeErrorEBN_
_RINvNtCsiL7B6CFZHyD_4core3ptr13drop_in_placeRNtNtNtCs20txnxQ5U84_7bindgen2ir11annotations19FieldVisibilityKindEBN_
_RINvNtCsiL7B6CFZHyD_4core3ptr13drop_in_placeRNtNtNtCs27bTk5Qbyxw_6memchr6memmem8searcher15PrefilterConfigEBN_
_RINvNtCsiL7B6CFZHyD_4core3ptr13drop_in_placeRNtNtNtCs2GX3rYzX9NP_14regex_automata4util6search9MatchKindEBN_
_RINvNtCsiL7B6CFZHyD_4core3ptr13drop_in_placeRNtNtNtCs2UqitWCaGEJ_14regex_automata4util10primitives14SmallIndexIterEBN_
_RINvNtCsiL7B6CFZHyD_4core3ptr13drop_in_placeRNtNtNtCs2e5lBM6agA0_3mio5event6events6EventsEBN_
_RINvNtCsiL7B6CFZHyD_4core3ptr13drop_in_placeRNtNtNtCs3NZLoJsOov_3std2io5error5ErrorECseTSSeIbmzRG_4slog
_RINvNtCsiL7B6CFZHyD_4core3ptr13drop_in_placeRNtNtNtCs3NZLoJsOov_3std4sync4once4OnceECs569bHZPi9m3_7tracing
_RINvNtCsiL7B6CFZHyD_4core3ptr13drop_in_placeRNtNtNtCs5MsBAlmYmSD_4time18format_description8modifier10WeekNumberEBN_
_RINvNtCsiL7B6CFZHyD_4core3ptr13drop_in_placeRNtNtNtCs5xbKWwF31JS_7headers4util9http_date8HttpDateEBN_
_RINvNtCsiL7B6CFZHyD_4core3ptr13drop_in_placeRNtNtNtCs89pdyz7HZkL_12aho_corasick4util10primitives7StateIDEBN_
_RINvNtCsiL7B6CFZHyD_4core3ptr13drop_in_placeRNtNtNtCs8u8Bt1oxYji_14regex_automata4util10primitives11NonMaxUsizeEBN_
_RINvNtCsiL7B6CFZHyD_4core3ptr13drop_in_placeRNtNtNtCs9uh8emyyfsF_14regex_automata4meta5error14RetryFailErrorEBN_
_RINvNtCsiL7B6CFZHyD_4core3ptr13drop_in_placeRNtNtNtCs9uh8emyyfsF_14regex_automata4util9prefilter9PrefilterEBN_
_RINvNtCsiL7B6CFZHyD_4core3ptr13drop_in_placeRNtNtNtCsc9MEfsw61gC_12aho_corasick4util10primitives15SmallIndexErrorEBN_
_RINvNtCsiL7B6CFZHyD_4core3ptr13drop_in_placeRNtNtNtCseiJFhKSjCIQ_4http3uri9authority9AuthorityEBN_
_RINvNtCsiL7B6CFZHyD_4core3ptr13drop_in_placeRNtNtNtCsfcZx8z6uiNH_14regex_automata4util9prefilter9PrefilterEBN_
_RINvNtCsiL7B6CFZHyD_4core3ptr13drop_in_placeRNtNtNtCsh4ySdynPyhh_5gimli4read3cfi7PointerEBN_
_RINvNtCsiL7B6CFZHyD_4core3ptr13drop_in_placeRNtNtNtCshDAon63rG69_10ttf_parser6tables4kerx9Subtable2EBN_
_RINvNtCsiL7B6CFZHyD_4core3ptr13drop_in_placeRNtNtNtCshfzWP1bsRXe_14regex_automata4meta8wrappers18ReverseHybridCacheEBN_
_RINvNtCsiL7B6CFZHyD_4core3ptr13drop_in_placeRNtNtNtCshpKpake7nJI_12regex_syntax3hir9translate17TranslatorBuilderECs9uh8emyyfsF_14regex_automata
_RINvNtCsiL7B6CFZHyD_4core3ptr13drop_in_placeRNtNtNtCsk9QERyUqk6O_5tokio7runtime2io6DriverEBN_
_RINvNtCsiL7B6CFZHyD_4core3ptr13drop_in_placeRNtNtNtCsklfhaN9lQFy_12aho_corasick4util9prefilter14RareByteOffsetEBN_
_RINvNtCsiL7B6CFZHyD_4core3ptr13drop_in_placeRNtNtNtCslWI3VPFq81_12regex_syntax3hir9translate5FlagsEBN_
_RINvNtCsiL7B6CFZHyD_4core3ptr13drop_in_placeRNtNtNtNtCs1R7iZMD39VA_6memchr4arch3all6twoway6TwoWayEBP_
_RINvNtCsiL7B6CFZHyD_4core3ptr13drop_in_placeRNtNtNtNtCs2GX3rYzX9NP_14regex_automata3nfa8thompson9backtrack18BoundedBacktrackerEBP_
_RINvNtCsiL7B6CFZHyD_4core3ptr13drop_in_placeRNtNtNtNtCs3DfRofSlfnd_4libc4unix10linux_like5linux10iw_qualityEBP_
_RINvNtCsiL7B6CFZHyD_4core3ptr13drop_in_placeRNtNtNtNtCs4USifnV5z1l_5tokio7runtime9scheduler14current_thread13CurrentThreadEBP_
_RINvNtCsiL7B6CFZHyD_4core3ptr13drop_in_placeRNtNtNtNtCs89pdyz7HZkL_12aho_corasick6packed5teddy7generic15SlimMaskBuilderEBP_
_RINvNtCsiL7B6CFZHyD_4core3ptr13drop_in_placeRNtNtNtNtCs9uh8emyyfsF_14regex_automata3nfa8thompson7builder5StateEBP_
_RINvNtCsiL7B6CFZHyD_4core3ptr13drop_in_placeRNtNtNtNtCsc7ZCTqklYdl_4libc4unix10linux_like5linux13input_absinfoEBP_
_RINvNtCsiL7B6CFZHyD_4core3ptr13drop_in_placeRNtNtNtNtCsfcZx8z6uiNH_14regex_automata4util9prefilter12aho_corasick11AhoCorasickEBP_
_RINvNtCsiL7B6CFZHyD_4core3ptr13drop_in_placeRNtNtNtNtCsfzEpHuN0CX2_4libc4unix10linux_like5linux14ptp_clock_timeEBP_
_RINvNtCsiL7B6CFZHyD_4core3ptr13drop_in_placeRNtNtNtNtCshfzWP1bsRXe_14regex_automata3nfa8thompson5error14BuildErrorKindEBP_
_RINvNtCsiL7B6CFZHyD_4core3ptr13drop_in_placeRNtNtNtNtCsk6MyMWEfS3B_6memchr4arch3all9rabinkarp9FinderRevEBP_
_RINvNtCsiL7B6CFZHyD_4core3ptr13drop_in_placeRNtNtNtNtCslBVC6wF8Bgr_5tokio3net4unix11split_owned14OwnedWriteHalfEBP_
_RINvNtCsiL7B6CFZHyD_4core3ptr13drop_in_placeRNtNtNtNtNtCs1DT2mKzNIQv_4jiff2tz2db8zoneinfo5inner8DatabaseEBR_
_RINvNtCsiL7B6CFZHyD_4core3ptr13drop_in_placeRNtNtNtNtNtCs8tYJmzWdmkM_3mio3sys4unix5waker7eventfd13WakerInternalEBR_
_RINvNtCsiL7B6CFZHyD_4core3ptr13drop_in_placeRNtNtNtNtNtCsk6MyMWEfS3B_6memchr4arch6x86_644avx26memchr3OneEBR_
_RINvNtCsiL7B6CFZHyD_4core3ptr13drop_in_placeRNtNtNtNtNtNtNtCs5Q4EiFccXDf_4libc4unix10linux_like5linux3gnu3b646x86_6412__libc_xmmregEBV_
_RINvNtCsiL7B6CFZHyD_4core3ptr13drop_in_placeRNtNvNtCskN1Yzg5nTsb_11procfs_core7processs0_1__16InternalBitFlagsEBN_
_RINvNtCsiL7B6CFZHyD_4core3ptr13drop_in_placeRNtNvNtNtCslc5DL33MxoQ_6rustix7process5prctls0_1__16InternalBitFlagsEBP_
_RINvNtCsiL7B6CFZHyD_4core3ptr13drop_in_placeRNtNvNtNtNtCslc5DL33MxoQ_6rustix7backend2fs5typess2_1__16InternalBitFlagsEBR_
_RINvNtCsiL7B6CFZHyD_4core3ptr13drop_in_placeRONtNtB4_3ffi6c_voidECs7adunahxyaw_9backtrace
_RINvNtCsiL7B6CFZHyD_4core3ptr13drop_in_placeRONtNtNtCskiipsQGF2Y8_4libc4unix10linux_like11sock_filterEBO_
_RINvNtCsiL7B6CFZHyD_4core3ptr13drop_in_placeRPaECsisbKcmZPvGV_4libc
_RINvNtCsiL7B6CFZHyD_4core3ptr13drop_in_placeRRNtNtCs5MvAwDec7GY_7tracing4span4SpanEBM_
_RINvNtCsiL7B6CFZHyD_4core3ptr13drop_in_placeRRNtNtNtCs89pdyz7HZkL_12aho_corasick4util9prefilter14RareByteOffsetEBO_
_RINvNtCsiL7B6CFZHyD_4core3ptr13drop_in_placeRRShECs1AXjLQFzg9i_10serde_core
_RINvNtCsiL7B6CFZHyD_4core3ptr13drop_in_placeRRShECsgMh45ZzF4i5_10serde_core
_RINvNtCsiL7B6CFZHyD_4core3ptr13drop_in_placeRReECs4YuQlQH4i4p_11pem_rfc7468
_RINvNtCsiL7B6CFZHyD_4core3ptr13drop_in_placeRReECscgnjS2JYh8q_4glob
_RINvNtCsiL7B6CFZHyD_4core3ptr13drop_in_placeRReECskySff49RU91_10serde_core
_RINvNtCsiL7B6CFZHyD_4core3ptr13drop_in_placeRSNtCsgvVaqjSHDHa_9roxmltree8NodeDataEBK_
_RINvNtCsiL7B6CFZHyD_4core3ptr13drop_in_placeRSNtNtNtNtCshfzWP1bsRXe_14regex_automata3nfa8thompson12literal_trie10TransitionEBQ_
_RINvNtCsiL7B6CFZHyD_4core3ptr13drop_in_placeRShECs6HoTchw45No_4http
_RINvNtCsiL7B6CFZHyD_4core3ptr13drop_in_placeRSjECs9HUfXrfHCDU_4rand
_RINvNtCsiL7B6CFZHyD_4core3ptr13drop_in_placeRTNtNtCshgx866xcH9W_5alloc6string6StringjEECs20txnxQ5U84_7bindgen
_RINvNtCsiL7B6CFZHyD_4core3ptr13drop_in_placeRThjEECs6c37mDEUb8k_12regex_syntax
_RINvNtCsiL7B6CFZHyD_4core3ptr13drop_in_placeRaECsh0BiediDLRc_4libm
_RINvNtCsiL7B6CFZHyD_4core3ptr13drop_in_placeRbECs7VDwacPzN0q_6rustix
_RINvNtCsiL7B6CFZHyD_4core3ptr13drop_in_placeRbECsfwRoeKJwRNm_8textwrap
_RINvNtCsiL7B6CFZHyD_4core3ptr13drop_in_placeRcECs1AXjLQFzg9i_10serde_core
_RINvNtCsiL7B6CFZHyD_4core3ptr13drop_in_placeRcECsiXsvhFpco2o_11serde_value
_RINvNtCsiL7B6CFZHyD_4core3ptr13drop_in_placeReECs20txnxQ5U84_7bindgen
_RINvNtCsiL7B6CFZHyD_4core3ptr13drop_in_placeReECs7UE4XoE3zWn_6memchr
_RINvNtCsiL7B6CFZHyD_4core3ptr13drop_in_placeReECsdY0gPXVp8pd_12tracing_core
_RINvNtCsiL7B6CFZHyD_4core3ptr13drop_in_placeReECskVjRQlyr4A2_6memchr
_RINvNtCsiL7B6CFZHyD_4core3ptr13drop_in_placeRhECs2xgxDYohJXC_19core_foundation_sys
_RINvNtCsiL7B6CFZHyD_4core3ptr13drop_in_placeRhECs8Gr6aEfp4bk_8base64ct
_RINvNtCsiL7B6CFZHyD_4core3ptr13drop_in_placeRhECscvWa6CZoMCA_4futf
_RINvNtCsiL7B6CFZHyD_4core3ptr13drop_in_placeRhECsi1PQLdatSvq_11x509_parser
_RINvNtCsiL7B6CFZHyD_4core3ptr13drop_in_placeRiECs6nC5zDKl8oE_15core_foundation
_RINvNtCsiL7B6CFZHyD_4core3ptr13drop_in_placeRjECs47yWh5JzsU4_7anstyle
_RINvNtCsiL7B6CFZHyD_4core3ptr13drop_in_placeRjECs7UE4XoE3zWn_6memchr
_RINvNtCsiL7B6CFZHyD_4core3ptr13drop_in_placeRjECsaZnXmTp7bSh_7socket2
_RINvNtCsiL7B6CFZHyD_4core3ptr13drop_in_placeRjECsdnx5lfpgmAG_11encoding_rs
_RINvNtCsiL7B6CFZHyD_4core3ptr13drop_in_placeRjECshpKpake7nJI_12regex_syntax
_RINvNtCsiL7B6CFZHyD_4core3ptr13drop_in_placeRjECslC7gfnKsQnz_12futures_core
_RINvNtCsiL7B6CFZHyD_4core3ptr13drop_in_placeRlECsbDRYDg9LxfQ_9getrandom
_RINvNtCsiL7B6CFZHyD_4core3ptr13drop_in_placeRmECs1VYxpr1ArYB_6object
_RINvNtCsiL7B6CFZHyD_4core3ptr13drop_in_placeRmECs7qYhSzmhDpc_11miniz_oxide
_RINvNtCsiL7B6CFZHyD_4core3ptr13drop_in_placeRmECsfcdQbM8XNhc_7asn1_rs
_RINvNtCsiL7B6CFZHyD_4core3ptr13drop_in_placeRmECslWI3VPFq81_12regex_syntax
_RINvNtCsiL7B6CFZHyD_4core3ptr13drop_in_placeRsECsiXsvhFpco2o_11serde_value
_RINvNtCsiL7B6CFZHyD_4core3ptr13drop_in_placeRtECsa1XupUGiia1_9backtrace
_RINvNtCsiL7B6CFZHyD_4core3ptr13drop_in_placeRtECskgFSO94HrKG_10utf16_iter
_RINvNtCsiL7B6CFZHyD_4core3ptr13drop_in_placeRuECs6l1F68vnvNV_8chacha20
_RINvNtCsiL7B6CFZHyD_4core3ptr13drop_in_placeRuECsfybCeZEVfOF_4sha2
_RINvNtCsiL7B6CFZHyD_4core3ptr13drop_in_placeRxECsclAvUJFJRY0_4libc
_RINvNtCsiL7B6CFZHyD_4core3ptr13drop_in_placeRyECs3lnki3C6F2g_5vsimd
_RINvNtCsiL7B6CFZHyD_4core3ptr13drop_in_placeRyECsc2HCojBQwtV_10bigdecimal
_RINvNtCsiL7B6CFZHyD_4core3ptr13drop_in_placeRyECskHiMcTiFAY5_4rand
_RINvNtCsiL7B6CFZHyD_4core3ptr13drop_in_placeSINtNtCs1XKReJ1SRGG_18tracing_subscriber8registry7SpanRefNtNtBK_7sharded8RegistryEEBM_
_RINvNtCsiL7B6CFZHyD_4core3ptr13drop_in_placeSINtNtCshgx866xcH9W_5alloc3vec3VechEECsc9MEfsw61gC_12aho_corasick
_RINvNtCsiL7B6CFZHyD_4core3ptr13drop_in_placeSINtNtNtCs2V1jnu7GmYn_4http6header3map6BucketNtNtBM_5value11HeaderValueEEBO_
_RINvNtCsiL7B6CFZHyD_4core3ptr13drop_in_placeSNtCs73ztbjO6fBx_6ignore5ErrorEBJ_
_RINvNtCsiL7B6CFZHyD_4core3ptr13drop_in_placeSNtNtCs23yxf7uxwGf_12regex_syntax3ast7CommentEBL_
_RINvNtCsiL7B6CFZHyD_4core3ptr13drop_in_placeSNtNtCs7adunahxyaw_9backtrace7capture14BacktraceFrameEBL_
_RINvNtCsiL7B6CFZHyD_4core3ptr13drop_in_placeSNtNtCshgx866xcH9W_5alloc6string6StringECs8fIdzaEorFr_4term
_RINvNtCsiL7B6CFZHyD_4core3ptr13drop_in_placeSNtNtCskMVLhTqFmsi_3syn4attr9AttributeEBL_
_RINvNtCsiL7B6CFZHyD_4core3ptr13drop_in_placeSNtNtNtCs20txnxQ5U84_7bindgen2ir4objc10ObjCMethodEBN_
_RINvNtCsiL7B6CFZHyD_4core3ptr13drop_in_placeSNtNtNtCshgx866xcH9W_5alloc3ffi5c_str7CStringECsd0ZesFpofmM_7os_info
_RINvNtCsiL7B6CFZHyD_4core3ptr13drop_in_placeSNtNtNtNtCs5MsBAlmYmSD_4time18format_description5parse11format_item4ItemEBP_
_RINvNtCsiL7B6CFZHyD_4core3ptr13drop_in_placeSNtNtNtNtNtCs4USifnV5z1l_5tokio7runtime9scheduler12multi_thread6worker6RemoteEBR_
_RINvNtCsiL7B6CFZHyD_4core3ptr13drop_in_placeSTNtNtCskMVLhTqFmsi_3syn4data5FielduEEBM_
_RINvNtCsiL7B6CFZHyD_4core3ptr13drop_in_placeTINtCskuDRryey3wk_13async_channel6SenderuEINtBK_8ReceiveruEEECsdFqYMsaiBHL_21async_global_executor
_RINvNtCsiL7B6CFZHyD_4core3ptr13drop_in_placeTINtNtCshgx866xcH9W_5alloc4sync3ArceEINtNtB4_6option6OptionBH_EEECsbPHw0ZMlxUx_2cc
_RINvNtCsiL7B6CFZHyD_4core3ptr13drop_in_placeTNtCs6Rpbmm5Qxkn_7parking6ParkerNtNtNtB4_4task4wake5WakerINtNtCshgx866xcH9W_5alloc4sync3ArcNtNtNtB4_4sync6atomic10AtomicBoolEEECsiOHhwSMIjMZ_8async_io
_RINvNtCsiL7B6CFZHyD_4core3ptr13drop_in_placeTNtNtCs1cxMKpSN2o4_3syn8generics14TypeParamBoundNtNtBL_5token4PlusEEBL_
_RINvNtCsiL7B6CFZHyD_4core3ptr13drop_in_placeTNtNtCshgx866xcH9W_5alloc6string6StringINtNtBL_3vec3VecNtNtCsgq42crzOkKS_14parse_zoneinfo5table8RuleInfoEEEB1D_
_RINvNtCsiL7B6CFZHyD_4core3ptr13drop_in_placeTNtNtCskMVLhTqFmsi_3syn4data7VariantNtNtBL_5token5CommaEEBL_
_RINvNtCsiL7B6CFZHyD_4core3ptr13drop_in_placeTNtNtNtCs8lFZGbCoHRU_5regex5regex6string5RegexReEECsc7lFno5nv1N_9inflector
_RINvNtCsiL7B6CFZHyD_4core3ptr13drop_in_placeTRShINtNtCshgx866xcH9W_5alloc3vec3VechEEECsfVvzz2Z4PLT_5cexpr
_RINvNtCsiL7B6CFZHyD_4core3ptr13drop_in_placeThhhhEECs8YSfaSHLRYP_4wasi
_RINvNtCsiL7B6CFZHyD_4core3ptr13drop_in_placeaECsc7ZCTqklYdl_4libc
_RINvNtCsiL7B6CFZHyD_4core3ptr13drop_in_placebECs5Ng0wM7PJ5I_12regex_syntax
_RINvNtCsiL7B6CFZHyD_4core3ptr13drop_in_placebECsc76UpEbWLyW_6multer
_RINvNtCsiL7B6CFZHyD_4core3ptr13drop_in_placebECsj00cgAuU9Zj_11signal_hook
_RINvNtCsiL7B6CFZHyD_4core3ptr13drop_in_placedECs52Ma2mZ51Xc_12tracing_core
_RINvNtCsiL7B6CFZHyD_4core3ptr13drop_in_placehECs6c37mDEUb8k_12regex_syntax
_RINvNtCsiL7B6CFZHyD_4core3ptr13drop_in_placehECsfuTXiacoSai_15trust_dns_proto
_RINvNtCsiL7B6CFZHyD_4core3ptr13drop_in_placeiECs3DfRofSlfnd_4libc
_RINvNtCsiL7B6CFZHyD_4core3ptr13drop_in_placejECs3sZDYscQcZY_10rayon_core
_RINvNtCsiL7B6CFZHyD_4core3ptr13drop_in_placejECs8tYJmzWdmkM_3mio
_RINvNtCsiL7B6CFZHyD_4core3ptr13drop_in_placejECsdFqYMsaiBHL_21async_global_executor
_RINvNtCsiL7B6CFZHyD_4core3ptr13drop_in_placejECsivzhrhhJ7Yl_9siphasher
_RINvNtCsiL7B6CFZHyD_4core3ptr13drop_in_placelECs6JGgWY6YaLc_6procfs
_RINvNtCsiL7B6CFZHyD_4core3ptr13drop_in_placemECs1R7iZMD39VA_6memchr
_RINvNtCsiL7B6CFZHyD_4core3ptr13drop_in_placemECsa1XupUGiia1_9backtrace
_RINvNtCsiL7B6CFZHyD_4core3ptr13drop_in_placemECshZbRNFauiz1_13linux_raw_sys
_RINvNtCsiL7B6CFZHyD_4core3ptr13drop_in_placeoECsC7QMccVbR7_12tracing_core
_RINvNtCsiL7B6CFZHyD_4core3ptr13drop_in_placetECsaDiY1PgCXQX_7socket2
_RINvNtCsiL7B6CFZHyD_4core3ptr13drop_in_placeuECseTSSeIbmzRG_4slog
_RINvNtCsiL7B6CFZHyD_4core3ptr13drop_in_placeyECs1DT2mKzNIQv_4jiff
_RINvNtCsiL7B6CFZHyD_4core3ptr13drop_in_placeyECsc76UpEbWLyW_6multer
_RINvNtCsiL7B6CFZHyD_4core3ptr13drop_in_placezECs20txnxQ5U84_7bindgen
_RINvNtCsiL7B6CFZHyD_4core3ptr14write_volatileNtNtNtB4_3num7nonzero10NonZeroU32ECsjxVGLKBkYdt_7zeroize
_RINvNtCsiL7B6CFZHyD_4core3ptr19swap_nonoverlappingINtNtB4_6option6OptionINtNtCshgx866xcH9W_5alloc5boxed3BoxDNtCsd5OiiQZmzhE_10threadpool5FnBoxNtNtB4_6marker4SendEL_EEEB1K_
_RINvNtCsiL7B6CFZHyD_4core3ptr19swap_nonoverlappingINtNtCshK2h5RPyNs1_9hashbrown3raw13RawTableInnerNtNtCshgx866xcH9W_5alloc5alloc6GlobalEECsi6pTmhHIU5M_9clang_sys
_RINvNtCsiL7B6CFZHyD_4core3ptr19swap_nonoverlappingNtNtCs302BLY9Avsm_12regex_syntax3hir15ClassBytesRangeEBQ_
_RINvNtCsiL7B6CFZHyD_4core3ptr19swap_nonoverlappingNtNtNtCs20txnxQ5U84_7bindgen2ir7context6ItemIdEBS_
_RINvNtCsiL7B6CFZHyD_4core3ptr19swap_nonoverlappingTNtNtCsh4ySdynPyhh_5gimli6common15DebugInfoOffsetNtBP_18DebugArangesOffsetEECs7adunahxyaw_9backtrace
_RINvNtCsiL7B6CFZHyD_4core3ptr19swap_nonoverlappinghECsdJUMyDMcOD8_6strsim
_RINvNtCsiL7B6CFZHyD_4core3ptr34swap_nonoverlapping_simple_untypedINtCs50cAaw8GDhY_4diff6ResultcEEB14_
_RINvNtCsiL7B6CFZHyD_4core3ptr34swap_nonoverlapping_simple_untypedINtNtCshK2h5RPyNs1_9hashbrown3raw13RawTableInnerNtNtCshgx866xcH9W_5alloc5alloc6GlobalEECseJ4fYN2mE0W_14parse_zoneinfo
_RINvNtCsiL7B6CFZHyD_4core3ptr34swap_nonoverlapping_simple_untypedNtNtCs16toIqv7aHG_10num_bigint7biguint7BigUintEB15_
_RINvNtCsiL7B6CFZHyD_4core3ptr34swap_nonoverlapping_simple_untypedNtNtCsjh4mrTFEWVx_12regex_syntax3hir17ClassUnicodeRangeEB15_
_RINvNtCsiL7B6CFZHyD_4core3ptr34swap_nonoverlapping_simple_untypedNtNtNtNtCsa1XupUGiia1_9backtrace9symbolize5gimli3elf9ParsedSymEB19_
_RINvNtCsiL7B6CFZHyD_4core3ptr34swap_nonoverlapping_simple_untypedhECs4XYJ9wD4cAC_13language_tags
_RINvNtCsiL7B6CFZHyD_4core3ptr34swap_nonoverlapping_simple_untypedhECsgq42crzOkKS_14parse_zoneinfo
_RINvNtCsiL7B6CFZHyD_4core3ptr34swap_nonoverlapping_simple_untypedjECs5Ng0wM7PJ5I_12regex_syntax
_RINvNtCsiL7B6CFZHyD_4core3ptr34swap_nonoverlapping_simple_untypedjECsh0qnI37SO6t_7similar
_RINvNtCsiL7B6CFZHyD_4core3ptr4readINtNtCshgx866xcH9W_5alloc5boxed3BoxNCINvMNtCs3GpQl59W6pW_15crossbeam_epoch5guardNtB1b_5Guard15defer_uncheckedNCINvB1a_13defer_destroyNtNtB1d_8internal5LocalE0INtNtB1d_6atomic5OwnedB2F_EE0EEB1d_
_RINvNtCsiL7B6CFZHyD_4core3ptr4readNtNtCsh7umdSYiYjh_5bytes9bytes_mut8BytesMutEBA_
_RINvNtCsiL7B6CFZHyD_4core3ptr5writeINtNtCshgx866xcH9W_5alloc5boxed3BoxNCINvMNtCsiatNQm0sLz8_15crossbeam_epoch5guardNtB1c_5Guard15defer_uncheckedNCINvB1b_13defer_destroyNtNtB1e_8internal5LocalE0INtNtB1e_6atomic5OwnedB2G_EE0EEB1e_
_RINvNtCsiL7B6CFZHyD_4core3ptr5writehECs4sdexCj5LDw_11tungstenite
_RINvNtCsiL7B6CFZHyD_4core5array11try_from_fnINtNtNtB4_3ops9try_trait17NeverShortCircuitINtNtNtNtCsc9MEfsw61gC_12aho_corasick6packed5teddy7generic4MaskNtNtNtB4_9core_arch3x867___m256iEEKj1_NCINvNvB2_25try_from_trusted_iterator4nextBG_INtNtNtNtB4_4iter8adapters3map3MapINtNtB2_5drain5DrainNtB1q_14FatMaskBuilderENCINvMBJ_BG_10wrap_mut_1B4B_NCINvMsf_B1q_B4B_10from_teddyKB2X_B2o_E0E0EE0EB1w_
_RINvNtCsiL7B6CFZHyD_4core5array18try_from_fn_erasedINtNtNtNtCsklfhaN9lQFy_12aho_corasick6packed5teddy7generic4MaskNtNtNtB4_9core_arch3x867___m128iEINtNtNtB4_3ops9try_trait17NeverShortCircuitBN_ENCINvNvB2_25try_from_trusted_iterator4nextB2l_INtNtNtNtB4_4iter8adapters3map3MapINtNtB2_5drain5DrainNtBQ_15SlimMaskBuilderENCINvMB2o_B2l_10wrap_mut_1B4I_NCINvMsd_BQ_B4I_10from_teddyKj2_B1O_E0E0EE0EBW_
_RINvNtCsiL7B6CFZHyD_4core5array25try_from_trusted_iteratorINtNtNtNtCsklfhaN9lQFy_12aho_corasick6packed5teddy7generic4MaskNtNtNtB4_9core_arch3x867___m256iEINtNtNtB4_3ops9try_trait17NeverShortCircuitBU_EKj4_INtNtNtNtB4_4iter8adapters3map3MapINtNtB2_5drain5DrainNtBX_15SlimMaskBuilderENCINvMB2v_B2s_10wrap_mut_1B49_NCINvMsd_BX_B49_10from_teddyKB3e_B1V_E0E0EEB13_
_RINvNtCsiL7B6CFZHyD_4core9panicking13assert_failedINtNtB4_6option6OptionINtNtNtB4_3ptr8non_null7NonNullNtNtNtNtCsk9QERyUqk6O_5tokio7runtime4time5entry11TimerSharedEEBM_EB1L_
_RINvNtCsiL7B6CFZHyD_4core9panicking13assert_failedINtNtB4_6option6OptionjEBM_ECs91GDN4qvfiu_7similar
_RINvNtCsiL7B6CFZHyD_4core9panicking13assert_failedINtNtB4_6option6OptionjEBM_ECslBVC6wF8Bgr_5tokio
_RINvNtCsiL7B6CFZHyD_4core9panicking13assert_failedNtNtNtCsc9MEfsw61gC_12aho_corasick4util10primitives7StateIDBM_EBS_
_RINvNtCsiL7B6CFZHyD_4core9panicking13assert_failedhhECs1FXadDcHq25_17crossbeam_channel
_RINvNtCsiL7B6CFZHyD_4core9panicking13assert_failedjjECs1oKInJdj4Yg_12futures_core
_RINvNtCsiL7B6CFZHyD_4core9panicking13assert_failedjjECsaDiY1PgCXQX_7socket2
_RINvNtCsiL7B6CFZHyD_4core9panicking13assert_failedjjECsjh4mrTFEWVx_12regex_syntax
_RINvNtCsiL7B6CFZHyD_4core9panicking13assert_failedllECsjN36mo7t0K8_16parking_lot_core
_RINvNtCsiL7B6CFZHyD_4core9panicking13assert_failedyyECs9V7caStxCCq_9arbitrary
_RINvNtCsiL7B6CFZHyD_4core9panicking19unreachable_displayReECs6HoTchw45No_4http
_RINvNtCsiatNQm0sLz8_15crossbeam_epoch7default11with_handleNCNvB2_9is_pinned0bECs3sZDYscQcZY_10rayon_core
_RINvNtCsj4OnrmWjBOa_4eyre5error17context_drop_restReNtCscFcGfZrs1NP_15color_spantrace17InstallThemeErrorECs9FARr6NRyzd_10color_eyre
_RINvNtCsjoGxOb29wVB_10num_bigint7biguint8fixpointNCNvXsf_B2_NtB2_7BigUintNtNtCs3SqZR6f63iz_11num_integer5roots5Roots4cbrt0EB4_
_RINvNtCskhY8URxp2l8_3nom10combinator3cutRShBC_INtNtB4_5error5ErrorBC_EINvNtNtB4_9character8complete6digit1BC_BI_EECscmWopf2OJFT_12hdrhistogram
_RINvNtCskt8TpxtZnof_4clap11suggestions25did_you_mean_value_suffixReINtNtNtCsiL7B6CFZHyD_4core5slice4iter4IterB11_EEB4_
_RINvNtCslAj3ugQP8Tn_10async_task5utils14abort_on_panicNCINvMs3_Cs7cHv9uWQ5Bd_14async_executorNtBZ_8Executor11spawn_inneruINtNtNtCshFvNZPQTJhs_9async_std4task7builder17SupportTaskLocalsINtNtB4_4task4TaskuEEE0NCINvMs1_NtB4_3rawINtB3s_7RawTaskBQ_uNCNvBV_8schedule0uE8allocateNCBS_s_0E0EB22_
_RINvNtCslAj3ugQP8Tn_10async_task5utils14abort_on_panicuNCNvMs1_NtB4_3rawINtBZ_7RawTaskINtNtCsiL7B6CFZHyD_4core3pin3PinINtNtCshgx866xcH9W_5alloc5boxed3BoxNCINvCskFZxpbhaWoe_8blocking7unblockNtNtNtCshFvNZPQTJhs_9async_std2io6stdout5StateNCNvXB33_NtB33_6StdoutNtNtCslG5yY4CbCNy_10futures_io6if_std10AsyncWrite10poll_write0E0EEB31_NCINvMs_B2w_NtB2w_8Executor5spawnB31_B2r_Es_0uE3run0EB37_
_RINvNtCslAj3ugQP8Tn_10async_task5utils14abort_on_panicuNCNvMs1_NtB4_3rawINtBZ_7RawTaskINtNtCsiL7B6CFZHyD_4core3pin3PinINtNtCshgx866xcH9W_5alloc5boxed3BoxNCINvMs3_Cs7cHv9uWQ5Bd_14async_executorNtB2A_8Executor11spawn_innerNtNtNtCshFvNZPQTJhs_9async_std2io6stdout5StateINtNtNtB3C_4task7builder17SupportTaskLocalsINtNtB4_4task4TaskB3w_EEE0EEB3w_NCNvB2w_8schedule0uE3runs1_0EB3C_
_RINvNtCslAj3ugQP8Tn_10async_task5utils14abort_on_panicuNCNvMs1_NtB4_3rawINtBZ_7RawTaskNCINvCskFZxpbhaWoe_8blocking7unblockNtNtNtCshFvNZPQTJhs_9async_std2io6stderr5StateNCNvXB1Y_NtB1Y_6StderrNtNtCslG5yY4CbCNy_10futures_io6if_std10AsyncWrite10poll_write0E0B1W_NCINvMs_B1r_NtB1r_8Executor5spawnB1W_B1m_Es_0uE7destroy0EB22_
_RINvNtCslAj3ugQP8Tn_10async_task5utils14abort_on_panicuNCNvMs1_NtB4_3rawINtBZ_7RawTaskNCINvMs3_Cs7cHv9uWQ5Bd_14async_executorNtB1v_8Executor11spawn_innerNtNtNtCshFvNZPQTJhs_9async_std2io6stderr5StateINtNtNtB2x_4task7builder17SupportTaskLocalsINtNtB4_4task4TaskB2r_EEE0B2r_NCNvB1r_8schedule0uE3run0EB2x_
_RINvNtCslAj3ugQP8Tn_10async_task5utils14abort_on_panicuNCNvXNvMs1_NtB4_3rawINtB12_7RawTaskppppE3runINtBW_5GuardINtNtCsiL7B6CFZHyD_4core3pin3PinINtNtCshgx866xcH9W_5alloc5boxed3BoxNCINvCskFZxpbhaWoe_8blocking7unblockuNCNvMsi_NtNtCshFvNZPQTJhs_9async_std2fs4fileINtB3z_9LockGuardNtB3z_5StateE9poll_read0E0EEuNCINvMs_B2V_NtB2V_8Executor5spawnuB2Q_Es_0uENtNtNtB1Q_3ops4drop4Drop4drops_0EB3D_
_RINvNtCslAj3ugQP8Tn_10async_task5utils14abort_on_panicuNCNvXNvMs1_NtB4_3rawINtB12_7RawTaskppppE3runINtBW_5GuardNCINvMs3_Cs7cHv9uWQ5Bd_14async_executorNtB1U_8Executor11spawn_inneruINtNtNtCshFvNZPQTJhs_9async_std4task7builder17SupportTaskLocalsINtNtB4_4task4TaskuEEE0uNCNvB1Q_8schedule0uENtNtNtCsiL7B6CFZHyD_4core3ops4drop4Drop4drops_0EB2Y_
_RINvNtCslc5DL33MxoQ_6rustix5utils6as_ptrNtNtCsjLjmMvagjD3_13linux_raw_sys7general14linux_dirent64EB4_
_RINvNtCsllH4vwFjV4S_19brotli_decompressor6decode16DecodeContextMapINtNtCskiuEwMy1gmd_15alloc_no_stdlib15stack_allocator14StackAllocatorhINtB4_7MemPoolhEEIB13_mIB2b_mEEIB13_NtNtB4_7huffman11HuffmanCodeIB2b_B2K_EEEB4_
_RINvNtCslnE2OPpS4bI_11num_integer5roots4bitshEB4_
_RINvNtCsluXzlTA79Jh_11num_integer5roots8fixpointmNCNvNvXs6_B2_mNtB2_5Roots4sqrt2go0EB4_
_RINvNtCsoKynq7mBqg_4idna8punycode11encode_intoINtNtNtNtCsiL7B6CFZHyD_4core4iter8adapters6copied6CopiedINtNtNtBR_5slice4iter4ItercEEEB4_
_RINvNtNtCs1TZKTXEUxk4_5rayon4iter5empty5emptylEB6_
_RINvNtNtCs1cxMKpSN2o4_3syn3gen9visit_mut15visit_macro_mutNtNtNtNtCs20txnxQ5U84_7bindgen7codegen14postprocessing17sort_semantically7VisitorEB11_
_RINvNtNtCs1cxMKpSN2o4_3syn3gen9visit_mut18visit_pat_type_mutNtNtNtNtCs20txnxQ5U84_7bindgen7codegen14postprocessing17sort_semantically7VisitorEB14_
_RINvNtNtCs1cxMKpSN2o4_3syn3gen9visit_mut19visit_signature_mutNtNtNtNtCs20txnxQ5U84_7bindgen7codegen14postprocessing17sort_semantically7VisitorEB15_
_RINvNtNtCs1cxMKpSN2o4_3syn3gen9visit_mut20visit_item_macro_mutNtNtNtNtCs20txnxQ5U84_7bindgen7codegen14postprocessing17sort_semantically7VisitorEB16_
_RINvNtNtCs1cxMKpSN2o4_3syn3gen9visit_mut21visit_expr_struct_mutNtNtNtNtCs20txnxQ5U84_7bindgen7codegen14postprocessing17sort_semantically7VisitorEB17_
_RINvNtNtCs1cxMKpSN2o4_3syn3gen9visit_mut24visit_expr_try_block_mutNtNtNtNtCs20txnxQ5U84_7bindgen7codegen14postprocessing17sort_semantically7VisitorEB1a_
_RINvNtNtCs1cxMKpSN2o4_3syn3gen9visit_mut26visit_trait_item_macro_mutNtNtNtNtCs20txnxQ5U84_7bindgen7codegen14postprocessing17sort_semantically7VisitorEB1c_
_RINvNtNtCs20txnxQ5U84_7bindgen2ir8analysis7analyzeNtNtB2_6derive12CannotDeriveEB6_
_RINvNtNtCs2FIVCi1Wrow_3std3sys12thread_local20abort_on_dtor_unwindNCINvNtNtB2_6native4lazy7destroyNtNtCslAsTBdF7oRw_16parking_lot_core11parking_lot10ThreadDataE0EB1C_
_RINvNtNtCs2FIVCi1Wrow_3std4sync6poison10map_resultNtB2_5GuardINtNtB4_5mutex10MutexGuardINtNtCsaz9ix1H7t6h_5alloc3vec3VecRDNtNtCshD5YnGfk4Ix_12tracing_core8callsite8CallsiteEL_EENCNvMs9_B10_BX_3new0EB20_
_RINvNtNtCs2FIVCi1Wrow_3std4sync6poison10map_resultNtB2_5GuardINtNtB4_6rwlock16RwLockWriteGuardINtNtNtNtB6_11collections4hash3map7HashMapINtNtCsaz9ix1H7t6h_5alloc5boxed3BoxeEINtNtB2f_4sync3ArceEEENCNvMse_B10_BX_3new0ECskmFptwX7bJS_2cc
_RINvNtNtCs2UqitWCaGEJ_14regex_automata4util5empty15skip_splits_fwdNtNtB4_6search9HalfMatchNCNvMs_NtNtB6_6hybrid3dfaNtB1x_3DFA14try_search_fwd0EB6_
_RINvNtNtCs2WU2hRDnNVz_5tokio7runtime7context6budgetNtNvNtNtB6_4task4coop11with_budget10ResetGuardNCIBP_INtNtNtCs5cYH0lLSdLc_4core4task4poll4PollINtNtB1K_6result6ResultuNtNtNtNtB6_4sync7oneshot5error9RecvErrorEENCINvMs2_NtB4_4parkNtB3v_16CachedParkThread8block_onQINtB2K_8ReceiveruEE0E0EB6_
_RINvNtNtCs302BLY9Avsm_12regex_syntax3hir7literal27repeat_one_or_more_literalsNvB2_8suffixesEB6_
_RINvNtNtCs3NZLoJsOov_3std10sys_common9backtrace26___rust_end_short_backtraceNCINvNtB6_9panicking11begin_panicReE0zECs6skbDnPfptg_10der_parser
_RINvNtNtCs3NZLoJsOov_3std10sys_common9backtrace28___rust_begin_short_backtraceNCNvCsbudUTgWQKts_10threadpool13spawn_in_pool0uEB1i_
_RINvNtNtCs3NZLoJsOov_3std2io6cursor19vec_write_uncheckedNtNtCshgx866xcH9W_5alloc5alloc6GlobalECsk9QERyUqk6O_5tokio
_RINvNtNtCs3NZLoJsOov_3std4sync5mutex12guard_poisonINtNtNtCshgx866xcH9W_5alloc11collections9vec_deque8VecDequeINtNtBT_5boxed3BoxDINtNtNtCsiL7B6CFZHyD_4core3ops8function5FnMutuEp6OutputuNtNtB29_6marker4SendEL_EEECsaGnL1G5hXQS_9tiny_http
_RINvNtNtCs3NZLoJsOov_3std4sync6poison10map_resultNtB2_5GuardINtNtB4_5mutex10MutexGuardINtNtCshgx866xcH9W_5alloc3vec3VecRDNtNtCs52Ma2mZ51Xc_12tracing_core8callsite8CallsiteEL_EENCNvMs7_BZ_BW_3new0EB1Z_
_RINvNtNtCs3NZLoJsOov_3std4sync6poison10map_resultNtB2_5GuardINtNtB4_5mutex10MutexGuardNtNtCs28jDdmsL6FU_12thread_local9thread_id15ThreadIdManagerENCNvMs7_BZ_BW_3new0EB1q_
_RINvNtNtCs3NZLoJsOov_3std4sync6poison10map_resultNtB2_5GuardINtNtB4_5mutex10MutexGuardNtNtNtNtNtCs4USifnV5z1l_5tokio7runtime9scheduler12multi_thread6worker6SyncedENCNvMs7_BZ_BW_3new0EB1w_
_RINvNtNtCs3NZLoJsOov_3std4sync6poison10map_resultNtB2_5GuardINtNtB4_6rwlock16RwLockWriteGuardNtNtNtNtNtCs1DT2mKzNIQv_4jiff2tz2db12concatenated5inner11CachedZonesENCNvMsa_BZ_BW_3new0EB1D_
_RINvNtNtCs455279n054P_10iri_string6parser3str13satisfy_charsNvNtB4_4char19is_ascii_frag_queryINvBY_17is_nonascii_queryNtNtB6_4spec7IriSpecEEB6_
_RINvNtNtCs4EMmDgM0Qf0_3syn3gen5visit10visit_spanNtNvCscpgdAsQ0t7q_12synstructure13get_ty_params16BoundTypeLocatorEBO_
_RINvNtNtCs4EMmDgM0Qf0_3syn3gen5visit20visit_lifetime_paramNtNvCscpgdAsQ0t7q_12synstructure13get_ty_params16BoundTypeLocatorEBY_
_RINvNtNtCs4USifnV5z1l_5tokio4util5trace13blocking_taskNCNvXs_NtNtB6_2io8blockingINtBX_8BlockingNtNtNtCs3NZLoJsOov_3std2io5stdio6StderrENtNtBZ_11async_write10AsyncWrite10poll_write0INtNtNtNtB6_7runtime8blocking4task12BlockingTaskBQ_EEB6_
_RINvNtNtCs4USifnV5z1l_5tokio7runtime7context6budgetbNCNvNtB4_4coop20has_budget_remaining0EB6_
_RINvNtNtCs5MsBAlmYmSD_4time7parsing10combinator13n_to_m_digitsKh2_KBZ_mEB6_
_RINvNtNtCs5MsBAlmYmSD_4time7parsing10combinator6n_to_mKh3_KBR_hNvB2_9any_digitEB6_
_RINvNtNtCs5cYH0lLSdLc_4core3str11validations15next_code_pointINtNtNtB6_5slice4iter4IterhEECs9Ug1D98bBgm_10num_traits
_RINvNtNtCs5cYH0lLSdLc_4core3str11validations23next_code_point_reverseINtNtNtB6_5slice4iter4IterhEECslN86gTjml9v_18tracing_subscriber
_RINvNtNtCs5cYH0lLSdLc_4core4sync6atomic11atomic_loadhECs2UoghT3JoIu_9termcolor
_RINvNtNtCs5cYH0lLSdLc_4core4sync6atomic11atomic_loadjECs9cchDdOrCq_9crc32fast
_RINvNtNtCs5cYH0lLSdLc_4core4sync6atomic11atomic_loadmECskmFptwX7bJS_2cc
_RINvNtNtCs5cYH0lLSdLc_4core4sync6atomic12atomic_storehECsbQWyLdwLkii_5tokio
_RINvNtNtCs5cYH0lLSdLc_4core4sync6atomic12atomic_storeyECs2WU2hRDnNVz_5tokio
_RINvNtNtCs5cYH0lLSdLc_4core4sync6atomic23atomic_compare_exchangejECsdnoBS5ZrN31_5bytes
_RINvNtNtCs5cYH0lLSdLc_4core4sync6atomic28atomic_compare_exchange_weakjECsX8tozTrT9W_12futures_util
_RINvNtNtCs5cYH0lLSdLc_4core5array5drain16drain_array_withNtNtNtNtCsdTuBsJ9FlQ2_12aho_corasick6packed5teddy7generic14FatMaskBuilderINtNtNtB6_3ops9try_trait17NeverShortCircuitAINtBV_4MaskNtNtNtB6_9core_arch3x867___m256iEj3_EKB3u_NCINvMsl_B4_ABT_B3u_7try_mapIB25_B2M_ENCINvMB27_B45_10wrap_mut_1BT_NCINvMsf_BV_BT_10from_teddyKB3u_B2X_E0E0E0EB11_
_RINvNtNtCs5cYH0lLSdLc_4core5slice3raw14from_raw_partsbECsbgyCs3cvOro_7zerovec
_RINvNtNtCs5cYH0lLSdLc_4core5slice3raw18from_raw_parts_mutcECsaMSDOvq7TeD_4idna
_RINvNtNtCs5cYH0lLSdLc_4core5slice5index5rangeNtNtNtB6_3ops5range9RangeFullECs2X71yuh7ehP_12regex_syntax
_RINvNtNtCs6nv0K25L1YS_14regex_automata3dfa9automaton19fmt_state_indicatorRINtNtB4_5dense3DFAINtNtCsaz9ix1H7t6h_5alloc3vec3VecmEEEB6_
_RINvNtNtCs7VDwacPzN0q_6rustix2fs2at6openatRNtNtCs3NZLoJsOov_3std4path4PathNtNtNtNtBJ_2os2fd5owned10BorrowedFdECs6JGgWY6YaLc_6procfs
_RINvNtNtCs7VDwacPzN0q_6rustix7backend4conv6c_uintNtNtB4_3reg2A3EB6_
_RINvNtNtCs8YSfaSHLRYP_4wasi8bindings3__rt25invalid_enum_discriminantINtNtCsiL7B6CFZHyD_4core6option6OptionNtNtCshgx866xcH9W_5alloc6string6StringEEB6_
_RINvNtNtCs8YSfaSHLRYP_4wasi8bindings3__rt25invalid_enum_discriminantINtNtCsiL7B6CFZHyD_4core6result6ResultuNtNtNtNtB4_4wasi2io7streams11StreamErrorEEB6_
_RINvNtNtCs8u8Bt1oxYji_14regex_automata4util9prefilter8prefixesRNtNtCslWI3VPFq81_12regex_syntax3hir3HirEB6_
_RINvNtNtCs91GDN4qvfiu_7similar10algorithms5utils17common_prefix_lenINtNtCshgx866xcH9W_5alloc3vec3VecINtB2_10UniqueItemINtB2_12OffsetLookupmEEEB13_EB6_
_RINvNtNtCs9aEvtLHT9Ss_6rustix4path3arg10with_c_struNCINvNtNtB6_2fs2at13renameat_withRNtNtCs3NZLoJsOov_3std4path4PathB1k_NtNtNtNtB1p_2os2fd5owned10BorrowedFdB1U_E0ECsa94rZrxPy6K_8tempfile
_RINvNtNtCs9noQX08EQGk_10libloading2os4unix12with_dlerrorINtB2_6SymbolINtNtCsiL7B6CFZHyD_4core6option6OptionFUKCEuEENCINvMs0_B2_NtB2_7Library8get_implB15_NCINvB1U_18get_singlethreadedB15_E0E0NtNtB6_5error5ErrorECsi6pTmhHIU5M_9clang_sys
_RINvNtNtCs9noQX08EQGk_10libloading2os4unix12with_dlerrorINtB2_6SymbolINtNtCsiL7B6CFZHyD_4core6option6OptionFUKCNtCsi6pTmhHIU5M_9clang_sys8CXIdxLocENtB1N_16CXSourceLocationEENCINvMs0_B2_NtB2_7Library8get_implB15_NCINvB2Q_18get_singlethreadedB15_E0E0NtNtB6_5error5ErrorEB1N_
_RINvNtNtCs9noQX08EQGk_10libloading2os4unix12with_dlerrorINtB2_6SymbolINtNtCsiL7B6CFZHyD_4core6option6OptionFUKCONtNtB1a_3ffi6c_voidNtCsi6pTmhHIU5M_9clang_sys16CXSourceLocationENtB27_8CXCursorEENCINvMs0_B2_NtB2_7Library8get_implB15_NCINvB3a_18get_singlethreadedB15_E0E0NtNtB6_5error5ErrorEB27_
_RINvNtNtCs9noQX08EQGk_10libloading2os4unix12with_dlerrorINtB2_6SymbolINtNtCsiL7B6CFZHyD_4core6option6OptionFUKClEPaEENCINvMs0_B2_NtB2_7Library8get_implB15_NCINvB1W_18get_singlethreadedB15_E0E0NtNtB6_5error5ErrorECsi6pTmhHIU5M_9clang_sys
_RINvNtNtCsOQHHItu1OU_11miniz_oxide7inflate4core9read_bitsNCINvB2_12pad_to_bytesNCNvB2_10decompresssd_0E0EB6_
_RINvNtNtCsaqWvr6p8cVX_6chrono6format10formatting14write_hundredsNtNtCsiL7B6CFZHyD_4core3fmt9FormatterEB6_
_RINvNtNtCsaz9ix1H7t6h_5alloc5slice4hack8into_vecNtNtCs9nCsezDqTf4_12regex_syntax3hir15ClassBytesRangeNtNtB6_5alloc6GlobalEBO_
_RINvNtNtCsbHXshUE3PXC_10der_parser3der5multi19parse_der_containerINtNtCshgx866xcH9W_5alloc3vec3VecNtNtCsi1PQLdatSvq_11x509_parser10extensions17AccessDescriptionENCINvB2_28parse_der_sequence_defined_gB11_NCINvB2_23parse_der_sequence_of_vB1y_NvNvNtB1A_6parser23parse_subjectinfoaccess9parse_siaNtNtCsfcdQbM8XNhc_7asn1_rs5error5ErrorE0B4G_E0B4G_EB1C_
_RINvNtNtCsbHXshUE3PXC_10der_parser3der5multi28parse_der_sequence_defined_gINtNtCshgx866xcH9W_5alloc3vec3VecNtNtCsi1PQLdatSvq_11x509_parser10extensions17AccessDescriptionENCINvB2_23parse_der_sequence_of_vB1H_NvNvNtB1J_6parser23parse_subjectinfoaccess9parse_siaNtNtCsfcdQbM8XNhc_7asn1_rs5error5ErrorE0B49_EB1L_
_RINvNtNtCsbQWyLdwLkii_5tokio7runtime7context6budgetuNCNvXNvNtNtB6_4task4coop11with_budgetNtBT_10ResetGuardNtNtNtCs5cYH0lLSdLc_4core3ops4drop4Drop4drop0EB6_
_RINvNtNtCsbQtFiBoVPRh_13crypto_bigint4uint5split11split_mixedKj3_Kjd_Kj10_EB6_
_RINvNtNtCsbQtFiBoVPRh_13crypto_bigint4uint5split11split_mixedKj8_Kj5_Kjd_EB6_
_RINvNtNtCsbQtFiBoVPRh_13crypto_bigint4uint6concat12concat_mixedKj1_Kjf_Kj10_EB6_
_RINvNtNtCsbQtFiBoVPRh_13crypto_bigint4uint6concat12concat_mixedKj5_Kj4_Kj9_EB6_
_RINvNtNtCsbQtFiBoVPRh_13crypto_bigint4uint6concat12concat_mixedKjb_Kj2_Kjd_EB6_
_RINvNtNtCscAe09wmyAHU_9once_cell3imp6strict8map_addrNtB4_6WaiterNCNvB4_4waits_0EB6_
_RINvNtNtCsedCA7Tpfiji_7asn1_rs10asn1_types7integer16decode_array_intKj4_EB6_
_RINvNtNtCsfcZx8z6uiNH_14regex_automata4util11interpolate6stringNCNvMNtB4_8capturesNtB14_8Captures23interpolate_string_into0NCB11_s_0EB6_
_RINvNtNtCsfjsGG03OZM8_7similar10algorithms7compact17shift_diff_ops_upINtNtB4_5utils12OffsetLookupmEB15_EB6_
_RINvNtNtCsh0BiediDLRc_4libm4math9roundeven14roundeven_implfEB6_
_RINvNtNtCsh4ySdynPyhh_5gimli4read4unit15parse_unit_typeINtNtB4_12endian_slice11EndianSliceNtNtB6_9endianity12LittleEndianEECs7adunahxyaw_9backtrace
_RINvNtNtCshMr4vrUMxNO_11miniz_oxide7inflate4core9read_bitsNCNvB2_21decompress_with_limits2_0EB6_
_RINvNtNtCshgx866xcH9W_5alloc3vec16in_place_collect24write_in_place_with_dropNtNtCsfuTXiacoSai_15trust_dns_proto5error10ProtoErrorEB1g_
_RINvNtNtCshgx866xcH9W_5alloc5slice4hack8into_vecNtNtCs302BLY9Avsm_12regex_syntax3hir15ClassBytesRangeNtNtB6_5alloc6GlobalEBO_
_RINvNtNtCshgx866xcH9W_5alloc5slice4hack8into_vecNtNtNtCs6skbDnPfptg_10der_parser3ber5print17PrettyPrinterFlagNtNtB6_5alloc6GlobalEBQ_
_RINvNtNtCshgx866xcH9W_5alloc5slice4hack8into_vechNtNtB6_5alloc6GlobalECsedCA7Tpfiji_7asn1_rs
_RINvNtNtCsiL7B6CFZHyD_4core3str11validations15next_code_pointINtNtNtB6_5slice4iter4IterhEECs50cAaw8GDhY_4diff
_RINvNtNtCsiL7B6CFZHyD_4core3str11validations15next_code_pointINtNtNtB6_5slice4iter4IterhEECseDWgqLcbJaL_12unicode_bidi
_RINvNtNtCsiL7B6CFZHyD_4core3str11validations15next_code_pointINtNtNtB6_5slice4iter4IterhEECslWI3VPFq81_12regex_syntax
_RINvNtNtCsiL7B6CFZHyD_4core3str11validations23next_code_point_reverseINtNtNtB6_5slice4iter4IterhEECsfjsGG03OZM8_7similar
_RINvNtNtCsiL7B6CFZHyD_4core4iter8adapters11try_processINtNtB2_3map3MapINtNtNtB6_5slice4iter6ChunkshENCNvXs3_NtNtNtCsedCA7Tpfiji_7asn1_rs10asn1_types7strings15universalstringNtB1I_15UniversalStringINtNtB6_7convert7TryFromRNtNtB1M_3any3AnyE8try_from0EcINtNtB6_6option6OptionNtB3b_10InfallibleENCINvXsB_B43_IB41_INtNtCshgx866xcH9W_5alloc3vec3VeccEEINtNtNtB4_6traits7collect12FromIteratorIB41_cEE9from_iterBQ_E0B4X_EB1O_
_RINvNtNtCsiL7B6CFZHyD_4core4sync6atomic11atomic_loadOINtNtNtNtCs1pmdliUWjrC_12futures_util6stream17futures_unordered4task4TaskINtNtCs3HjF0nTt0Ee_12futures_task10future_obj9FutureObjuEEEBY_
_RINvNtNtCsiL7B6CFZHyD_4core4sync6atomic11atomic_loadONtNtCsiLl5zM8BuOP_9once_cell3imp6WaiterEBT_
_RINvNtNtCsiL7B6CFZHyD_4core4sync6atomic11atomic_loadhECs3YjeIEZo4ao_9once_cell
_RINvNtNtCsiL7B6CFZHyD_4core4sync6atomic11atomic_loadhECsj6GOjohWl9o_9once_cell
_RINvNtNtCsiL7B6CFZHyD_4core4sync6atomic11atomic_loadjECs7Uq4sfakVqI_15crossbeam_utils
_RINvNtNtCsiL7B6CFZHyD_4core4sync6atomic11atomic_loadjECsj40W3ef8J8f_12tracing_core
_RINvNtNtCsiL7B6CFZHyD_4core4sync6atomic11atomic_loadmECsbPHw0ZMlxUx_2cc
_RINvNtNtCsiL7B6CFZHyD_4core4sync6atomic12atomic_storeOINtNtNtCsgBqAKDoMawG_15futures_channel4mpsc5queue4NodeINtNtCshgx866xcH9W_5alloc4sync3ArcINtNtNtCs3NZLoJsOov_3std4sync5mutex5MutexNtBV_10SenderTaskEEEECsfuTXiacoSai_15trust_dns_proto
_RINvNtNtCsiL7B6CFZHyD_4core4sync6atomic12atomic_storeOuECs27bTk5Qbyxw_6memchr
_RINvNtNtCsiL7B6CFZHyD_4core4sync6atomic12atomic_storehECs7HzlohoAeks_12sharded_slab
_RINvNtNtCsiL7B6CFZHyD_4core4sync6atomic12atomic_storehECslc5DL33MxoQ_6rustix
_RINvNtNtCsiL7B6CFZHyD_4core4sync6atomic12atomic_storejECsdY0gPXVp8pd_12tracing_core
_RINvNtNtCsiL7B6CFZHyD_4core4sync6atomic23atomic_compare_exchangeOINtCs2b7CItEdzHb_14event_listener5InneruEECsh5QXVqz78Je_10async_lock
_RINvNtNtCsiL7B6CFZHyD_4core4sync6atomic23atomic_compare_exchangeOuECsjDu2qtAHalK_5bytes
_RINvNtNtCsiL7B6CFZHyD_4core4sync6atomic23atomic_compare_exchangejECsbudUTgWQKts_10threadpool
_RINvNtNtCsiL7B6CFZHyD_4core4sync6atomic23atomic_compare_exchangemECsa1XupUGiia1_9backtrace
_RINvNtNtCsiL7B6CFZHyD_4core4sync6atomic28atomic_compare_exchange_weakjECs7v7Yapv3qqg_13futures_timer
_RINvNtNtCsiL7B6CFZHyD_4core4sync6atomic28atomic_compare_exchange_weakmECsdROACSpa1aI_12tracing_core
_RINvNtNtCsiL7B6CFZHyD_4core5alloc6layout10size_alignINtNtCshgx866xcH9W_5alloc4sync8ArcInneruEECsfcZx8z6uiNH_14regex_automata
_RINvNtNtCsiL7B6CFZHyD_4core5alloc6layout10size_alignINtNtNtB6_3mem12maybe_uninit11MaybeUninitINtNtNtNtCshgx866xcH9W_5alloc11collections5btree4node12InternalNodeThhhhENtNtB1y_7set_val9SetValZSTEEECsb6BebbR1nVn_3gif
_RINvNtNtCsiL7B6CFZHyD_4core5alloc6layout10size_alignINtNtNtB6_3mem12maybe_uninit11MaybeUninitINtNtNtNtCshgx866xcH9W_5alloc11collections5btree4node8LeafNodeTNtNtCs3NZLoJsOov_3std4time7InstantjENtNtNtB6_4task4wake5WakerEEECsiOHhwSMIjMZ_8async_io
_RINvNtNtCsiL7B6CFZHyD_4core5alloc6layout10size_alignINtNtNtB6_3mem12maybe_uninit11MaybeUninitNtNtNtCs6skbDnPfptg_10der_parser3ber3ber9BerObjectEEB1z_
_RINvNtNtCsiL7B6CFZHyD_4core5alloc6layout10size_alignINtNtNtNtCshgx866xcH9W_5alloc11collections5btree4node12InternalNodeThhhhENtNtBT_7set_val9SetValZSTEECsb6BebbR1nVn_3gif
_RINvNtNtCsiL7B6CFZHyD_4core5alloc6layout10size_alignINtNtNtNtCshgx866xcH9W_5alloc11collections5btree4node8LeafNodeNtNtNtCsfcZx8z6uiNH_14regex_automata4util10primitives7StateIDNtNtNtB1U_3dfa5accel5AccelEEB1U_
_RINvNtNtCsiL7B6CFZHyD_4core5alloc6layout10size_alignTNtNtB6_3any6TypeIdINtNtCshgx866xcH9W_5alloc5boxed3BoxDNtNtCs6HoTchw45No_4http10extensions8AnyCloneNtNtB6_6marker4SendNtB2r_4SyncEL_EEEB1L_
_RINvNtNtCsiL7B6CFZHyD_4core5alloc6layout10size_alignTNtNtCshgx866xcH9W_5alloc6string6StringuEECskN1Yzg5nTsb_11procfs_core
_RINvNtNtCsiL7B6CFZHyD_4core5alloc6layout10size_alignTRebEECs6mVhnudWz0o_4term
_RINvNtNtCsiL7B6CFZHyD_4core5array5drain16drain_array_withNtNtNtNtCsklfhaN9lQFy_12aho_corasick6packed5teddy7generic14FatMaskBuilderINtNtNtB6_3ops9try_trait17NeverShortCircuitAINtBV_4MaskNtNtNtB6_9core_arch3x867___m256iEj2_EKB3u_NCINvMsl_B4_ABT_B3u_7try_mapNCINvMB27_IB25_B2M_E10wrap_mut_1BT_NCINvMsf_BV_BT_10from_teddyKB3u_B2X_E0E0B4f_E0EB11_
_RINvNtNtCsiL7B6CFZHyD_4core5slice3raw14from_raw_partsINtNtNtCshfZdcOEXVna_18trust_dns_resolver11name_server11name_server10NameServerINtNtBU_19connection_provider16GenericConnectorNtNtB29_13tokio_runtime20TokioRuntimeProviderEEEBW_
_RINvNtNtCsiL7B6CFZHyD_4core5slice3raw14from_raw_partshECsazWmdK81ICs_6blake2
_RINvNtNtCsiL7B6CFZHyD_4core5slice3raw18from_raw_parts_mutINtNtNtB6_3mem12maybe_uninit11MaybeUninithEECs16y5LaFcyfb_7zeroize
_RINvNtNtCsiL7B6CFZHyD_4core5slice3raw18from_raw_parts_muthECs9aJIYchcVbh_13data_encoding
_RINvNtNtCsiL7B6CFZHyD_4core5slice4sort10merge_sortINtNtNtCs91GDN4qvfiu_7similar10algorithms5utils10UniqueItemINtBP_12OffsetLookupmEENCINvMNtCshgx866xcH9W_5alloc5sliceSBM_11sort_by_keyjNCINvBP_6uniqueB1J_Es0_0E0NCINvB2c_11stable_sortBM_B26_E0NCB3o_s_0NCB3o_s0_0NCB3o_s1_0EBT_
_RINvNtNtCsiL7B6CFZHyD_4core5slice4sort10merge_sortNtNtCseDWgqLcbJaL_12unicode_bidi8implicit11BracketPairNCINvMNtCshgx866xcH9W_5alloc5sliceSBM_11sort_by_keyjNCINvBO_22identify_bracket_pairsNtNtBQ_9char_data17HardcodedBidiDataE0E0NCINvB1K_11stable_sortBM_B1E_E0NCB3G_s_0NCB3G_s0_0NCB3G_s1_0EBQ_
_RINvNtNtCsiL7B6CFZHyD_4core5slice4sort10merge_sortTmmENvYBM_NtNtB6_3cmp10PartialOrd2ltNCINvNtCshgx866xcH9W_5alloc5slice11stable_sortBM_BQ_E0NCB1o_s_0NCB1o_s0_0NCB1o_s1_0ECsgud9pmtAhJI_5ipnet
_RINvNtNtCsiL7B6CFZHyD_4core5slice4sort11find_streakNtNtCs3NZLoJsOov_3std4path7PathBufNvYBN_NtNtB6_3cmp10PartialOrd2ltECsgwZHJb2rARN_5vcpkg
_RINvNtNtCsiL7B6CFZHyD_4core5slice4sort11find_streakTfReENCINvMNtCshgx866xcH9W_5alloc5sliceSBN_7sort_byNCNvCs2P2SgBKwLCl_7difflib17get_close_matches0E0EB1G_
_RINvNtNtCsiL7B6CFZHyD_4core5slice4sort11insert_tailNtNtCs1VYxpr1ArYB_6object4read6SymbolNCINvMNtCshgx866xcH9W_5alloc5sliceSBN_11sort_by_keyyNCNvXs0_NtNtBP_4coff4fileNtB2m_8CoffFileNtNtBP_6traits6Object10symbol_maps_0E0EBR_
_RINvNtNtCsiL7B6CFZHyD_4core5slice4sort11insert_tailNtNtNtCsc9MEfsw61gC_12aho_corasick4util10primitives9PatternIDNCINvMNtCshgx866xcH9W_5alloc5sliceSBN_7sort_byNCNvMNtNtBT_6packed7patternNtB2B_8Patterns14set_match_kind0E0EBT_
_RINvNtNtCsiL7B6CFZHyD_4core5slice4sort14break_patternsNtNtNtNtCs7adunahxyaw_9backtrace9symbolize5gimli3elf9ParsedSymEBY_
_RINvNtNtCsiL7B6CFZHyD_4core5slice4sort20provide_sorted_batchNtNtCs2P2SgBKwLCl_7difflib15sequencematcher5MatchNCINvMNtCshgx866xcH9W_5alloc5sliceSBW_7sort_byNCNvMs1_BY_INtBY_15SequenceMatcherReE19get_matching_blocks0E0EB10_
_RINvNtNtCsiL7B6CFZHyD_4core5slice4sort20provide_sorted_batchRNtNtCshgx866xcH9W_5alloc6string6StringNvYBW_NtNtB6_3cmp10PartialOrd2ltECsgcFSzCu6SVo_15chrono_tz_build
_RINvNtNtCsiL7B6CFZHyD_4core5slice4sort25insertion_sort_shift_leftNtCsjEyA6YBEhDw_13phf_generator6BucketNCINvMNtCshgx866xcH9W_5alloc5sliceSB11_7sort_byNCNvMB13_NtB13_9Generator17try_generate_hash0E0EB13_
_RINvNtNtCsiL7B6CFZHyD_4core5slice4sort25insertion_sort_shift_leftNtNtNtCs20txnxQ5U84_7bindgen2ir7context6ItemIdNvYB11_NtNtB6_3cmp10PartialOrd2ltEB17_
_RINvNtNtCsiL7B6CFZHyD_4core5slice4sort26insertion_sort_shift_rightINtNtNtCshfZdcOEXVna_18trust_dns_resolver11name_server11name_server10NameServerINtNtB17_19connection_provider16GenericConnectorNtNtB2m_13tokio_runtime20TokioRuntimeProviderEENvYB12_NtNtB6_3cmp10PartialOrd2ltEB19_
_RINvNtNtCsiL7B6CFZHyD_4core5slice4sort5mergeNtNtCs5Ng0wM7PJ5I_12regex_syntax3ast4SpanNvYBG_NtNtB6_3cmp10PartialOrd2ltEBK_
_RINvNtNtCsiL7B6CFZHyD_4core5slice4sort5mergeThcENCINvMNtCshgx866xcH9W_5alloc5sliceSBG_11sort_by_keyhNCNvMNtCshuRNdO6CtuX_21unicode_normalization9decomposeINtB1F_14DecompositionsNtNtNtB6_3str4iter5CharsE12sort_pending0E0ECsoKynq7mBqg_4idna
_RINvNtNtCsiL7B6CFZHyD_4core5slice5index5rangeINtNtNtB6_3ops5range5RangejEECs455279n054P_10iri_string
_RINvNtNtCsiL7B6CFZHyD_4core5slice5index5rangeNtNtNtB6_3ops5range9RangeFullECs3H9oKPe6824_16futures_executor
_RINvNtNtCsiLl5zM8BuOP_9once_cell3imp6strict8map_addrNtB4_6WaiterNCNvB4_4waits_0EB6_
_RINvNtNtCsiXDYCUwaNF1_11miniz_oxide7inflate4core9read_bitsNCINvB2_12pad_to_bytesNCNvB2_10decompresss1_0E0EB6_
_RINvNtNtCsivq4NZsOFee_5rayon4iter5empty5emptytEB6_
_RINvNtNtCsjRWpUytRaxp_6chrono6format6parsed17set_if_consistentmEB6_
_RINvNtNtCsk9QERyUqk6O_5tokio4util4wake12drop_arc_rawNtNtNtNtB6_7runtime9scheduler14current_thread6HandleEB6_
_RINvNtNtCsk9QERyUqk6O_5tokio7runtime7context6budgetNtNtB4_4coop6BudgetNCNvBP_4stop0EB6_
_RINvNtNtCskt8TpxtZnof_4clap11completions10powershell11get_tooltipRNtNtCshgx866xcH9W_5alloc6string6StringEB6_
_RINvNtNtCslBVC6wF8Bgr_5tokio4util4wake13clone_arc_rawNtNtNtNtB6_7runtime9scheduler14current_thread6HandleEB6_
_RINvNtNtCslN86gTjml9v_18tracing_subscriber6filter13layer_filters18subscriber_has_plfNtNtNtB6_8registry7sharded8RegistryEB6_
_RINvNtNtCslc5DL33MxoQ_6rustix7backend4conv6by_refNtNtCsjLjmMvagjD3_13linux_raw_sys3net11sockaddr_inNtNtB4_3reg2A4EB6_
_RINvNtNtNtCs2FIVCi1Wrow_3std2io5error14repr_bitpacked11decode_reprINtNtCsaz9ix1H7t6h_5alloc5boxed3BoxNtB4_6CustomENCNvXs1_B2_NtB2_4ReprNtNtNtCs5cYH0lLSdLc_4core3ops4drop4Drop4drop0ECs9oW1mCSfvtA_7socket2
_RINvNtNtNtCs2FIVCi1Wrow_3std2io5error14repr_bitpacked11decode_reprRNtB4_6CustomNCNvMs0_B2_NtB2_4Repr4data0ECsaluMZKqF2aj_15crossbeam_utils
_RINvNtNtNtCs2WU2hRDnNVz_5tokio7runtime4task3raw7deallocINtNtNtB6_8blocking4task12BlockingTaskNCNvXsh_NtNtB8_3net4addrTRetENtNtB1B_6sealed17ToSocketAddrsPriv15to_socket_addrs0ENtNtBW_8schedule16BlockingScheduleEB8_
_RINvNtNtNtCs3NZLoJsOov_3std11collections4hash3map9map_entryNtNtCshgx866xcH9W_5alloc6string6StringINtNtBZ_3vec3VecNtNtCsgq42crzOkKS_14parse_zoneinfo5table8ZoneInfoEEB1R_
_RINvNtNtNtCs3NZLoJsOov_3std2io5error14repr_bitpacked11decode_reprINtNtCshgx866xcH9W_5alloc5boxed3BoxNtB4_6CustomENCNvXs1_B2_NtB2_4ReprNtNtNtCsiL7B6CFZHyD_4core3ops4drop4Drop4drop0ECs4nTNh3iP9td_12futures_util
_RINvNtNtNtCs3NZLoJsOov_3std2io5error14repr_bitpacked11decode_reprINtNtCshgx866xcH9W_5alloc5boxed3BoxNtB4_6CustomENCNvXs1_B2_NtB2_4ReprNtNtNtCsiL7B6CFZHyD_4core3ops4drop4Drop4drop0ECsaRhs7vhgYg1_4http
_RINvNtNtNtCs3NZLoJsOov_3std2io5error14repr_bitpacked11decode_reprINtNtCshgx866xcH9W_5alloc5boxed3BoxNtB4_6CustomENCNvXs1_B2_NtB2_4ReprNtNtNtCsiL7B6CFZHyD_4core3ops4drop4Drop4drop0ECsiTRt6EgJpvM_8fs_extra
_RINvNtNtNtCs3NZLoJsOov_3std2io5error14repr_bitpacked11decode_reprRNtB4_6CustomNCNvMs0_B2_NtB2_4Repr4data0ECs5vkXSUqiIuV_7socket2
_RINvNtNtNtCs3NZLoJsOov_3std2io5error14repr_bitpacked11decode_reprRNtB4_6CustomNCNvMs0_B2_NtB2_4Repr4data0ECseJ4fYN2mE0W_14parse_zoneinfo
_RINvNtNtNtCs3NZLoJsOov_3std4sync4mpmc7counter3newINtNtB4_4list7ChannelINtNtCsiL7B6CFZHyD_4core6result6ResultuNtNtNtB8_2io5error5ErrorEEECsaGnL1G5hXQS_9tiny_http
_RINvNtNtNtCs4USifnV5z1l_5tokio7runtime4task3raw21drop_join_handle_slowINtNtNtB6_8blocking4task12BlockingTaskINtNtCshgx866xcH9W_5alloc5boxed3BoxNCNvXNtNtB8_2io8blockingINtB2m_8BlockingNtNtNtCs3NZLoJsOov_3std2io5stdio5StdinENtNtB2o_10async_read9AsyncRead9poll_read0EENtNtB1b_8schedule16BlockingScheduleEB8_
_RINvNtNtNtCs4USifnV5z1l_5tokio7runtime4task3raw7deallocINtNtNtB6_8blocking4task12BlockingTaskINtNtCshgx866xcH9W_5alloc5boxed3BoxNCNvXs_NtNtB8_2io8blockingINtB29_8BlockingNtNtNtCs3NZLoJsOov_3std2io5stdio6StderrENtNtB2b_11async_write10AsyncWrite10poll_write0EENtNtBW_8schedule16BlockingScheduleEB8_
_RINvNtNtNtCs4USifnV5z1l_5tokio7runtime4task7harness11poll_futureINtNtNtB6_8blocking4task12BlockingTaskINtNtCshgx866xcH9W_5alloc5boxed3BoxNCNvXs_NtNtB8_2io8blockingINtB2i_8BlockingNtNtNtCs3NZLoJsOov_3std2io5stdio6StderrENtNtB2k_11async_write10AsyncWrite10poll_write0EENtNtB15_8schedule16BlockingScheduleEB8_
_RINvNtNtNtCs5cYH0lLSdLc_4core4iter6traits8iterator12iter_compareINtNtNtB6_8adapters3map3MapINtNtNtB8_5slice4iter4IterhENCNvXs9_NtNtCsdPhejGtpz0t_4http3uri9authorityNtB21_9AuthorityINtNtB8_3cmp10PartialOrdeE11partial_cmp0EIB11_B1r_NCB1V_s_0ENCINvNvNtB2_8Iterator14partial_cmp_by7comparehhNCINvYB10_B3X_11partial_cmpB3x_E0E0INtNtB8_6option6OptionNtB2V_8OrderingEEB25_
_RINvNtNtNtCs5cYH0lLSdLc_4core4iter7sources7from_fn7from_fnINtNtB8_6result6ResultNtNtCslCLl0BTCKl2_14rustls_pemfile7pemfile4ItemNtNtNtCs2FIVCi1Wrow_3std2io5error5ErrorENCNvB1k_4crls0EB1k_
_RINvNtNtNtCs5cYH0lLSdLc_4core4iter8adapters5chain17and_then_or_clearINtNtB4_6copied6CopiedINtNtNtB8_5slice4iter4IterhEEhNvYB14_NtNtNtB6_6traits8iterator8Iterator4nextECsjRWpUytRaxp_6chrono
_RINvNtNtNtCs5cYH0lLSdLc_4core5slice4sort6stable14driftsort_mainTjcENCINvMNtCsaz9ix1H7t6h_5alloc5sliceSBZ_11sort_by_keyjNCINvMs2_NtCspQV0jMy21P_4idna8punycodeNtB22_7Decoder6decodecNtB22_14InternalCallerEs0_0E0INtNtB1b_3vec3VecBZ_EEB24_
_RINvNtNtNtCs5cYH0lLSdLc_4core9core_arch3x865ssse315__mm_alignr_epi8Klf_ECs6Ps44CJ3Bgw_12aho_corasick
_RINvNtNtNtCsaz9ix1H7t6h_5alloc11collections5btree3mem7replaceINtNtB4_4node6HandleINtB10_7NodeRefNtNtB10_6marker5DyingNtNtNtCs6nv0K25L1YS_14regex_automata4util10primitives7StateIDNtNtB4_7set_val9SetValZSTNtB1y_4LeafENtB1y_4EdgeEIBY_IB1i_B1w_B1R_B2Q_NtB1y_14LeafOrInternalENtB1y_2KVENCINvMsm_NtB4_8navigateBX_27deallocating_next_uncheckedNtNtB8_5alloc6GlobalE0EB1X_
_RINvNtNtNtCsaz9ix1H7t6h_5alloc11collections5btree4node12slice_insertNtNtNtCs6nv0K25L1YS_14regex_automata4util10primitives7StateIDEB1a_
_RINvNtNtNtCsaz9ix1H7t6h_5alloc11collections5btree4node13move_to_slicemECs4O6ck48ZfFc_5regex
_RINvNtNtNtCsh0BiediDLRc_4libm4math7generic4rint10rint_rounddEB8_
_RINvNtNtNtCshK2h5RPyNs1_9hashbrown3raw5alloc5inner8do_allocNtNtCshgx866xcH9W_5alloc5alloc6GlobalECs7Uq4sfakVqI_15crossbeam_utils
_RINvNtNtNtCshgx866xcH9W_5alloc11collections5btree3mem7replaceINtNtB4_4node6HandleINtB10_7NodeRefNtNtB10_6marker5DyingNtNtCs1dEy6nitbLR_7console5utils9AttributeNtNtB4_7set_val9SetValZSTNtB1y_4LeafENtB1y_4EdgeEIBY_IB1i_B1w_B1R_B2x_NtB1y_14LeafOrInternalENtB1y_2KVENCINvMsm_NtB4_8navigateBX_27deallocating_next_uncheckedNtNtB8_5alloc6GlobalE0EB1V_
_RINvNtNtNtCshgx866xcH9W_5alloc11collections5btree3mem7replaceINtNtB4_4node6HandleINtB10_7NodeRefNtNtB10_6marker5ImmutNtNtCseJ4fYN2mE0W_14parse_zoneinfo9structure5ChildNtNtB4_7set_val9SetValZSTNtB1y_4LeafENtB1y_4EdgeETRB1R_RB2F_ENCNvMsk_NtB4_8navigateBX_14next_unchecked0EB1V_
_RINvNtNtNtCshgx866xcH9W_5alloc11collections5btree3mem7replaceINtNtB4_4node7NodeRefNtNtB10_6marker5OwnedNtNtNtCs2GX3rYzX9NP_14regex_automata4util10primitives7StateIDNtNtNtB1J_3dfa5accel5AccelNtB1k_14LeafOrInternalEuNCINvB2_8take_mutBX_NCINvMss_B10_BX_19push_internal_levelNtNtB8_5alloc6GlobalE0E0EB1J_
_RINvNtNtNtCshgx866xcH9W_5alloc11collections5btree4node12slice_insertINtNtNtCsiL7B6CFZHyD_4core3ptr8non_null7NonNullINtB2_8LeafNodeNtNtB8_6string6StringNtNtCskt8TpxtZnof_4clap3app3AppEEEB2t_
_RINvNtNtNtCshgx866xcH9W_5alloc11collections5btree4node12slice_insertNtNtB8_6string6StringECskvdpLI7AOSZ_5insta
_RINvNtNtNtCshgx866xcH9W_5alloc11collections5btree4node12slice_removeINtNtB8_3vec3VecNtNtNtCsfcZx8z6uiNH_14regex_automata4util10primitives9PatternIDEEB1q_
_RINvNtNtNtCshgx866xcH9W_5alloc11collections5btree4node13move_to_sliceINtNtNtCsiL7B6CFZHyD_4core3ptr8non_null7NonNullINtB2_8LeafNodeNtNtCs3NZLoJsOov_3std4path7PathBufINtNtB8_4sync3ArcNtNtCskvdpLI7AOSZ_5insta3env10ToolConfigEEEEB2Y_
_RINvNtNtNtCshgx866xcH9W_5alloc11collections5btree4node13move_to_sliceNtNtCs3NZLoJsOov_3std4path7PathBufECskvdpLI7AOSZ_5insta
_RINvNtNtNtCshgx866xcH9W_5alloc11collections5btree4node13move_to_sliceyECskt8TpxtZnof_4clap
_RINvNtNtNtCshgx866xcH9W_5alloc11collections5btree4node9slice_shrRNtNtB8_6string6StringECsgcFSzCu6SVo_15chrono_tz_build
_RINvNtNtNtCshgx866xcH9W_5alloc11collections5btree8navigate10full_rangeNtNtNtB4_4node6marker5DyingTNtNtCs3NZLoJsOov_3std4time7InstantjENtNtNtCsiL7B6CFZHyD_4core4task4wake5WakerECsiOHhwSMIjMZ_8async_io
_RINvNtNtNtCsiL7B6CFZHyD_4core4iter6traits8iterator12iter_compareINtNtNtB6_8adapters3map3MapINtNtNtB8_5slice4iter4IterhENCNvXs8_NtNtCsaRhs7vhgYg1_4http3uri9authorityNtB21_9AuthorityNtNtB8_3cmp10PartialOrd11partial_cmp0EIB11_B1r_NCB1V_s_0ENCINvNvNtB2_8Iterator14partial_cmp_by7comparehhNCINvYB10_B3U_11partial_cmpB3u_E0E0INtNtB8_6option6OptionNtB2U_8OrderingEEB25_
_RINvNtNtNtCsiL7B6CFZHyD_4core4iter6traits8iterator12iter_compareINtNtNtB6_8adapters3map3MapINtNtNtB8_5slice4iter4IterhENCNvXse_NtNtCseiJFhKSjCIQ_4http3uri9authorityNtNtCshgx866xcH9W_5alloc6string6StringINtNtB8_3cmp10PartialOrdNtB21_9AuthorityE11partial_cmp0EIB11_B1r_NCB1V_s_0ENCINvNvNtB2_8Iterator14partial_cmp_by7comparehhNCINvYB10_B4y_11partial_cmpB48_E0E0INtNtB8_6option6OptionNtB3h_8OrderingEEB25_
_RINvNtNtNtCsiL7B6CFZHyD_4core4iter7sources5empty5emptyNtNtNtNtCs9vszGGFNfUy_18tracing_subscriber6filter3env9directive9DirectiveEBY_
_RINvNtNtNtCsiL7B6CFZHyD_4core4iter7sources6repeat6repeatyECslIjNMLs0yCi_4rand
_RINvNtNtNtCsiL7B6CFZHyD_4core4iter8adapters10filter_map15filter_map_foldRNtNtNtCs20txnxQ5U84_7bindgen2ir4comp4BaseRNtNtNtB1d_8analysis9sizedness15SizednessResultB1P_NCNvXs2_B1R_NtB1R_17SizednessAnalysisNtB1T_17MonotoneFramework9constrains_0NCB2F_s0_0EB1f_
_RINvNtNtNtCsiL7B6CFZHyD_4core4iter8adapters3map12map_try_foldINtNtCsdxpuzYOuQC7_15crossbeam_deque5deque7StealerNtNtCs3sZDYscQcZY_10rayon_core3job6JobRefENtNtB1P_8registry10ThreadInfoINtNtNtCshgx866xcH9W_5alloc3vec13in_place_drop11InPlaceDropB2r_EINtNtB8_6result6ResultB2U_zENvMs5_B2t_B2r_3newNCINvNtB2Z_16in_place_collect24write_in_place_with_dropB2r_E0EB1P_
_RINvNtNtNtCsiL7B6CFZHyD_4core4iter8adapters3map12map_try_foldRNtNtCshgx866xcH9W_5alloc6string6StringjjINtNtB8_6option6OptionjENCNCINvNtB12_3str17join_generic_copyehBY_E00NvMs9_NtB8_3numj11checked_addECslWI3VPFq81_12regex_syntax
_RINvNtNtNtCsiL7B6CFZHyD_4core4iter8adapters3map12map_try_foldReINtNtB8_6result6ResultNtNtNtNtCs9vszGGFNfUy_18tracing_subscriber6filter3env9directive9DirectiveNtNtB1r_9directive10ParseErrorEuINtNtNtB8_3ops12control_flow11ControlFlowIB33_B1l_EENCINvMNtB1p_7builderNtB3Y_7Builder5parseBX_Es_0NCINvXB4_INtB4_12GenericShuntINtB2_3MapINtNtB4_6filter6FilterINtNtNtB8_3str4iter5SplitcENCB3U_0EB3S_EIB10_NtNtB8_7convert10InfallibleB2w_EENtNtNtB6_6traits8iterator8Iterator8try_folduNCINvNvB6S_12try_for_each4callB1l_B3H_NcNtB3H_5Break0E0B3H_E0EB1t_
_RINvNtNtNtCsiL7B6CFZHyD_4core4iter8adapters3map12map_try_foldRhhuINtNtNtB8_3ops12control_flow11ControlFlowIB12_INtNtB8_6option6OptionNtNtB8_3cmp8OrderingEB27_EENCNvXsd_NtNtCs6HoTchw45No_4http3uri9authorityNtB2G_9AuthorityINtB29_10PartialOrdNtNtCshgx866xcH9W_5alloc6string6StringE11partial_cmp0NCINvNvNtNtNtB6_6traits8iterator8Iterator12try_for_each4callhB11_NCINvNvB4Q_12iter_compare7compareINtB2_3MapINtNtNtB8_5slice4iter4IterhENCB2A_s_0EhB1L_NCINvNvB4O_14partial_cmp_by7comparehhNCINvYIB6i_B6r_B2y_EB4O_11partial_cmpB6h_E0E0E0E0EB2K_
_RINvNtNtNtCsiL7B6CFZHyD_4core4iter8adapters3map8map_foldINtNtB8_6option6OptionjEjuNCNCINvCslQXtP2qTVhA_13phf_generator26generate_hash_with_hash_fnRRNtNtCshgx866xcH9W_5alloc6string6StringINvCs4rr8EeQBcJU_10phf_shared4hashB2k_EEs0_00NCINvNvNtNtNtB6_6traits8iterator8Iterator8for_each4calljNCINvMsi_NtB2q_3vecINtB4K_3VecjE14extend_trustedINtB2_3MapINtNtB4K_9into_iter8IntoIterBS_EB1i_EE0E0ECsgcFSzCu6SVo_15chrono_tz_build
_RINvNtNtNtCsiL7B6CFZHyD_4core4iter8adapters3map8map_foldNtNtCshgx866xcH9W_5alloc6string6StringNtNtNtCs1DT2mKzNIQv_4jiff2tz2db12TimeZoneNameuNCINvMs0_B1w_NtB1w_16TimeZoneNameIter9from_iterBS_INtNtNtBW_3vec9into_iter8IntoIterBS_EE0NCINvNvNtNtNtB6_6traits8iterator8Iterator8for_each4callB1u_NCINvMsi_B37_INtB37_3VecB1u_E14extend_trustedINtB2_3MapB32_B2e_EE0E0EB1A_
_RINvNtNtNtCsiL7B6CFZHyD_4core4iter8adapters3map8map_foldRNtNtCs1cxMKpSN2o4_3syn5error12ErrorMessageNtCsgMKgB7mnEUJ_11proc_macro211TokenStreamuNvMs_BV_BT_16to_compile_errorNCIB0_B1z_NtNtB1B_3imp11TokenStreamuNCINvXs7_B1B_B1z_INtNtNtB6_6traits7collect12FromIteratorB1z_E9from_iterINtB2_3MapINtNtNtB8_5slice4iter4IterBT_EB2g_EE0NCIB0_B2T_NtCsiCmXw7sqf3N_10proc_macro11TokenStreamuNCINvXs6_B2V_B2T_IB3B_B2T_E9from_iterIB4t_B4s_B3j_EE0NCINvNvNtNtB3F_8iterator8Iterator8for_each4callB5n_NCINvXsk_B5p_B5n_INtB3D_6ExtendB5n_E6extendIB4t_B6E_B63_EE0E0E0E0EBX_
_RINvNtNtNtCsiL7B6CFZHyD_4core4iter8adapters3map8map_foldRNtNtCs6c37mDEUb8k_12regex_syntax3hir3HirBT_uNCNvNtNtCs2GX3rYzX9NP_14regex_automata4meta13reverse_inner7flatten0NCINvNvNtNtNtB6_6traits8iterator8Iterator8for_each4callBT_NCINvMsi_NtCshgx866xcH9W_5alloc3vecINtB3L_3VecBT_E14extend_trustedINtB2_3MapINtNtNtB8_5slice4iter4IterBT_EB1B_EE0E0EB1J_
_RINvNtNtNtCsiL7B6CFZHyD_4core4iter8adapters3map8map_foldRNtNtCsk1c4NF7YhJt_12jpeg_decoder6parser9ComponentttNCNvMNtBX_9upsamplerNtB1N_9Upsampler3news0_0NCINvNvNtNtNtB6_6traits8iterator8Iterator6max_by4foldtNvYtNtNtB8_3cmp3Ord3cmpE0EBX_
_RINvNtNtNtCsiL7B6CFZHyD_4core4iter8adapters3map8map_foldRNtNtNtCsjh4mrTFEWVx_12regex_syntax3hir7literal7LiteraljjNCNCINvMNtNtCsfcZx8z6uiNH_14regex_automata4util9prefilterNtB1V_9Prefilter3newBT_E00NCINvNvNtNtNtB6_6traits8iterator8Iterator6max_by4foldjNvYjNtNtB8_3cmp3Ord3cmpE0EB1Z_
_RINvNtNtNtCsiL7B6CFZHyD_4core4iter8adapters3map8map_foldRReBT_uNCNvNtNtCskt8TpxtZnof_4clap3app5usage17create_help_usages_0NCINvNvNtNtNtB6_6traits8iterator8Iterator8for_each4callBT_NCINvMsi_NtCshgx866xcH9W_5alloc3vecINtB31_3VecBT_E14extend_trustedINtB2_3MapINtNtNtB8_5slice4iter4IterBT_EBZ_EE0E0EB17_
_RINvNtNtNtCsiL7B6CFZHyD_4core4iter8adapters3map8map_foldRTRNtNtCs52Ma2mZ51Xc_12tracing_core5field5FieldINtNtB8_6option6OptionRDNtBX_5ValueEL_EEjjNCINvNvXs0_NtB4_6filterINtB2u_6FilterppENtNtNtB6_6traits8iterator8Iterator5count8to_usizeBS_NCNvMsO_BX_NtBX_8ValueSet3len0E0NCINvXsK_NtB31_5accumjNtB4s_3Sum3sumINtB2_3MapINtNtNtB8_5slice4iter4IterBT_EB2j_EE0EBZ_
_RINvNtNtNtCsiL7B6CFZHyD_4core4iter8adapters3map8map_foldReNtNtCskN1Yzg5nTsb_11procfs_core7process7VmFlagsBU_NvMs0_BW_BU_8from_strNvYBU_NtNtNtB8_3ops3bit5BitOr5bitorECs6JGgWY6YaLc_6procfs
_RINvNtNtNtCsiL7B6CFZHyD_4core4iter8adapters3map8map_foldRyyyNCNvMsh_NtCsMnN2LpAsUY_10num_bigint7biguintNtB14_7BigUint10count_ones0NCINvXsC_NtNtB6_6traits5accumyNtB2d_3Sum3sumINtB2_3MapINtNtNtB8_5slice4iter4IteryEBW_EE0EB16_
_RINvNtNtNtCsiL7B6CFZHyD_4core4iter8adapters3map8map_foldTjRRNtNtCsgq42crzOkKS_14parse_zoneinfo5table8RuleInfoETjxETxB1K_ENCNvMs0_NtB10_11transitionsNtB23_23FixedTimespanSetBuilder19add_multiple_savings_0NCIB0_B1K_B1O_B1O_NCINvNvNtNtNtB6_6traits8iterator8Iterator10min_by_key3keyB1K_xNCB1X_s0_0E0NCINvNvB3E_6min_by4foldB1O_INvB3C_7compareB1K_xEE0E0EB10_
_RINvNtNtNtCsiL7B6CFZHyD_4core4iter8adapters3map8map_foldhNtNtCs6c37mDEUb8k_12regex_syntax3hir15ClassBytesRangeuNCNvMs3_BV_NtBV_3Hir11alternations_0NCINvNvNtNtNtB6_6traits8iterator8Iterator8for_each4callBT_NCINvMsi_NtCshgx866xcH9W_5alloc3vecINtB3q_3VecBT_E14extend_trustedINtB2_3MapINtNtB3q_9into_iter8IntoIterhEB1L_EE0E0EBX_
_RINvNtNtNtCsiL7B6CFZHyD_4core4iter8adapters3map8map_foldjjjNCINvNvXs0_NtB4_6filterINtB16_6FilterppENtNtNtB6_6traits8iterator8Iterator5count8to_usizejNCNvNtCse9OtA9X2qY2_18codespan_reporting5files12column_index0E0NCINvXsK_NtB1D_5accumjNtB3x_3Sum3sumINtB2_3MapINtNtNtB8_3ops5range5RangejEBV_EE0EB2t_
_RINvNtNtNtCsiL7B6CFZHyD_4core4iter8adapters4fuse17and_then_or_clearINtNtCskN1Yzg5nTsb_11procfs_core3net12SnmpSectionsINtNtNtNtCs3NZLoJsOov_3std2io8buffered9bufreader9BufReaderNtNtB20_2fs4FileEEINtNtB8_6result6ResultNtB16_11SnmpSectionNtB18_9ProcErrorENvYB13_NtNtNtB6_6traits8iterator8Iterator4nextECs6JGgWY6YaLc_6procfs
_RINvNtNtNtCsiL7B6CFZHyD_4core4iter8adapters6cloned14clone_try_foldhjINtNtNtB8_3ops12control_flow11ControlFlowINtNtB19_9try_trait17NeverShortCircuitjEjENCINvNvXs0_NtB4_10take_whileINtB2A_9TakeWhileppENtNtNtB6_6traits8iterator8Iterator8try_fold5checkhjB1J_NCNvNtCs5JIXX6ZclYK_13dirs_sys_next13xdg_user_dirs10trim_blank0NCINvMB1M_B1J_10wrap_mut_2jhNCNvYIB2S_INtB2_6ClonedINtNtNtB8_5slice4iter4IterhEEB44_EB3b_5count0E0E0EB4a_
_RINvNtNtNtCsiL7B6CFZHyD_4core4iter8adapters6copied13copy_try_foldhjINtNtNtB8_3ops12control_flow11ControlFlowjjENCINvNvNtNtNtB6_6traits8iterator8Iterator8position5checkhNvNtCsivq4NZsOFee_5rayon3str16is_char_boundaryE0EB2K_
_RINvNtNtNtCsiL7B6CFZHyD_4core4iter8adapters6copied9copy_foldThhEuNCINvNtB4_3map8map_foldBW_NtNtCshpKpake7nJI_12regex_syntax3hir15ClassBytesRangeuNCNvNtB1t_9translate21hir_ascii_class_bytes0NCINvNvNtNtNtB6_6traits8iterator8Iterator8for_each4callB1r_NCINvMsi_NtCshgx866xcH9W_5alloc3vecINtB47_3VecB1r_E14extend_trustedINtB16_3MapINtB2_6CopiedINtNtNtB8_5slice4iter4IterBW_EEB2j_EE0E0E0EB1v_
_RINvNtNtNtCsiL7B6CFZHyD_4core4iter8adapters6filter15filter_try_foldRNtNtNtCs20txnxQ5U84_7bindgen2ir4comp6MethodjINtNtNtB8_3ops12control_flow11ControlFlowjjENCNCNCNvMsj_NtB18_4itemNtB2G_4Item14overload_index0s_00NCINvNvNtNtNtB6_6traits8iterator8Iterator8position5checkB13_NCB2w_s_0E0EB1a_
_RINvNtNtNtCsiL7B6CFZHyD_4core4iter8adapters6filter15filter_try_foldjuINtNtNtB8_3ops12control_flow11ControlFlowNtNtCs3sZDYscQcZY_10rayon_core3job6JobRefENCNvMs8_NtB1O_8registryNtB2y_12WorkerThread5steal0NCINvNvNtNtNtB6_6traits8iterator8Iterator8find_map5checkjB1K_NCB2s_s_0E0EB1O_
_RINvNtNtNtCsiL7B6CFZHyD_4core9core_arch3x863avx22__mm256_permute2f128_pdKl12_ECs54g7RpQ33Ud_14matrixmultiply
_RINvNtNtNtCsiL7B6CFZHyD_4core9core_arch3x864avx217__mm256_slli_epi32Kl4_ECscAkkHySsZxm_11base64_simd
_RINvNtNtNtCsiL7B6CFZHyD_4core9core_arch3x864avx217__mm256_srli_epi64Kl13_ECsfybCeZEVfOF_4sha2
_RINvNtNtNtCsiL7B6CFZHyD_4core9core_arch3x864avx220__mm256_shuffle_epi32Kl93_ECs94emUd2Bong_11rand_chacha
_RINvNtNtNtCsiL7B6CFZHyD_4core9core_arch3x864avx225__mm256_permute2x128_si256Kl0_ECs9qnCHBwWAbg_8poly1305
_RINvNtNtNtCsiL7B6CFZHyD_4core9core_arch3x864sse214__mm_slli_si128Kl8_ECskMe7ejU9Zwe_11rand_chacha
_RINvNtNtNtCsiL7B6CFZHyD_4core9core_arch3x864sse217__mm_shuffle_epi32Kl4e_ECskMe7ejU9Zwe_11rand_chacha
_RINvNtNtNtCsiL7B6CFZHyD_4core9core_arch3x865sse4116__mm_insert_epi32Kl0_ECs94emUd2Bong_11rand_chacha
_RINvNtNtNtCsiL7B6CFZHyD_4core9core_arch3x869pclmulqdq20__mm_clmulepi64_si128Kl0_ECs8VBHAwBVxeW_7polyval
_RINvNtNtNtCsk9QERyUqk6O_5tokio7runtime4task3raw15try_read_outputINtNtNtB6_8blocking4task12BlockingTaskINtNtCshgx866xcH9W_5alloc5boxed3BoxNCNvXsf_NtNtB8_3net4addreNtNtB2j_6sealed17ToSocketAddrsPriv15to_socket_addrs0EENtNtB15_8schedule16BlockingScheduleEB8_
_RINvNtNtNtCsk9QERyUqk6O_5tokio7runtime4task3raw4pollINtNtNtCsfuTXiacoSai_15trust_dns_proto4xfer12dns_exchange21DnsExchangeBackgroundINtNtNtBV_3udp17udp_client_stream15UdpClientStreamNtNtNtB8_3net3udp9UdpSocketENtBV_9TokioTimeEINtNtCshgx866xcH9W_5alloc4sync3ArcNtNtNtNtB6_9scheduler12multi_thread6handle6HandleEECshfZdcOEXVna_18trust_dns_resolver
_RINvNtNtNtCsk9QERyUqk6O_5tokio7runtime4task5waker9waker_refINtNtNtB6_8blocking4task12BlockingTaskINtNtCshgx866xcH9W_5alloc5boxed3BoxNCNvMNtNtNtB6_9scheduler12multi_thread6workerNtB2b_6Launch6launch0EENtNtB10_8schedule16BlockingScheduleEB8_
_RINvNtNtNtCslBVC6wF8Bgr_5tokio7runtime4task3raw15try_read_outputINtNtNtB6_8blocking4task12BlockingTaskNCNvXNtNtB8_2io8blockingINtB1H_8BlockingNtNtNtCs3NZLoJsOov_3std2io5stdio5StdinENtNtB1J_10async_read9AsyncRead9poll_read0ENtNtB15_8schedule16BlockingScheduleEB8_
_RINvNtNtNtCslBVC6wF8Bgr_5tokio7runtime4task3raw4pollINtNtNtB6_8blocking4task12BlockingTaskNCNvXs_NtNtB8_2io8blockingINtB1x_8BlockingNtNtNtCs3NZLoJsOov_3std2io5stdio6StderrENtNtB1z_11async_write10AsyncWrite10poll_flush0ENtNtBT_8schedule16BlockingScheduleEB8_
_RINvNtNtNtCslBVC6wF8Bgr_5tokio7runtime4task3raw8shutdownINtNtNtB6_8blocking4task12BlockingTaskNCNvXs_NtNtB8_2io8blockingINtB1B_8BlockingNtNtNtCs3NZLoJsOov_3std2io5stdio6StderrENtNtB1D_11async_write10AsyncWrite10poll_write0ENtNtBX_8schedule16BlockingScheduleEB8_
_RINvNtNtNtCslNmfs82EQFP_9hashbrown3raw5alloc5inner8do_allocNtB2_6GlobalECseN3EgHAt5QS_8petgraph
_RINvNtNtNtNtCs4USifnV5z1l_5tokio7runtime9scheduler12multi_thread6worker12with_currentuNCNvXNvB2_14block_in_placeNtB1r_5ResetNtNtNtCsiL7B6CFZHyD_4core3ops4drop4Drop4drop0EBa_
_RINvNtNtNtNtCs5cYH0lLSdLc_4core5slice4sort6shared5pivot11median3_recTooENvYB14_NtNtBa_3cmp10PartialOrd2ltECsfPJoJpVuta1_5ipnet
_RINvNtNtNtNtCs5cYH0lLSdLc_4core5slice4sort6shared9smallsort11insert_tailNtCsj5CQOIyK9s_16rustls_pki_types14CertificateDerNCINvMB8_SB18_16sort_unstable_byNCNvMs_CshTwx2KYwdLS_19rustls_native_certsNtB2y_9CertPaths4load0E0EB2y_
_RINvNtNtNtNtCs5cYH0lLSdLc_4core5slice4sort6shared9smallsort12sort4_stableNtNtCs2X71yuh7ehP_12regex_syntax3hir15ClassBytesRangeNvYB19_NtNtBa_3cmp10PartialOrd2ltEB1d_
_RINvNtNtNtNtCs5cYH0lLSdLc_4core5slice4sort6shared9smallsort12sort8_stableNtNtNtCsdTuBsJ9FlQ2_12aho_corasick4util10primitives9PatternIDNCINvMNtCsaz9ix1H7t6h_5alloc5sliceSB19_7sort_byNCNvMNtNtB1f_6packed7patternNtB2Y_8Patterns14set_match_kind0E0EB1f_
_RINvNtNtNtNtCs5cYH0lLSdLc_4core5slice4sort6shared9smallsort19bidirectional_mergeTiRNtNtCs5tx0e2t1Md0_9toml_edit5table5TableINtNtCsaz9ix1H7t6h_5alloc3vec3VecNtNtB1n_3key3KeyEbENCINvMNtB22_5sliceSB1g_11sort_by_keyiNCNvXNtB1n_6encodeNtNtB1n_8document11DocumentMutNtNtBa_3fmt7Display3fmts_0E0EB1n_
_RINvNtNtNtNtCs5cYH0lLSdLc_4core5slice4sort6shared9smallsort25insertion_sort_shift_leftTjcENCINvMNtCsaz9ix1H7t6h_5alloc5sliceSB1m_11sort_by_keyjNCINvMs2_NtCspQV0jMy21P_4idna8punycodeNtB2q_7Decoder6decodehNtB2q_14ExternalCallerEs0_0E0EB2s_
_RINvNtNtNtNtCs5cYH0lLSdLc_4core5slice4sort6shared9smallsort31small_sort_general_with_scratchtNCINvMNtCsaz9ix1H7t6h_5alloc5sliceSt7sort_byNCNvMNtNtCs8zkBknKQsDL_12aho_corasick6packed7patternNtB2g_8Patterns14set_match_kind0E0EB2k_
_RINvNtNtNtNtCs5cYH0lLSdLc_4core5slice4sort6stable5drift16stable_quicksortNtNtCs9nCsezDqTf4_12regex_syntax3hir15ClassBytesRangeNvYB19_NtNtBa_3cmp10PartialOrd2ltEB1d_
_RINvNtNtNtNtCs5cYH0lLSdLc_4core5slice4sort6stable5drift4sortNtNtNtCsdTuBsJ9FlQ2_12aho_corasick4util10primitives9PatternIDNvYBW_NtNtBa_3cmp10PartialOrd2ltEB12_
_RINvNtNtNtNtCs5cYH0lLSdLc_4core5slice4sort6stable5merge5mergeTjcENCINvMNtCsaz9ix1H7t6h_5alloc5sliceSBX_11sort_by_keyjNCINvMs2_NtCsaMSDOvq7TeD_4idna8punycodeNtB20_7Decoder6decodehNtB20_14InternalCallerEs0_0E0EB22_
_RINvNtNtNtNtCs5cYH0lLSdLc_4core5slice4sort6stable9quicksort16stable_partitionNtNtNtCsdTuBsJ9FlQ2_12aho_corasick4util10primitives9PatternIDNCINvMNtCsaz9ix1H7t6h_5alloc5sliceSB1d_7sort_byNCNvMNtNtB1j_6packed7patternNtB32_8Patterns14set_match_kind0E0EB1j_
_RINvNtNtNtNtCs5cYH0lLSdLc_4core5slice4sort6stable9quicksort9quicksortNtNtNtCs6Ps44CJ3Bgw_12aho_corasick4util10primitives9PatternIDNCINvMNtCsaz9ix1H7t6h_5alloc5sliceSB15_7sort_byNCNvMNtNtB1b_6packed7patternNtB2U_8Patterns14set_match_kind0E0EB1b_
_RINvNtNtNtNtCsbHiw8FcB4nV_12futures_util6stream17futures_unordered4task9waker_ref19wake_by_ref_arc_rawINtB4_4TaskINtNtCsbXlrBjN2Pbs_12futures_task10future_obj14LocalFutureObjuEEECs1ufKiBFgexo_16futures_executor
_RINvNtNtNtNtNtCs3NZLoJsOov_3std3sys6common12thread_local10fast_local4fast13destroy_valueINtNtCsiL7B6CFZHyD_4core4cell4CellTyyEEECs91GDN4qvfiu_7similar
_RINvNtNtNtNtNtCs3NZLoJsOov_3std3sys6common12thread_local10fast_local4fast13destroy_valueINtNtCsiL7B6CFZHyD_4core4cell7RefCellTNtCs6Rpbmm5Qxkn_7parking6ParkerNtNtNtB1t_4task4wake5WakerEEECs8j1DbKQIYX5_12futures_lite
_RINvNtNtNtNtNtCs3NZLoJsOov_3std3sys6common12thread_local10fast_local4fast13destroy_valuejECs9uh8emyyfsF_14regex_automata
_RINvNvMNtCs9CeMAa3GKYH_12erased_serde3anyNtB5_3Any3new11inline_dropNtCs4TgSHYTQ7no_9serde_fmt16DebugTupleStructECsbpMoz2BpSnY_9value_bag
_RINvNvMNtCsiL7B6CFZHyD_4core5sliceSp7reverse7revswapNtNtCs23yxf7uxwGf_12regex_syntax3hir17ClassUnicodeRangeEBS_
_RINvNvMNtCsiL7B6CFZHyD_4core5sliceSp7reverse7revswapNtNtNtCs2GX3rYzX9NP_14regex_automata4util10primitives7StateIDEBU_
_RINvNvMNtCsiL7B6CFZHyD_4core5sliceSp7reverse7revswapjECs5a5uyJZDxbc_12unicode_bidi
_RINvNvMs0_NtCsaz9ix1H7t6h_5alloc7raw_vecINtB8_6RawVecppE7reserve21do_reserve_and_handleINtNtBa_3vec3VecNtNtNtCs6nv0K25L1YS_14regex_automata4util10primitives7StateIDENtNtBa_5alloc6GlobalEB1J_
_RINvNvMs0_NtCsaz9ix1H7t6h_5alloc7raw_vecINtB8_6RawVecppE7reserve21do_reserve_and_handleNtNtBa_6string6StringNtNtBa_5alloc6GlobalECslmJ0Mh1KeWG_10pkg_config
_RINvNvMs0_NtCsaz9ix1H7t6h_5alloc7raw_vecINtB8_6RawVecppE7reserve21do_reserve_and_handleNtNtNtCs3k9pxlh0Big_12unicode_bidi9char_data6tables9BidiClassNtNtBa_5alloc6GlobalEB1t_
_RINvNvMs0_NtCsaz9ix1H7t6h_5alloc7raw_vecINtB8_6RawVecppE7reserve21do_reserve_and_handleTNtNtNtCs3xBtNxWzGYw_10serde_core7private7content7ContentB1o_ENtNtBa_5alloc6GlobalECs2PLpfR7eZEX_5serde
_RINvNvMs0_NtCsaz9ix1H7t6h_5alloc7raw_vecINtB8_6RawVecppE7reserve21do_reserve_and_handlehNtNtBa_5alloc6GlobalECseDkrr2n6Uma_5bytes
_RINvNvMs0_NtNtNtCs4USifnV5z1l_5tokio4sync4task12atomic_wakerNtB8_11AtomicWaker11do_register12catch_unwindNCIB2_RNtNtNtCsiL7B6CFZHyD_4core4task4wake5WakerEs4_0uEBe_
_RINvNvMs5_NtCseKMg8YIKLPN_7tinyvec7tinyvecINtB8_7TinyVecpE4push22drain_to_heap_and_pushAThcEj4_ECsaMSDOvq7TeD_4idna
_RINvNvMs_CsfSQqsC9MRoJ_12num_rationalINtB7_5RatiopE6reduce12replace_withsNCNvMs_B7_IBA_sE6reduces_0EB7_
_RINvNvMs_Csh9BO6w0kI1u_12num_rationalINtB7_5RatiopE6reduce12replace_withsNCNvMs_B7_IBA_sE6reduces0_0EB7_
_RINvNvMs_Cskrh2G7GktFm_12num_rationalINtB7_5RatiopE6reduce12replace_withoNCNvMs_B7_IBA_oE6reduces_0EB7_
_RINvNvMs_NtCsaz9ix1H7t6h_5alloc3vecINtB7_3VecppE10retain_mut12process_loopNCINvMs_B7_IBy_TNtNtNtNtCsaCO2qWNJEWF_9icu_locid10extensions7unicode3key3KeyNtNtB1u_5value5ValueEE6retainNCINvXs1_NtNtB1y_8shortvec7litemapINtB32_13ShortBoxSliceB1p_EINtNtCs7nhZ8ZQkb1t_7litemap5store8StoreMutB1q_B2o_E9lm_retainNCINvMNtB1u_8keywordsNtB4V_8Keywords13retain_by_keyNCNvMNtNtCseytyDyWBuek_19icu_locid_transform8fallback10algorithmsNtB5L_26LocaleFallbackerWithConfig9normalize0E0E0E0B1p_NtNtB9_5alloc6GlobalKb1_EB5N_
_RINvNvMs_NtCshgx866xcH9W_5alloc3vecINtB7_3VecppE10retain_mut12process_loopNCINvMs_B7_IBy_hE6retainNCNCNvXNtNtNtNtCs9V7caStxCCq_9arbitrary7foreign5alloc3ffi5c_strNtNtNtB9_3ffi5c_str7CStringNtB1N_9Arbitrary9arbitrary00E0hNtNtB9_5alloc6GlobalKb1_EB1N_
_RINvNvMs_NtCshgx866xcH9W_5alloc7raw_vecINtB7_6RawVecppE7reserve21do_reserve_and_handleINtNtB9_5boxed3BoxSNtNtNtNtCs5MsBAlmYmSD_4time18format_description5parse11format_item4ItemENtNtB9_5alloc6GlobalEB1N_
_RINvNvMs_NtCshgx866xcH9W_5alloc7raw_vecINtB7_6RawVecppE7reserve21do_reserve_and_handleINtNtNtCsiL7B6CFZHyD_4core3mem12maybe_uninit11MaybeUninitNtNtNtCshcLmOkTmYN7_11fixedbitset5block4sse25BlockENtNtB9_5alloc6GlobalEB2n_
_RINvNvMs_NtCshgx866xcH9W_5alloc7raw_vecINtB7_6RawVecppE7reserve21do_reserve_and_handleNtNtCs1cxMKpSN2o4_3syn4expr4ExprNtNtB9_5alloc6GlobalECs19S8JT9Sa42_12prettyplease
_RINvNvMs_NtCshgx866xcH9W_5alloc7raw_vecINtB7_6RawVecppE7reserve21do_reserve_and_handleNtNtCs6mYenWLVY1c_12ascii_canvas3row3RowNtNtB9_5alloc6GlobalEB1q_
_RINvNvMs_NtCshgx866xcH9W_5alloc7raw_vecINtB7_6RawVecppE7reserve21do_reserve_and_handleNtNtNtCs1AXjLQFzg9i_10serde_core7private7content7ContentNtNtB9_5alloc6GlobalECs9QFu8U3qrNj_5serde
_RINvNvMs_NtCshgx866xcH9W_5alloc7raw_vecINtB7_6RawVecppE7reserve21do_reserve_and_handleNtNtNtCsgsIpKNYvolR_4http6header3map3PosNtNtB9_5alloc6GlobalEB1s_
_RINvNvMs_NtCshgx866xcH9W_5alloc7raw_vecINtB7_6RawVecppE7reserve21do_reserve_and_handleNtNtNtNtCsfcZx8z6uiNH_14regex_automata3nfa8thompson10range_trie5StateNtNtB9_5alloc6GlobalEB1u_
_RINvNvMs_NtCshgx866xcH9W_5alloc7raw_vecINtB7_6RawVecppE7reserve21do_reserve_and_handleReNtNtB9_5alloc6GlobalECsi6pTmhHIU5M_9clang_sys
_RINvNvMs_NtCshgx866xcH9W_5alloc7raw_vecINtB7_6RawVecppE7reserve21do_reserve_and_handlebNtNtB9_5alloc6GlobalECshfzWP1bsRXe_14regex_automata
_RINvNvMs_NtCshgx866xcH9W_5alloc7raw_vecINtB7_6RawVecppE7reserve21do_reserve_and_handlehNtNtB9_5alloc6GlobalECs566YpswfL5w_9ansi_term
_RINvNvMs_NtCshgx866xcH9W_5alloc7raw_vecINtB7_6RawVecppE7reserve21do_reserve_and_handlehNtNtB9_5alloc6GlobalECscnXTRSNDF9a_7console
_RINvNvMs_NtCshgx866xcH9W_5alloc7raw_vecINtB7_6RawVecppE7reserve21do_reserve_and_handlehNtNtB9_5alloc6GlobalECsjh4mrTFEWVx_12regex_syntax
_RINvNvMs_NtCshgx866xcH9W_5alloc7raw_vecINtB7_6RawVecppE7reserve21do_reserve_and_handletNtNtB9_5alloc6GlobalECscPEoIbs4Kuq_5yasna
_RINvNvMse_NtCs9CeMAa3GKYH_12erased_serde3serNtB8_13StructVariant3new3endINtNtNtCs3dWPYqrSOsT_5serde3ser10impossible10ImpossibleuNtNtNtNtCsbpMoz2BpSnY_9value_bag8internal5serde2v111UnsupportedEEB2a_
_RINvNvNtCs2FIVCi1Wrow_3std9panicking3try7do_callINtNtNtCs5cYH0lLSdLc_4core5panic11unwind_safe16AssertUnwindSafeNCNvMs0_NtNtNtCs2WU2hRDnNVz_5tokio7runtime4task7harnessINtB1T_7HarnessINtNtNtB1X_8blocking4task12BlockingTaskNCNvXsh_NtNtB1Z_3net4addrTRetENtNtB3E_6sealed17ToSocketAddrsPriv15to_socket_addrs0ENtNtB2Y_8schedule16BlockingScheduleE21drop_join_handle_slow0EuEB1Z_
_RINvNvNtCs2FIVCi1Wrow_3std9panicking3try8do_catchINtNtNtCs5cYH0lLSdLc_4core5panic11unwind_safe16AssertUnwindSafeNCNvNtCsbLwEFGmkA9L_10rayon_core8registry9main_loops_0EuEB1S_
_RINvNvNtCs3NZLoJsOov_3std9panicking3try7do_callINtNtNtCsiL7B6CFZHyD_4core5panic11unwind_safe16AssertUnwindSafeNCINvNtNtNtCs4USifnV5z1l_5tokio7runtime4task7harness11poll_futureINtNtNtB1T_8blocking4task12BlockingTaskINtNtCshgx866xcH9W_5alloc5boxed3BoxNCNvXs_NtNtB1V_2io8blockingINtB46_8BlockingNtNtNtB6_2io5stdio6StdoutENtNtB48_11async_write10AsyncWrite10poll_write0EENtNtB2S_8schedule16BlockingScheduleEs_0EuEB1V_
_RINvNvNtCs3NZLoJsOov_3std9panicking3try7do_callINtNtNtCsiL7B6CFZHyD_4core5panic11unwind_safe16AssertUnwindSafeNCINvNtNtNtCsk9QERyUqk6O_5tokio7runtime4task7harness11poll_futureINtNtNtB1T_8blocking4task12BlockingTaskNCNvMNtNtNtB1T_9scheduler12multi_thread6workerNtB3v_6Launch6launch0ENtNtB2S_8schedule16BlockingScheduleEs_0EuEB1V_
_RINvNvNtCs3NZLoJsOov_3std9panicking3try7do_callINtNtNtCsiL7B6CFZHyD_4core5panic11unwind_safe16AssertUnwindSafeNCINvNtNtNtCslBVC6wF8Bgr_5tokio7runtime4task7harness11poll_futureINtNtNtB1T_8blocking4task12BlockingTaskNCNvXs_NtNtB1V_2io8blockingINtB3x_8BlockingNtNtNtB6_2io5stdio6StderrENtNtB3z_11async_write10AsyncWrite10poll_flush0ENtNtB2S_8schedule16BlockingScheduleEs_0EuEB1V_
_RINvNvNtCs3NZLoJsOov_3std9panicking3try7do_callINtNtNtCsiL7B6CFZHyD_4core5panic11unwind_safe16AssertUnwindSafeNCINvNtNtNtNtNtB6_3sys6common12thread_local10fast_local4fast13destroy_valueINtNtBQ_4cell4CellTyyEEE0EuECsdvjIhOb5ndw_5cexpr
_RINvNvNtCs3NZLoJsOov_3std9panicking3try7do_callINtNtNtCsiL7B6CFZHyD_4core5panic11unwind_safe16AssertUnwindSafeNCINvNtNtNtNtNtB6_3sys6common12thread_local10fast_local4fast13destroy_valueINtNtCshgx866xcH9W_5alloc4sync3ArcNtNtCs3H9oKPe6824_16futures_executor10local_pool12ThreadNotifyEE0EuEB3z_
_RINvNvNtCs3NZLoJsOov_3std9panicking3try7do_callINtNtNtCsiL7B6CFZHyD_4core5panic11unwind_safe16AssertUnwindSafeNCINvNvNtCs3sZDYscQcZY_10rayon_core4join12join_context6call_auNCINvNvNtNtCsivq4NZsOFee_5rayon4iter8plumbing24bridge_producer_consumer6helperINtNtB2T_9enumerate17EnumerateProducerINtNtB2T_3len14MaxLenProducerINtNtNtB2V_5slice6chunks17ChunksMutProducerhEEEINtNtB2T_8for_each15ForEachConsumerNCNvNtNtCsk1c4NF7YhJt_12jpeg_decoder6worker5rayon22compute_image_parallel0EE0E0EuEB6x_
_RINvNvNtCs3NZLoJsOov_3std9panicking3try7do_callINtNtNtCsiL7B6CFZHyD_4core5panic11unwind_safe16AssertUnwindSafeNCNvMs0_NtNtNtCs4USifnV5z1l_5tokio7runtime4task7harnessINtB1S_7HarnessINtNtNtB1W_8blocking4task12BlockingTaskNCNvXs_NtNtB1Y_2io8blockingINtB3C_8BlockingNtNtNtB6_2io5stdio6StderrENtNtB3E_11async_write10AsyncWrite10poll_flush0ENtNtB2X_8schedule16BlockingScheduleE21drop_join_handle_slow0EuEB1Y_
_RINvNvNtCs3NZLoJsOov_3std9panicking3try7do_callINtNtNtCsiL7B6CFZHyD_4core5panic11unwind_safe16AssertUnwindSafeNCNvMs0_NtNtNtCslBVC6wF8Bgr_5tokio7runtime4task7harnessINtB1S_7HarnessINtNtNtB1W_8blocking4task12BlockingTaskINtNtCshgx866xcH9W_5alloc5boxed3BoxNCNvXs_NtNtB1Y_2io8blockingINtB4b_8BlockingNtNtNtB6_2io5stdio6StderrENtNtB4d_11async_write10AsyncWrite10poll_flush0EENtNtB2X_8schedule16BlockingScheduleE21drop_join_handle_slow0EuEB1Y_
_RINvNvNtCs3NZLoJsOov_3std9panicking3try7do_callINtNtNtCsiL7B6CFZHyD_4core5panic11unwind_safe16AssertUnwindSafeNCNvMs1_NtCslAj3ugQP8Tn_10async_task3rawINtB1S_7RawTaskNCINvCskFZxpbhaWoe_8blocking7unblockNtNtNtCshFvNZPQTJhs_9async_std2io6stderr5StateNCNvXB3f_NtB3f_6StderrNtNtCslG5yY4CbCNy_10futures_io6if_std10AsyncWrite10poll_write0E0B3d_NCINvMs_B2I_NtB2I_8Executor5spawnB3d_B2D_Es_0uE3runs_0EINtNtNtBQ_4task4poll4PollB3d_EEB3j_
_RINvNvNtCs3NZLoJsOov_3std9panicking3try8do_catchINtNtNtCsiL7B6CFZHyD_4core5panic11unwind_safe16AssertUnwindSafeNCINvMs7_NtCs3sZDYscQcZY_10rayon_core3jobINtB1U_9JobResultTuuEE4callNCINvMs4_NtB1W_8registryNtB30_8Registry15in_worker_crossNCINvNtB1W_4join12join_contextNCINvNvNtNtCsivq4NZsOFee_5rayon4iter8plumbing24bridge_producer_consumer6helperINtNtB4o_9enumerate17EnumerateProducerINtNtB4o_3len14MaxLenProducerINtNtNtB4q_5slice6chunks17ChunksMutProducerhEEEINtNtB4o_8for_each15ForEachConsumerNCNvNtNtCsk1c4NF7YhJt_12jpeg_decoder6worker5rayon22compute_image_parallel0EE0NCB4h_s_0uuE0B2H_E0E0EB2H_EB82_
_RINvNvNtCs3NZLoJsOov_3std9panicking3try8do_catchINtNtNtCsiL7B6CFZHyD_4core5panic11unwind_safe16AssertUnwindSafeNCINvNtNtNtCs4USifnV5z1l_5tokio7runtime4task7harness11poll_futureINtNtNtB1U_8blocking4task12BlockingTaskNCNvXsf_NtNtB1W_3net4addreNtNtB3z_6sealed17ToSocketAddrsPriv15to_socket_addrs0ENtNtB2T_8schedule16BlockingScheduleEs_0EuEB1W_
_RINvNvNtCs3NZLoJsOov_3std9panicking3try8do_catchINtNtNtCsiL7B6CFZHyD_4core5panic11unwind_safe16AssertUnwindSafeNCINvNtNtNtCslBVC6wF8Bgr_5tokio7runtime4task7harness11cancel_taskINtNtNtB1U_8blocking4task12BlockingTaskINtNtCshgx866xcH9W_5alloc5boxed3BoxNCNvXs_NtNtB1W_2io8blockingINtB47_8BlockingNtNtNtB6_2io5stdio6StdoutENtNtB49_11async_write10AsyncWrite10poll_write0EENtNtB2T_8schedule16BlockingScheduleE0EuEB1W_
_RINvNvNtCs3NZLoJsOov_3std9panicking3try8do_catchINtNtNtCsiL7B6CFZHyD_4core5panic11unwind_safe16AssertUnwindSafeNCINvNtNtNtNtNtB6_3sys6common12thread_local10fast_local4fast13destroy_valueINtNtBR_4cell4CellINtNtNtBR_3num8wrapping8WrappingmEEE0EuECsiMGsmEihaLQ_17crossbeam_channel
_RINvNvNtCs3NZLoJsOov_3std9panicking3try8do_catchINtNtNtCsiL7B6CFZHyD_4core5panic11unwind_safe16AssertUnwindSafeNCINvNtNtNtNtNtB6_3sys6common12thread_local10fast_local4fast13destroy_valueINtNtBR_4cell4CellTyyEEE0EuECsidrnck1WR5S_9yaml_rust
_RINvNvNtCs3NZLoJsOov_3std9panicking3try8do_catchINtNtNtCsiL7B6CFZHyD_4core5panic11unwind_safe16AssertUnwindSafeNCINvNtNtNtNtNtB6_3sys6common12thread_local10fast_local4fast13destroy_valueNtNtCsaWmuPV6hRxo_12sharded_slab3tid12RegistrationE0EuEB32_
_RINvNvNtCs3NZLoJsOov_3std9panicking3try8do_catchINtNtNtCsiL7B6CFZHyD_4core5panic11unwind_safe16AssertUnwindSafeNCNCINvMNtB6_6threadNtB1T_7Builder16spawn_unchecked_NvNtCsdFqYMsaiBHL_21async_global_executor9threading16thread_main_loopuEs_00EuEB2F_
_RINvNvNtCs3NZLoJsOov_3std9panicking3try8do_catchINtNtNtCsiL7B6CFZHyD_4core5panic11unwind_safe16AssertUnwindSafeNCNvMs0_NtNtNtCsk9QERyUqk6O_5tokio7runtime4task7harnessINtB1T_7HarnessINtNtBR_3pin3PinINtNtCshgx866xcH9W_5alloc5boxed3BoxINtNtNtCsfuTXiacoSai_15trust_dns_proto4xfer12dns_exchange21DnsExchangeBackgroundINtNtB3N_15dns_multiplexer14DnsMultiplexerINtNtNtB3P_3tcp17tcp_client_stream15TcpClientStreamINtNtB3P_8iocompat17AsyncIoTokioAsStdNtNtNtNtB1Z_3net3tcp6stream9TcpStreamEENtNtNtB3P_2op7message20NoopMessageFinalizerENtB3P_9TokioTimeEEEINtNtB3e_4sync3ArcNtNtNtB1X_9scheduler14current_thread6HandleEE21drop_join_handle_slow0EuECshfZdcOEXVna_18trust_dns_resolver
_RINvNvNtCs3NZLoJsOov_3std9panicking3try8do_catchINtNtNtCsiL7B6CFZHyD_4core5panic11unwind_safe16AssertUnwindSafeNCNvMs0_NtNtNtCslBVC6wF8Bgr_5tokio7runtime4task7harnessINtB1T_7HarnessINtNtNtB1X_8blocking4task12BlockingTaskNCNvXs_NtNtB1Z_2io8blockingINtB3D_8BlockingNtNtNtB6_2io5stdio6StderrENtNtB3F_11async_write10AsyncWrite10poll_write0ENtNtB2Y_8schedule16BlockingScheduleE21drop_join_handle_slow0EuEB1Z_
_RINvNvNtCs3NZLoJsOov_3std9panicking3try8do_catchINtNtNtCsiL7B6CFZHyD_4core5panic11unwind_safe16AssertUnwindSafeNCNvXs5_NtB6_6threadINtB1T_6PacketuENtNtNtBR_3ops4drop4Drop4drop0EuECs4USifnV5z1l_5tokio
_RINvNvNtCshgx866xcH9W_5alloc4task9raw_waker10drop_wakerNtNvNtCsiOHhwSMIjMZ_8async_io6driver8block_on12BlockOnWakerEBX_
_RINvNvNtNtCs4EMmDgM0Qf0_3syn3lit5value11backslash_u18panic_cold_displayReEB8_
_RINvNvNtNtCsiL7B6CFZHyD_4core5slice4sort5merge17decrement_and_getNtNtCs23yxf7uxwGf_12regex_syntax3ast4SpanEB15_
_RINvNvNtNtCsiL7B6CFZHyD_4core5slice4sort5merge17decrement_and_getReECsgq42crzOkKS_14parse_zoneinfo
_RINvNvNtNtCsiL7B6CFZHyD_4core5slice4sort5merge17get_and_incrementNtNtCs3NZLoJsOov_3std4path7PathBufECsgwZHJb2rARN_5vcpkg
_RINvNvNtNtCsiL7B6CFZHyD_4core5slice4sort5merge17get_and_incrementTjINtNtCs3NZLoJsOov_3std6thread10JoinHandleuEEECsk9QERyUqk6O_5tokio
_RINvNvXNvXs2_NtNtNtCsaz9ix1H7t6h_5alloc11collections9vec_deque5drainINtBb_5DrainppENtNtNtCs5cYH0lLSdLc_4core3ops4drop4Drop4dropINtB5_9DropGuardppEB1j_4drop27join_head_and_tail_wrappinghNtNtBh_5alloc6GlobalECseDkrr2n6Uma_5bytes
_RINvNvXs0_NtNtNtCsiL7B6CFZHyD_4core4iter8adapters10take_whileINtB8_9TakeWhileppENtNtNtBc_6traits8iterator8Iterator8try_fold5checkRhjINtNtNtBe_3ops9try_trait17NeverShortCircuitjENCNvCsgMG1VsS5dC0_9deunicode23deunicode_with_tofu_cow0NCINvMB29_B26_10wrap_mut_2jB23_NCNvYIBY_INtNtNtBe_5slice4iter4IterhEB2P_EB1g_5count0E0EB2T_
_RINvNvXs0_NtNtNtCsiL7B6CFZHyD_4core4iter8adapters10take_whileINtB8_9TakeWhileppENtNtNtBc_6traits8iterator8Iterator8try_fold5checkTccEjINtNtNtBe_3ops9try_trait17NeverShortCircuitjENCNvCsdJUMyDMcOD8_6strsim12jaro_winkler0NCINvMB2b_B28_10wrap_mut_2jB23_NCNvYIBY_INtNtBa_3zip3ZipNtNtNtBe_3str4iter5CharsB4p_EB2R_EB1g_5count0E0EB2V_
_RINvNvXs0_NtNtNtCsiL7B6CFZHyD_4core4iter8adapters10take_whileINtB8_9TakeWhileppENtNtNtBc_6traits8iterator8Iterator8try_fold5checkhjINtNtNtBe_3ops9try_trait17NeverShortCircuitjENCNvNtCsjbFYZL0GDcx_8dirs_sys13xdg_user_dirs10trim_blank0NCINvMB28_B25_10wrap_mut_2jhNCNvYIBY_INtNtBa_6cloned6ClonedINtNtNtBe_5slice4iter4IterhEEB2O_EB1g_5count0E0EB2U_
_RINvNvXs_NtNtNtCsiL7B6CFZHyD_4core4iter8adapters4takeINtB7_4TakepENtNtNtBb_6traits8iterator8Iterator8for_each5checkNtNtNtCseDWgqLcbJaL_12unicode_bidi9char_data6tables9BidiClassNCINvMsi_NtCshgx866xcH9W_5alloc3vecINtB2X_3VecB1P_E14extend_trustedIBQ_INtNtNtBb_7sources6repeat6RepeatB1P_EEE0EB1V_
_RINvXCs9tS0ZXOg9jI_8num_convaNtB3_6Extend6extendlECs5MsBAlmYmSD_4time
_RINvXCskN1Yzg5nTsb_11procfs_coreNtNtNtB3_7process6status6StatusNtB3_8FromRead9from_readNtCs6JGgWY6YaLc_6procfs11FileWrapperEB1p_
_RINvXNtCs9CeMAa3GKYH_12erased_serde3mapINtNtCsiL7B6CFZHyD_4core6result6ResultNtCs4TgSHYTQ7no_9serde_fmt10DebugTupleNtB1f_5ErrorEINtB3_9ResultExtB1d_B1P_E10unsafe_mapNtNtB5_3ser5TupleECsbpMoz2BpSnY_9value_bag
_RINvXNtCsgEQ1G4KV3rS_5quote3extNtCsgMKgB7mnEUJ_11proc_macro211TokenStreamNtB3_14TokenStreamExt6appendNtBv_5IdentEB5_
_RINvXNtNtCs3NZLoJsOov_3std2io4copyINtNtCshgx866xcH9W_5alloc3vec3VechENtB3_16BufferedCopySpec7copy_toNtNtB7_7process11ChildStdoutECs20txnxQ5U84_7bindgen
_RINvXNtNtCsaz9ix1H7t6h_5alloc3vec14spec_from_elemNtNtNtCs2eZKGvXrlyD_14regex_automata4util10primitives7StateIDNtB3_12SpecFromElem9from_elemNtNtB7_5alloc6GlobalEBR_
_RINvXNtNtCsaz9ix1H7t6h_5alloc5slice4hackNtNtNtNtCs6nv0K25L1YS_14regex_automata3nfa8thompson10range_trie8NextIterNtB3_10ConvertVec6to_vecNtNtB7_5alloc6GlobalEBK_
_RINvXNtNtCsgMh45ZzF4i5_10serde_core2de11ignored_anyNtB3_10IgnoredAnyNtB5_7Visitor9visit_seqNtNtCsl7d2h0H2YpO_3ron2de14CommaSeparatedEB1v_
_RINvXNtNtCshgx866xcH9W_5alloc3vec14spec_from_elemNtNtNtCsczE7PKsO40l_4http6header3map3PosNtB3_12SpecFromElem9from_elemNtNtB7_5alloc6GlobalEBR_
_RINvXNtNtCshgx866xcH9W_5alloc5slice4hackINtNtNtCshfZdcOEXVna_18trust_dns_resolver11name_server11name_server10NameServerINtNtBH_19connection_provider16GenericConnectorNtNtB1W_13tokio_runtime20TokioRuntimeProviderEENtB3_10ConvertVec6to_vecNtNtB7_5alloc6GlobalEBJ_
_RINvXNtNtCshgx866xcH9W_5alloc5slice4hackNtNtNtCskt8TpxtZnof_4clap4args3arg3ArgNtB3_10ConvertVec6to_vecNtNtB7_5alloc6GlobalEBI_
_RINvXNtNtCshgx866xcH9W_5alloc5slice4hackTNtNtCs1cxMKpSN2o4_3syn3pat3PatNtNtBH_5token5CommaENtB3_10ConvertVec6to_vecNtNtB7_5alloc6GlobalEBH_
_RINvXNtNtCsiL7B6CFZHyD_4core4iter8adaptersINtB3_12GenericShuntINtNtB3_3map3MapINtNtNtB7_3str4iter5SplitReENCNvXs1_NtNtCscPEoIbs4Kuq_5yasna6models3oidNtB1O_16ObjectIdentifierNtNtB1j_6traits7FromStr8from_str0EINtNtB7_6result6ResultNtNtB7_7convert10InfallibleNtB1O_13ParseOidErrorEENtNtNtB5_6traits8iterator8Iterator8try_folduNCINvNvB4t_12try_for_each4callyINtNtNtB7_3ops12control_flow11ControlFlowyENcNtB5G_5Break0E0B5G_EB1S_
_RINvXNtNtCsiZF6J8pQ7ae_16concurrent_queue4sync7preludeINtNtCsiL7B6CFZHyD_4core4cell10UnsafeCellINtNtNtBV_3mem12maybe_uninit11MaybeUninitNtNtCsiOHhwSMIjMZ_8async_io7reactor7TimerOpEENtB3_13UnsafeCellExt8with_mutuNCNCNvXs_NtB7_6singleINtB3w_6SingleB2a_ENtNtNtBV_3ops4drop4Drop4drop00EB2e_
_RINvXNtNtNtCs39tN3kAyJfh_5bytes4loom4sync6atomicINtNtNtCsiL7B6CFZHyD_4core4sync6atomic9AtomicPtruEINtB3_9AtomicMutuE8with_mutNCNvNtB9_9bytes_mut13shared_v_drop0uEB9_
_RINvXNtNtNtCshSsKFDWfsSD_5bytes4loom4sync6atomicINtNtNtCsiL7B6CFZHyD_4core4sync6atomic9AtomicPtruEINtB3_9AtomicMutuE8with_mutNCNvNtB9_5bytes19promotable_odd_drop0uEB9_
_RINvXNtNtNtCsiL7B6CFZHyD_4core4iter8adapters12by_ref_sizedINtB3_10ByRefSizedNtNtNtB9_3ops11index_range10IndexRangeENtNtNtB7_6traits8iterator8Iterator4folduNCINvXs0_NtNtB9_5array4iterINtB2C_8IntoIterReKj1_EB1P_4folduNCINvNtB5_3map8map_foldB3a_NtNtCshgx866xcH9W_5alloc6string6StringuNCINvMs_NtCscZCgdd1uAPc_5regex8buildersNtB4D_7Builder3newAB3a_B3d_B3a_E0NCINvNvB1P_8for_each4callB3S_NCINvMsi_NtB3W_3vecINtB6h_3VecB3S_E14extend_trustedINtB3w_3MapB2U_B4v_EE0E0E0E0EB4F_
_RINvXNvNtNtCsivq4NZsOFee_5rayon4iter8plumbing6bridgeINtB3_8CallbackINtNtB7_8for_each15ForEachConsumerNCNvNtNtCsk1c4NF7YhJt_12jpeg_decoder6worker5rayon22compute_image_parallel0EEINtB5_16ProducerCallbackTjQShEE8callbackINtNtB7_9enumerate17EnumerateProducerINtNtB7_3len14MaxLenProducerINtNtNtB9_5slice6chunks17ChunksMutProducerhEEEEB1J_
_RINvXs0_NtCs39k8jHxWV8Y_3der9bytes_refNtB6_8BytesRefNtNtB8_6decode11DecodeValue12decode_valueNtNtNtB8_6reader5slice11SliceReaderEB8_
_RINvXs0_NtCsl7d2h0H2YpO_3ron2deQNtB6_12DeserializerNtNtCsgMh45ZzF4i5_10serde_core2de12Deserializer15deserialize_seqINtNvXsh_NtBP_5implsINtNtCshgx866xcH9W_5alloc3vec3VecpENtBP_11Deserialize11deserialize10VecVisitorhEEB8_
_RINvXs0_NtNtCs20txnxQ5U84_7bindgen2ir8templateNtB6_21TemplateInstantiationNtNtB8_9traversal5Trace5traceNCNCNvXs_NtNtB8_8analysis15template_paramsNtB1M_22UsedTemplateParametersNtB1O_17MonotoneFramework3new00EBa_
_RINvXs0_NtNtCs89pdyz7HZkL_12aho_corasick4util8remapperNtNtNtBa_3nfa13noncontiguous3NFANtB6_10Remappable5remapNCINvMB6_NtB6_8Remapper5remapBQ_E0EBa_
_RINvXs0_NtNtCsiL7B6CFZHyD_4core5array4iterINtB6_8IntoIterNtNtCs5Ng0wM7PJ5I_12regex_syntax3hir15ClassBytesRangeKj1_ENtNtNtNtBa_4iter6traits8iterator8Iterator4folduNCINvNvB1P_8for_each4callBT_NCINvMsi_NtCshgx866xcH9W_5alloc3vecINtB3b_3VecBT_E14extend_trustedBE_E0E0EBX_
_RINvXs0_NtNtCsjN361EugDAD_3der4asn13anyNtB6_6AnyRefNtNtBa_6decode6Decode6decodeINtNtNtBa_6reader6nested12NestedReaderNtNtB1k_5slice11SliceReaderEECs6dcfljeyQgu_4sec1
_RINvXs0_NtNtNtCs5cYH0lLSdLc_4core4iter8adapters10filter_mapINtB6_9FilterMapINtNtNtBc_5slice4iter4IterINtNtBc_6option6OptionNtNtNtNtCs7NbdE0zyweH_4toml3ser8document6buffer5TableEENCNvXs_B1Z_NtB1Z_6BufferNtNtBc_3fmt7Display3fmt0ENtNtNtBa_6traits8iterator8Iterator8try_folduNCINvNvB3D_4find5checkRB1X_QNCB2S_s_0E0INtNtNtBc_3ops12control_flow11ControlFlowB4H_EEB25_
_RINvXs0_NtNtNtCs5cYH0lLSdLc_4core4iter8adapters10take_whileINtB6_9TakeWhileINtNtB8_3zip3ZipINtNtNtBc_5slice4iter4IterhEB1r_ENCNvMs2_NtNtCs9nCsezDqTf4_12regex_syntax3hir7literalNtB26_3Seq21longest_common_prefix0ENtNtNtBa_6traits8iterator8Iterator8try_foldjNCINvMNtNtBc_3ops9try_traitINtB4b_17NeverShortCircuitjE10wrap_mut_2jTRhB5c_ENCNvYBV_B3n_5count0E0B4w_EB2a_
_RINvXs0_NtNtNtCs5cYH0lLSdLc_4core4iter8adapters3mapINtB6_3MapINtNtB8_6copied6CopiedINtNtNtBc_5slice4iter4ItercEENCINvNtCsaMSDOvq7TeD_4idna8punycode11encode_intoBX_NtNtCsaz9ix1H7t6h_5alloc6string6StringNtB1R_14ExternalCallerE0ENtNtNtBa_6traits8iterator8Iterator4foldmNCINvNtB8_6filter11filter_foldmmNCB1O_s_0NCINvNvB3C_6min_by4foldmNvYmNtNtBc_3cmp3Ord3cmpE0E0EB1T_
_RINvXs0_NtNtNtCs5cYH0lLSdLc_4core4iter8adapters3mapINtB6_3MapINtNtNtBc_5slice4iter4IterINtNtCsby9wAIILX7F_7tinystr5ascii12TinyAsciiStrKj8_EENvMB1q_B1n_6as_strENtNtNtBa_6traits8iterator8Iterator8try_folduNCINvNvB2x_12try_for_each4callReINtNtBc_6result6ResultuNtNtBc_3fmt5ErrorEQNCINvXsa_NtNtNtCsaCO2qWNJEWF_9icu_locid10extensions7unicode8keywordsNtB4A_8KeywordsNtCse2m2UGz0brZ_9writeable9Writeable8write_toNtNtCsaz9ix1H7t6h_5alloc6string6StringE0E0B3L_ECskmSJBJCpqyY_12icu_provider
_RINvXs0_NtNtNtCs5cYH0lLSdLc_4core4iter8adapters3mapINtB6_3MapINtNtNtBc_5slice4iter4IterNtNtNtCsaCO2qWNJEWF_9icu_locid7subtags7variant7VariantENCINvMNtB1r_8variantsNtB2m_8Variants19for_each_subtag_strNtNtBc_7convert10InfallibleNCNvXs9_B2m_B2B_NtCse2m2UGz0brZ_9writeable9Writeable21writeable_length_hint0E0ENtNtNtBa_6traits8iterator8Iterator8try_folduNCINvNvB4T_12try_for_each4callReINtNtBc_6result6ResultuB3b_EQB3C_E0B67_EB1t_
_RINvXs0_NtNtNtCs5cYH0lLSdLc_4core4iter8adapters3mapINtB6_3MapINtNtNtBc_5slice4iter4IterhENCNvNtNtCseN3EgHAt5QS_8petgraph6graph614graph6_decoder19get_bits_as_decimal0ENtNtNtBa_6traits8iterator8Iterator4folduNCINvNvB2E_8for_each4callNtNtCsaz9ix1H7t6h_5alloc6string6StringNCINvMsi_NtB3L_3vecINtB4s_3VecB3H_E14extend_trustedBN_E0E0EB1x_
_RINvXs0_NtNtNtCs5cYH0lLSdLc_4core4iter8adapters3mapINtB6_3MapINtNtNtCsaz9ix1H7t6h_5alloc3vec9into_iter8IntoIterNtNtCs4O6ck48ZfFc_5regex7compile9MaybeInstENCNvMB1N_NtB1N_8Compiler14compile_finish0ENtNtNtBa_6traits8iterator8Iterator8try_foldINtNtB12_13in_place_drop11InPlaceDropNtNtB1P_4prog4InstENCINvNtB12_16in_place_collect24write_in_place_with_dropB4q_E0INtNtBc_6result6ResultB3P_zEEB1P_
_RINvXs0_NtNtNtCs7NbdE0zyweH_4toml2de12deserializer5valueNtB6_17ValueDeserializerNtNtCsdAnUIRMebSX_10serde_core2de12Deserializer15deserialize_anyNtNvXsl_NtCs4NfhPM3uXW3_13toml_datetime8datetimeNtB2q_18DatetimeFromStringNtB1i_11Deserialize11deserialize7VisitorEBc_
_RINvXs0_NtNtNtCsiL7B6CFZHyD_4core4iter8adapters10filter_mapINtB6_9FilterMapINtNtNtBc_5slice4iter4IterNtNtCsj40W3ef8J8f_12tracing_core10dispatcher9RegistrarENCNvMNtB1F_8callsiteNtB2z_8Registry25rebuild_callsite_interest0ENtNtNtBa_6traits8iterator8Iterator4foldNtNtB1F_10subscriber8InterestNvMs_B4b_B49_3andEB1F_
_RINvXs0_NtNtNtCsiL7B6CFZHyD_4core4iter8adapters10take_whileINtB6_9TakeWhileINtNtB8_3rev3RevINtNtNtBc_5slice4iter4IterhEENCINvCs5LQ9Q6pHthj_13data_encoding9check_padNtB1Z_2N6E0ENtNtNtBa_6traits8iterator8Iterator8try_foldjNCINvMNtNtBc_3ops9try_traitINtB3C_17NeverShortCircuitjE10wrap_mut_2jRhNCNvYBV_B2O_5count0E0B3X_EB1Z_
_RINvXs0_NtNtNtCsiL7B6CFZHyD_4core4iter8adapters10take_whileINtB6_9TakeWhileINtNtB8_3rev3RevINtNtNtBc_5slice4iter4IterhEENCNvMsa_NtNtCsiXDYCUwaNF1_11miniz_oxide7deflate4coreNtB22_12HuffmanOxide19start_dynamic_blocks_0ENtNtNtBa_6traits8iterator8Iterator8try_foldjNCINvMNtNtBc_3ops9try_traitINtB4h_17NeverShortCircuitjE10wrap_mut_2jRhNCNvYBV_B3t_5count0E0B4C_EB26_
_RINvXs0_NtNtNtCsiL7B6CFZHyD_4core4iter8adapters10take_whileINtB6_9TakeWhileINtNtB8_3zip3ZipINtNtB8_3rev3RevINtNtNtBc_5slice4iter4IterhEEB1r_ENCNvMNtNtCs302BLY9Avsm_12regex_syntax3hir7literalNtB2k_8Literals21longest_common_suffix0ENtNtNtBa_6traits8iterator8Iterator8try_foldjNCINvMNtNtBc_3ops9try_traitINtB4u_17NeverShortCircuitjE10wrap_mut_2jTRhB5v_ENCNvYBV_B3G_5count0E0B4P_EB2o_
_RINvXs0_NtNtNtCsiL7B6CFZHyD_4core4iter8adapters10take_whileINtB6_9TakeWhileINtNtB8_3zip3ZipINtNtNtBc_5slice4iter4IterNtNtCs5Ng0wM7PJ5I_12regex_syntax4utf89Utf8RangeEIB1s_NtNtNtNtCs2UqitWCaGEJ_14regex_automata3nfa8thompson8compiler8Utf8NodeEENCNvMs4_B2K_NtB2K_12Utf8Compiler3add0ENtNtNtBa_6traits8iterator8Iterator8try_foldjNCINvMNtNtBc_3ops9try_traitINtB5h_17NeverShortCircuitjE10wrap_mut_2jTRB1R_RB2I_ENCNvYBV_B4t_5count0E0B5C_EB2Q_
_RINvXs0_NtNtNtCsiL7B6CFZHyD_4core4iter8adapters10take_whileINtB6_9TakeWhileINtNtB8_6filter6FilterNtNtNtCs20txnxQ5U84_7bindgen2ir4item17ItemAncestorsIterNCNvMsj_B1z_NtB1z_4Item19real_canonical_name0ENCB2s_s_0ENtNtNtBa_6traits8iterator8Iterator8try_folduNCINvNvB3k_4find5checkNtNtB1B_7context6ItemIdQNCB2s_s0_0E0INtNtNtBc_3ops12control_flow11ControlFlowB4o_EEB1D_
_RINvXs0_NtNtNtCsiL7B6CFZHyD_4core4iter8adapters3mapINtB6_3MapIBO_INtNtB8_6copied6CopiedINtNtNtBc_5slice4iter4IterThhEEENCNvNtNtCs6c37mDEUb8k_12regex_syntax3hir9translate20ascii_class_as_chars0ENCNvMs3_B1X_NtB1X_11TranslatorI23hir_ascii_unicode_class0ENtNtNtBa_6traits8iterator8Iterator4folduNCINvNvB41_8for_each4callNtB1Z_17ClassUnicodeRangeNCINvMsi_NtCshgx866xcH9W_5alloc3vecINtB5C_3VecB54_E14extend_trustedBN_E0E0EB21_
_RINvXs0_NtNtNtCsiL7B6CFZHyD_4core4iter8adapters3mapINtB6_3MapINtNtB8_3rev3RevINtNtNtBc_5slice4iter4IterjEENvYjNtNtBc_5clone5Clone5cloneENtNtNtBa_6traits8iterator8Iterator4folduNCINvNvB2a_8for_each4calljNCINvMsi_NtCshgx866xcH9W_5alloc3vecINtB3n_3VecjE14extend_trustedINtNtB8_6cloned6ClonedBX_EE0E0ECsf48c72s39yb_14regex_automata
_RINvXs0_NtNtNtCsiL7B6CFZHyD_4core4iter8adapters3mapINtB6_3MapINtNtB8_6filter6FilterIBO_INtNtNtBc_5slice4iter4IterNtNtNtCs20txnxQ5U84_7bindgen2ir7context6TypeIdENCNvMNtNtB1R_8analysis15template_paramsNtB2D_22UsedTemplateParameters47constrain_instantiation_of_blocklisted_template0ENCB2A_s_0ENCB2A_s0_0ENtNtNtBa_6traits8iterator8Iterator4folduNCINvNvMsg_NtB8_7flattenINtB5E_13FlattenCompatppE9iter_fold7flattenINtNtNtNtCshgx866xcH9W_5alloc11collections5btree3set4IterNtB1P_6ItemIdEuNCINvNvXsi_B5E_B5R_B4P_4fold7flattenB6y_uNCINvB6_8map_foldRB7t_B7t_uNvYB7t_NtNtBc_5clone5Clone5cloneNCINvNvB4P_8for_each4callB7t_NCINvXsm_B6B_INtB6B_8BTreeSetB7t_EINtNtB4T_7collect6ExtendB7t_E6extendINtNtB8_6cloned6ClonedINtB5E_7FlatMapBX_B6y_B4E_EEE0E0E0E0E0EB1T_
_RINvXs0_NtNtNtCsiL7B6CFZHyD_4core4iter8adapters3mapINtB6_3MapINtNtNtBc_3ops5range5RangejENCINvMNtNtCs2GX3rYzX9NP_14regex_automata3dfa8remapperNtB1v_8Remapper3newINtNtB1x_5dense3DFAINtNtCshgx866xcH9W_5alloc3vec3VecmEEE0ENtNtNtBa_6traits8iterator8Iterator4folduNCINvNvB3v_8for_each4callNtNtNtB1z_4util10primitives7StateIDNCINvMsi_B2V_IB2T_B4y_E14extend_trustedBN_E0E0EB1z_
_RINvXs0_NtNtNtCsiL7B6CFZHyD_4core4iter8adapters3mapINtB6_3MapINtNtNtBc_3str4iter5SplitcENCINvXNtCskN1Yzg5nTsb_11procfs_core6mountsINtNtCshgx866xcH9W_5alloc3vec3VecNtB1u_10MountEntryENtB1w_11FromBufRead13from_buf_readINtNtNtNtCs3NZLoJsOov_3std2io8buffered9bufreader9BufReaderNtNtB3B_2fs4FileEE0ENtNtNtBa_6traits8iterator8Iterator4folduNCINvNvB4I_8for_each4callTNtNtB29_6string6StringINtNtBc_6option6OptionB5M_EENCINvXs1x_NtCshK2h5RPyNs1_9hashbrown3mapINtB6K_7HashMapB5M_B68_NtNtNtNtB3B_11collections4hash3map11RandomStateEINtNtB4M_7collect6ExtendB5L_E6extendBN_E0E0ECs6JGgWY6YaLc_6procfs
_RINvXs0_NtNtNtCsiL7B6CFZHyD_4core4iter8adapters3mapINtB6_3MapINtNtNtBc_5slice4iter4IterINtNtNtCs7v7Yapv3qqg_13futures_timer6native4heap8SlabSlotjEENCINvNvXs0_NtB8_6filterINtB2w_6FilterppENtNtNtBa_6traits8iterator8Iterator5count8to_usizeRB1n_NCNvMB1q_INtB1q_4HeapNtNtB1s_10heap_timer9HeapTimerE17assert_consistent0E0EB2Z_4foldjNCINvXsK_NtB33_5accumjNtB5n_3Sum3sumBN_E0EB1u_
_RINvXs0_NtNtNtCsiL7B6CFZHyD_4core4iter8adapters3mapINtB6_3MapINtNtNtBc_5slice4iter4IterNtNtCs6c37mDEUb8k_12regex_syntax3hir17ClassUnicodeRangeENCNvMsa_B1p_NtB1p_12ClassUnicode13to_byte_class0ENtNtNtBa_6traits8iterator8Iterator4folduNCINvNvB34_8for_each4callNtB1p_15ClassBytesRangeNCINvMsi_NtCshgx866xcH9W_5alloc3vecINtB4D_3VecB47_E14extend_trustedBN_E0E0EB1r_
_RINvXs0_NtNtNtCsiL7B6CFZHyD_4core4iter8adapters3mapINtB6_3MapINtNtNtBc_5slice4iter4IterNtNtCshgx866xcH9W_5alloc6string6StringENCNvXst_NtCs20txnxQ5U84_7bindgen7codegenNtNtNtB2a_2ir7enum_ty4EnumNtB28_13CodeGenerator7codegens5_0ENtNtNtBa_6traits8iterator8Iterator4folduNCINvNvB3C_8for_each4callNtCsgMKgB7mnEUJ_11proc_macro211TokenStreamNCINvMsi_NtB1r_3vecINtB5u_3VecB4F_E14extend_trustedBN_E0E0EB2a_
_RINvXs0_NtNtNtCsiL7B6CFZHyD_4core4iter8adapters3mapINtB6_3MapINtNtNtBc_5slice4iter4IterNtNtNtCs6c37mDEUb8k_12regex_syntax3hir7literal7LiteralENCNCINvMNtNtCs2GX3rYzX9NP_14regex_automata4util9prefilterNtB2o_9Prefilter3newB1n_E00ENtNtNtBa_6traits8iterator8Iterator4foldjNCINvNvB3D_6max_by4foldjNvYjNtNtBc_3cmp3Ord3cmpE0EB2s_
_RINvXs0_NtNtNtCsiL7B6CFZHyD_4core4iter8adapters3mapINtB6_3MapINtNtNtBc_5slice4iter4IterRShENCINvMNtNtNtCs8u8Bt1oxYji_14regex_automata4util9prefilter5teddyNtB1x_5Teddy3newB1n_E0ENtNtNtBa_6traits8iterator8Iterator4foldjNCINvNvB2P_6min_by4foldjNvYjNtNtBc_3cmp3Ord3cmpE0EB1D_
_RINvXs0_NtNtNtCsiL7B6CFZHyD_4core4iter8adapters3mapINtB6_3MapINtNtNtBc_5slice4iter4IterTRNtNtCsC7QMccVbR7_12tracing_core5field5FieldINtNtBc_6option6OptionRDNtB1r_5ValueEL_EEENCINvNvXs0_NtB8_6filterINtB2X_6FilterppENtNtNtBa_6traits8iterator8Iterator5count8to_usizeRB1n_NCNvMsO_B1r_NtB1r_8ValueSet3len0E0EB3q_4foldjNCINvXsK_NtB3u_5accumjNtB5a_3Sum3sumBN_E0EB1t_
_RINvXs0_NtNtNtCsiL7B6CFZHyD_4core4iter8adapters3mapINtB6_3MapINtNtNtBc_5slice4iter4IterhENCNvXs8_NtNtCseiJFhKSjCIQ_4http3uri9authorityNtB1x_9AuthorityNtNtBc_3cmp10PartialOrd11partial_cmp0ENtNtNtBa_6traits8iterator8Iterator8try_folduNCINvNvB30_12try_for_each4callhINtNtNtBc_3ops12control_flow11ControlFlowIB4e_INtNtBc_6option6OptionNtB2q_8OrderingEB5j_EENCINvNvB32_12iter_compare7compareIBO_BX_NCB1r_s_0EhB4X_NCINvNvB30_14partial_cmp_by7comparehhNCINvYBN_B30_11partial_cmpB6c_E0E0E0E0B4d_EB1B_
_RINvXs0_NtNtNtCsiL7B6CFZHyD_4core4iter8adapters3mapINtB6_3MapINtNtNtBc_5slice4iter4IterhENCNvXse_NtNtCsh1ZAnSc5i7h_4http3uri9authorityNtNtCshgx866xcH9W_5alloc6string6StringINtNtBc_3cmp10PartialOrdNtB1x_9AuthorityE11partial_cmp0ENtNtNtBa_6traits8iterator8Iterator8try_folduNCINvNvB3E_12try_for_each4callhINtNtNtBc_3ops12control_flow11ControlFlowIB4S_INtNtBc_6option6OptionNtB2N_8OrderingEB5X_EENCINvNvB3G_12iter_compare7compareIBO_BX_NCB1r_s_0EhB5B_NCINvNvB3E_14partial_cmp_by7comparehhNCINvYBN_B3E_11partial_cmpB6Q_E0E0E0E0B4R_EB1B_
_RINvXs0_NtNtNtCsiL7B6CFZHyD_4core4iter8adapters3mapINtB6_3MapINtNtNtBc_5slice4iter6ChunkshENCNvXs3_NtNtNtCsfcdQbM8XNhc_7asn1_rs10asn1_types7strings15universalstringNtB1z_15UniversalStringINtNtBc_7convert7TryFromRNtNtB1D_3any3AnyE8try_from0ENtNtNtBa_6traits8iterator8Iterator8try_folduNCINvXB8_INtB8_12GenericShuntBN_INtNtBc_6option6OptionNtB32_10InfallibleEEB3Q_8try_folduNCINvNvB3Q_12try_for_each4callcINtNtNtBc_3ops12control_flow11ControlFlowcENcNtB6t_5Break0E0B6t_E0IB6u_B6t_EEB1F_
_RINvXs0_NtNtNtCsiL7B6CFZHyD_4core4iter8adapters3mapINtB6_3MapINtNtNtCshgx866xcH9W_5alloc3vec9into_iter8IntoIterNtNtNtCs20txnxQ5U84_7bindgen2ir7context6ItemIdENCNvMsj_NtB1P_4itemNtB2E_4Item19real_canonical_names1_0ENtNtNtBa_6traits8iterator8Iterator8try_foldINtNtB12_13in_place_drop11InPlaceDropNtNtB14_6string6StringENCINvNtB8_6filter15filter_try_foldB4I_B47_INtNtBc_6result6ResultB47_zENCB2y_s2_0NCINvNtB12_16in_place_collect24write_in_place_with_dropB4I_E0E0B5L_EB1R_
_RINvXs0_NtNtNtCsiL7B6CFZHyD_4core4iter8adapters3mapINtB6_3MapNtCsgMG1VsS5dC0_9deunicode14AsciiCharsIterNCNvBZ_23deunicode_with_tofu_cows0_0ENtNtNtBa_6traits8iterator8Iterator4folduNCINvNvB2e_8for_each4callReNCINvXsd_NtCshgx866xcH9W_5alloc6stringNtB3s_6StringINtNtB2i_7collect6ExtendB3h_E6extendBN_E0E0EBZ_
_RINvXs0_NtNtNtCsiL7B6CFZHyD_4core4iter8adapters3mapINtB6_3MapNtNtNtBc_3str4iter5CharsNCNvXs2_NtCslPurtWLbJ9k_7unicase5asciiINtB1v_5AsciiReENtNtBc_3cmp3Ord3cmp0ENtNtNtBa_6traits8iterator8Iterator8try_folduNCINvNvB2y_12try_for_each4callcINtNtNtBc_3ops12control_flow11ControlFlowIB3M_NtB2f_8OrderingB4v_EENCINvNvB2A_12iter_compare7compareIBO_BX_NCB1n_s_0EcB4v_NCINvNvB2y_6cmp_by7compareccNCINvYBN_B2y_3cmpB5n_E0E0E0E0B3L_ECs6t4gltehe4Q_10mime_guess
_RINvXs0_NtNtNtCsiL7B6CFZHyD_4core4iter8adapters6copiedINtB6_6CopiedINtNtNtBc_5slice4iter4IterNtNtNtCseDWgqLcbJaL_12unicode_bidi9char_data6tables9BidiClassEENtNtNtBa_6traits12double_ended19DoubleEndedIterator9try_rfolduNCINvNvB2u_5rfind5checkB1t_NvNtB1z_7prepare17not_removed_by_x9E0INtNtNtBc_3ops12control_flow11ControlFlowB1t_EEB1z_
_RINvXs0_NtNtNtCsiL7B6CFZHyD_4core4iter8adapters6filterINtB6_6FilterINtNtNtBc_5slice4iter4IterNtNtNtCs20txnxQ5U84_7bindgen2ir4comp6MethodENCNCNCNvMsj_NtB1x_4itemNtB2n_4Item14overload_index0s_00ENtNtNtBa_6traits8iterator8Iterator8try_foldjNCINvNvB35_8position5checkRB1t_NCB2d_s_0E0INtNtNtBc_3ops12control_flow11ControlFlowjjEEB1z_
_RINvXs0_NtNtNtCsjN361EugDAD_3der4asn116printable_string13___impl_stringNtB8_18PrintableStringRefNtNtBc_6decode11DecodeValue12decode_valueNtNtNtBc_6reader5slice11SliceReaderEBc_
_RINvXs1_NtCs7NbdE0zyweH_4toml5tableINtNtB8_3map3MapNtNtCsaz9ix1H7t6h_5alloc6string6StringNtNtB8_5value5ValueENtNtCsdAnUIRMebSX_10serde_core3ser9Serialize9serializeNtNtNtNtB8_3ser5value3map18MapValueSerializerEB8_
_RINvXs1_NtNtCshgx866xcH9W_5alloc3vec14spec_from_elemhNtB6_12SpecFromElem9from_elemNtNtBa_5alloc6GlobalECs2X3rQV7wZYL_3pem
_RINvXs1_NtNtNtCs5cYH0lLSdLc_4core4iter8adapters6filterINtB6_6FilterINtNtB8_3map3MapINtNtB8_6copied6CopiedINtNtNtBc_5slice4iter4ItercEENCINvNtCsaMSDOvq7TeD_4idna8punycode11encode_intoB1j_NtNtCsaz9ix1H7t6h_5alloc6string6StringNtB2d_14InternalCallerE0ENCB2a_s_0ENtNtNtBa_6traits8iterator8Iterator4foldmNCINvNvB49_6min_by4foldmNvYmNtNtBc_3cmp3Ord3cmpE0EB2f_
_RINvXs1_NvXNvNvNtCsl7d2h0H2YpO_3ron2de23is_serde_tag_or_contents_1__NtBb_20InternallyTaggedEnumNtNtCsgMh45ZzF4i5_10serde_core2de11Deserialize11deserializeNtB6_s_7___FieldB1v_11deserializeINtNtNtNtCs9jILlod8Q2y_5serde7private2de7content19ContentDeserializerNtBb_11TypeIdErrorEEBf_
_RINvXs1u_NtCsffYwmj09FSj_9hashbrown3mapINtB7_7HashMapRjRNtNtCsaz9ix1H7t6h_5alloc6string6StringNtNtNtCs2FIVCi1Wrow_3std4hash6random11RandomStateEINtNtNtNtCs5cYH0lLSdLc_4core4iter6traits7collect6ExtendTBP_BR_EE6extendINtNtNtB2p_8adapters3map3MapINtNtNtNtB1A_11collections4hash3map4IterBS_jENCNvXsi_NtCs4O6ck48ZfFc_5regex10re_unicodeNtB4K_13CapturesDebugNtNtB2r_3fmt5Debug3fmt0EEB4M_
_RINvXs2T_NtNtCsiL7B6CFZHyD_4core5slice4iterINtB7_4IterINtNtCshgx866xcH9W_5alloc2rc2RcDNtNtCs20txnxQ5U84_7bindgen9callbacks14ParseCallbacksEL_EENtNtNtNtBb_4iter6traits8iterator8Iterator8for_eachNCINvMs4_B1q_NtNtB1q_7options14BindgenOptions17for_each_callbackNCNvXsa_NtB1q_7codegenNtNtNtB1q_2ir2ty4TypeNtB4f_13CodeGenerator7codegens_0E0EB1q_
_RINvXs2T_NtNtCsiL7B6CFZHyD_4core5slice4iterINtB7_4IterNtNtCs9rvCcTOJGkv_9quick_xml4name16NamespaceBindingENtNtNtNtBb_4iter6traits8iterator8Iterator9rpositionNCNvMsj_BS_NtBS_17NamespaceResolver9set_level0EBU_
_RINvXs2T_NtNtCsiL7B6CFZHyD_4core5slice4iterINtB7_4IterNtNtCskt8TpxtZnof_4clap3app3AppENtNtNtNtBb_4iter6traits8iterator8Iterator4findNCNvMNtNtBU_11completions4bashNtB2b_7BashGen20all_options_for_paths_0EBU_
_RINvXs2T_NtNtCsiL7B6CFZHyD_4core5slice4iterINtB7_4IterNtNtNtCs302BLY9Avsm_12regex_syntax3hir7literal7LiteralENtNtNtNtBb_4iter6traits8iterator8Iterator3anyNCNvMBS_NtBS_8Literals12any_complete0EBW_
_RINvXs2T_NtNtCsiL7B6CFZHyD_4core5slice4iterINtB7_4IterNtNtNtCsfuTXiacoSai_15trust_dns_proto2rr8resource6RecordENtNtNtNtBb_4iter6traits8iterator8Iterator8find_mapTmRNtNtNtBU_5rdata3soa3SOAEQNCNvMs4_NtNtBW_4xfer12dns_responseNtB39_11DnsResponse12negative_ttl0EBW_
_RINvXs2T_NtNtCsiL7B6CFZHyD_4core5slice4iterINtB7_4IterNtNtNtNtCskt8TpxtZnof_4clap4args11arg_builder4flag11FlagBuilderENtNtNtNtBb_4iter6traits8iterator8Iterator3anyNCNCNCNvMNtNtBY_3app6parserNtB2K_6Parser17app_debug_assertss_000EBY_
_RINvXs2T_NtNtCsiL7B6CFZHyD_4core5slice4iterINtB7_4IterRNtNtCsjh4mrTFEWVx_12regex_syntax3hir3HirENtNtNtNtBb_4iter6traits8iterator8Iterator3allNCINvMs2_NtNtNtCsfcZx8z6uiNH_14regex_automata3nfa8thompson8compilerNtB2o_8Compiler7compileBQ_E0EB2u_
_RINvXs2T_NtNtCsiL7B6CFZHyD_4core5slice4iterINtB7_4IterReENtNtNtNtBb_4iter6traits8iterator8Iterator3anyNCNvXs8_NtB9_3cmpBQ_NtB1K_13SliceContains14slice_contains0ECsgIwdqgcNuRU_5serde
_RINvXs2T_NtNtCsiL7B6CFZHyD_4core5slice4iterINtB7_4IterTNtCscPEoIbs4Kuq_5yasna3TagRShjEENtNtNtNtBb_4iter6traits8iterator8Iterator8positionNCNvMs1_NtBT_6readerNtB2j_12BERReaderSet4next0EBT_
_RINvXs2T_NtNtCsiL7B6CFZHyD_4core5slice4iterINtB7_4IterTtNtNtCshDAon63rG69_10ttf_parser8language8LanguageReB1E_EENtNtNtNtBb_4iter6traits8iterator8Iterator8positionNCNvMBU_BS_16windows_language0EBW_
_RINvXs2T_NtNtCsiL7B6CFZHyD_4core5slice4iterINtB7_4IterhENtNtNtNtBb_4iter6traits8iterator8Iterator3allNCNvNtB9_5ascii8is_ascii0ECsfeSLn7preQ4_8httpdate
_RINvXs2T_NtNtCsiL7B6CFZHyD_4core5slice4iterINtB7_4IterhENtNtNtNtBb_4iter6traits8iterator8Iterator3allNvNvXNtNtNtCsfcdQbM8XNhc_7asn1_rs10asn1_types7strings13teletexstringNtB1G_13TeletexStringNtB1I_16TestValidCharset18test_valid_charset10is_visibleEB1M_
_RINvXs2T_NtNtCsiL7B6CFZHyD_4core5slice4iterINtB7_4IterhENtNtNtNtBb_4iter6traits8iterator8Iterator8positionNCINvNtCs9rvCcTOJGkv_9quick_xml6escape7__escapeNCINvB1L_14minimal_escapeINtNtCshgx866xcH9W_5alloc6borrow3CoweEE0B2Q_E0EB1N_
_RINvXs2T_NtNtCsiL7B6CFZHyD_4core5slice4iterINtB7_4IterhENtNtNtNtBb_4iter6traits8iterator8Iterator8positionNCNvNtCsjbFYZL0GDcx_8dirs_sys13xdg_user_dirs10split_once0EB1M_
_RINvXs2T_NtNtCsiL7B6CFZHyD_4core5slice4iterINtB7_4IterhENtNtNtNtBb_4iter6traits8iterator8Iterator8positionNCNvXse_B7_INtB7_5SplithNCNvXCsi34XVEUWc49_15form_urlencodedNtB29_5ParseBS_4next0EBS_4next0EB29_
_RINvXs2T_NtNtCsiL7B6CFZHyD_4core5slice4iterINtB7_4ItermENtNtNtNtBb_4iter6traits8iterator8Iterator8positionNCNvMst_NtCs4Ra6QXC7Q85_10widestring5ucstrNtB1O_7U32CStr19from_slice_truncate0EB1Q_
_RINvXs2T_NtNtCsiL7B6CFZHyD_4core5slice4iterINtB7_4IteryENtNtNtNtBb_4iter6traits8iterator8Iterator9rpositionNCNvMsh_NtCs16toIqv7aHG_10num_bigint7biguintNtB1P_7BigUint9normalize0EB1R_
_RINvXs2U_NtNtCs5cYH0lLSdLc_4core5slice4iterINtB7_4IterNtNtCs3k9pxlh0Big_12unicode_bidi5level5LevelENtNtNtNtBb_4iter6traits8iterator8Iterator3anyNCNvBS_7has_rtl0EBU_
_RINvXs2U_NtNtCs5cYH0lLSdLc_4core5slice4iterINtB7_4IterNtNtNtCs2X71yuh7ehP_12regex_syntax3hir7literal7LiteralENtNtNtNtBb_4iter6traits8iterator8Iterator4foldjNCNvMBS_NtBS_8Literals13cross_product0EBW_
_RINvXs2U_NtNtCs5cYH0lLSdLc_4core5slice4iterINtB7_4IterRShENtNtNtNtBb_4iter6traits8iterator8Iterator4foldjNCINvNtNtB10_8adapters3map8map_foldRBQ_jjNCNCNvYeINtNtNtCsbgyCs3cvOro_7zerovec3ule6encode14EncodeAsVarULEeE18encode_var_ule_len00NCINvXsK_NtBY_5accumjNtB3T_3Sum3sumINtB1K_3MapBF_B2k_EE0E0ECseytyDyWBuek_19icu_locid_transform
_RINvXs2U_NtNtCs5cYH0lLSdLc_4core5slice4iterINtB7_4IterTReRSTccEEENtNtNtNtBb_4iter6traits8iterator8Iterator8positionNCNvNvNtCs9nCsezDqTf4_12regex_syntax7unicode4ages3imp0EB1X_
_RINvXs2U_NtNtCs5cYH0lLSdLc_4core5slice4iterINtB7_4ItercENtNtNtNtBb_4iter6traits8iterator8Iterator9rpositionNCINvMs2_NtCsaMSDOvq7TeD_4idna8punycodeNtB1Q_7Decoder6decodecNtB1Q_14InternalCallerE0EB1S_
_RINvXs2U_NtNtCs5cYH0lLSdLc_4core5slice4iterINtB7_4IterhENtNtNtNtBb_4iter6traits8iterator8Iterator8positionNCINvMs2_NtCsaMSDOvq7TeD_4idna5uts46NtB1P_5Uts467processNtNtCsaz9ix1H7t6h_5alloc6string6StringNCNvB1L_17to_ascii_from_cow0Es0_0EB1R_
_RINvXs2U_NtNtCs5cYH0lLSdLc_4core5slice4iterINtB7_4IterhENtNtNtNtBb_4iter6traits8iterator8Iterator8positionNCNvCsg78kNrVzoOb_15form_urlencoded12replace_plus0EB1K_
_RINvXs2U_NtNtCs5cYH0lLSdLc_4core5slice4iterINtB7_4IterlENtNtNtNtBb_4iter6traits8iterator8Iterator4foldlNCINvXsc_NtBW_5accumlINtB1M_3SumRlE3sumBF_E0ECsfQ8IEn1gy0G_11miniz_oxide
_RINvXs2_NtNtCs1XKReJ1SRGG_18tracing_subscriber6filter9directiveINtB6_12DirectiveSetNtB6_15StaticDirectiveEINtNtNtNtCsiL7B6CFZHyD_4core4iter6traits7collect6ExtendB1j_E6extendINtNtB1N_8adapters12GenericShuntINtNtB2O_3map3MapINtNtNtB1P_3str4iter5SplitcENvYB1j_NtNtB3D_6traits7FromStr8from_strEINtNtB1P_6result6ResultNtNtB1P_7convert10InfallibleNtB6_10ParseErrorEEEBa_
_RINvXs2_NtNtNtCs20txnxQ5U84_7bindgen2ir8analysis9sizednessNtB6_17SizednessAnalysisNtB8_17MonotoneFramework17each_depending_onNCINvB8_7analyzeBU_E0EBc_
_RINvXs31_NtNtCsiL7B6CFZHyD_4core5slice4iterINtB7_7IterMutNtNtNtCskt8TpxtZnof_4clap4args5group8ArgGroupENtNtNtNtBb_4iter6traits8iterator8Iterator4findNCNvMNtNtBZ_3app6parserNtB2s_6Parser14add_arg_groups0EBZ_
_RINvXs3_NtCsjN361EugDAD_3der3tagNtB6_3TagNtNtB8_6decode6Decode6decodeNtNtNtB8_6reader5slice11SliceReaderEB8_
_RINvXs3_NtNtCsaz9ix1H7t6h_5alloc3vec9into_iterINtB6_8IntoIterNtCshS2dRy2YWOW_11proc_macro29TokenTreeENtNtNtNtCs5cYH0lLSdLc_4core4iter6traits8iterator8Iterator4folduNCINvNvB1B_8for_each4callBX_NCINvXsb_NtBZ_8fallbackNtB3d_11TokenStreamINtNtB1F_7collect6ExtendBX_E6extendBI_E0E0ECs4EMmDgM0Qf0_3syn
_RINvXs3_NtNtCsiL7B6CFZHyD_4core4hash5implsRNtNtBa_3any6TypeIdNtB8_4Hash4hashNtNtCskTUq6jwe4oO_4http10extensions8IdHasherEB1g_
_RINvXs3_NtNtCsiL7B6CFZHyD_4core4hash5implsRRRNtNtCshgx866xcH9W_5alloc6string6StringNtB8_4Hash4hashNtNtNtNtCs3NZLoJsOov_3std11collections4hash3map13DefaultHasherECsgcFSzCu6SVo_15chrono_tz_build
_RINvXs3_NtNtCsiL7B6CFZHyD_4core4hash5implsReNtB8_4Hash4hashNtNtNtNtCs3NZLoJsOov_3std11collections4hash3map13DefaultHasherECsflIikro5Wyu_8dirs_sys
_RINvXs4_NtCsgMh45ZzF4i5_10serde_core2deQINtNtNtNtCs9jILlod8Q2y_5serde7private2de7content15SeqDeserializerNtNvNtCsl7d2h0H2YpO_3ron2de23is_serde_tag_or_content11TypeIdErrorENtB6_9SeqAccess12next_elementNtB1H_1AEB1L_
_RINvXs5_NtCs3paU50YnTHN_10serde_json2deQINtB6_12DeserializerNtNtB8_4read7StrReadENtNtCs1TTIPxQ7D2X_10serde_core2de12Deserializer15deserialize_mapNtNvXs8_NtB8_3mapINtB2r_3MapNtNtCsaz9ix1H7t6h_5alloc6string6StringNtNtB8_5value5ValueENtB1j_11Deserialize11deserialize7VisitorEB8_
_RINvXs5_NtCshgx866xcH9W_5alloc6stringNtB6_6StringINtNtNtNtCsiL7B6CFZHyD_4core4iter6traits7collect12FromIteratorcE9from_iterINtNtNtBS_8adapters3map3MapINtNtNtBU_4char6decode11DecodeUtf16INtNtB22_6cloned6ClonedINtNtNtBU_5slice4iter4ItertEEENCNvMB6_Bz_16from_utf16_lossy0EECsa1XupUGiia1_9backtrace
_RINvXs6_NtCs3paU50YnTHN_10serde_json3serINtB6_8CompoundQNtNvXs_NtB8_5valueNtBZ_5ValueNtNtCs5cYH0lLSdLc_4core3fmt7Display3fmt15WriterFormatterNtB6_16CompactFormatterENtNtCs1TTIPxQ7D2X_10serde_core3ser12SerializeMap13serialize_keyNtNtCsaz9ix1H7t6h_5alloc6string6StringEB8_
_RINvXs7_NtCs2uCO9j7g9VZ_11toml_writer5valuexNtB6_14WriteTomlValue16write_toml_valueNtNtCsaz9ix1H7t6h_5alloc6string6StringECs5tx0e2t1Md0_9toml_edit
_RINvXs7_NtNtCsiL7B6CFZHyD_4core3str4iterNtB6_5BytesNtNtNtNtBa_4iter6traits8iterator8Iterator3allNvNtNtCs455279n054P_10iri_string6parser4char19is_ascii_frag_queryEB1C_
_RINvXs7_NtNtCsiL7B6CFZHyD_4core3str4iterNtB6_5BytesNtNtNtNtBa_4iter6traits8iterator8Iterator8positionNCNvNtNtCs455279n054P_10iri_string6parser3str16find_split2_hole0EB1J_
_RINvXs8_NtCsgMKgB7mnEUJ_11proc_macro28fallbackNtB6_11TokenStreamINtNtNtNtCsiL7B6CFZHyD_4core4iter6traits7collect12FromIteratorNtB8_9TokenTreeE9from_iterINtNtNtB17_8adapters3map3MapNtNtB8_12token_stream8IntoIterNCNvNvMNtCs1cxMKpSN2o4_3syn3litNtB3t_6LitStr10parse_with19respan_token_stream0EEB3v_
_RINvXs8_NtNtCs20txnxQ5U84_7bindgen2ir8functionNtB6_11FunctionSigNtNtB8_9traversal5Trace5traceNCINvNtB8_8analysis21generate_dependenciesNvNtB1y_6derive21consider_edge_defaultE0EBa_
_RINvXs9_NtNtCs20txnxQ5U84_7bindgen2ir4itemNtB6_4ItemNtNtB8_9traversal5Trace5traceINtBQ_13ItemTraversalNtBQ_5PathsINtNtNtCshgx866xcH9W_5alloc11collections9vec_deque8VecDequeNtNtB8_7context6ItemIdEEEBa_
_RINvXs9_NtNtNtCsaCO2qWNJEWF_9icu_locid10extensions7unicode10attributesNtB6_10AttributesNtCse2m2UGz0brZ_9writeable9Writeable8write_toNtNtCsaz9ix1H7t6h_5alloc6string6StringEBc_
_RINvXsC_NtNtCsczE7PKsO40l_4http6header4nameNtB6_7HdrNameNtNtCsiL7B6CFZHyD_4core4hash4Hash4hashNtNtNtNtCs3NZLoJsOov_3std11collections4hash3map13DefaultHasherECsjRm39slFFFQ_10tower_http
_RINvXsF_NtCsadLLOk22Dcn_10num_traits4castfNtB6_7NumCast4fromoECsh9BO6w0kI1u_12num_rational
_RINvXsG_NtCslbaYSKDmuAQ_10num_traits4castdNtB6_7NumCast4fromaECsfSQqsC9MRoJ_12num_rational
_RINvXsJ_NtCs5cYH0lLSdLc_4core6optionINtB6_6OptionNtNtCs4EMmDgM0Qf0_3syn5token3DynENtNtB8_4hash4Hash4hashNtNtNtCs2FIVCi1Wrow_3std4hash6random13DefaultHasherECscpgdAsQ0t7q_12synstructure
_RINvXsK_NtNtNtCsiL7B6CFZHyD_4core4iter6traits5accumjNtB6_3Sum3sumINtNtNtBa_8adapters3map3MapINtNtNtBc_5slice4iter4IterNtNtCs3NZLoJsOov_3std2io7IoSliceENCNvXs6_NtB1U_4utilNtB2x_4SinkNtB1U_5Write14write_vectored0EECsedCA7Tpfiji_7asn1_rs
_RINvXsK_NtNtNtCsiL7B6CFZHyD_4core4iter6traits5accumjNtB6_3Sum3sumINtNtNtBa_8adapters3map3MapNtNtNtBc_3str4iter5CharsNCINvNvXs0_NtB16_6filterINtB21_6FilterppENtNtB8_8iterator8Iterator5count8to_usizecNCINvMNtNtCs1BUWCTf1MUy_9dialoguer5theme6renderNtB3g_17TermThemeRenderer20write_formatted_lineNCNvB3f_24multi_select_prompt_item0Es_0E0EEB3k_
_RINvXsW_NtNtCs4EMmDgM0Qf0_3syn3gen4hashNtNtBa_2ty9TypeNeverNtNtCs5cYH0lLSdLc_4core4hash4Hash4hashNtNtNtCs2FIVCi1Wrow_3std4hash6random13DefaultHasherECscpgdAsQ0t7q_12synstructure
_RINvXs_NtNtCs1TTIPxQ7D2X_10serde_core3ser5implsNtNtCsaz9ix1H7t6h_5alloc6string6StringNtB7_9Serialize9serializeINtNtCs3paU50YnTHN_10serde_json3ser16MapKeySerializerQNtNvXs_NtB1P_5valueNtB2J_5ValueNtNtCs5cYH0lLSdLc_4core3fmt7Display3fmt15WriterFormatterNtB1N_16CompactFormatterEEB1P_
_RINvXs_NtNtCs5cYH0lLSdLc_4core4hash5implscNtB7_4Hash4hashNtNtNtCs2FIVCi1Wrow_3std4hash6random13DefaultHasherECscpgdAsQ0t7q_12synstructure
_RINvXs_NtNtCsaz9ix1H7t6h_5alloc5slice4hackNtNtCs9XN0b3DABn9_12regex_syntax3hir17ClassUnicodeRangeNtB5_10ConvertVec6to_vecNtNtB9_5alloc6GlobalEBI_
_RINvXs_NtNtCsaz9ix1H7t6h_5alloc5slice4hackhNtB5_10ConvertVec6to_vecNtNtB9_5alloc6GlobalECs8zkBknKQsDL_12aho_corasick
_RINvXs_NtNtCsdAnUIRMebSX_10serde_core3ser5implsNtNtCsaz9ix1H7t6h_5alloc6string6StringNtB7_9Serialize9serializeNtNtCs4NfhPM3uXW3_13toml_datetime3ser23DatetimeFieldSerializerECs7NbdE0zyweH_4toml
_RINvXs_NtNtCshgx866xcH9W_5alloc3vec14spec_from_elemyNtB5_12SpecFromElem9from_elemNtNtB9_5alloc6GlobalECs2EzG6rTAlYY_8fdeflate
_RINvXs_NtNtCshgx866xcH9W_5alloc5slice4hackNtNtNtCs20txnxQ5U84_7bindgen2ir7context6ItemIdNtB5_10ConvertVec6to_vecNtNtB9_5alloc6GlobalEBK_
_RINvXs_NtNtCshgx866xcH9W_5alloc5slice4hackTjNtNtNtCsc9MEfsw61gC_12aho_corasick4util10primitives9PatternIDENtB5_10ConvertVec6to_vecNtNtB9_5alloc6GlobalEBM_
_RINvXs_NtNtCshgx866xcH9W_5alloc5slice4hackhNtB5_10ConvertVec6to_vecNtNtB9_5alloc6GlobalECs7GlkVKgSNI8_3nom
_RINvXs_NtNtCshgx866xcH9W_5alloc5slice4hackhNtB5_10ConvertVec6to_vecNtNtB9_5alloc6GlobalECseJ4fYN2mE0W_14parse_zoneinfo
_RINvXs_NtNtCshgx866xcH9W_5alloc5slice4hackhNtB5_10ConvertVec6to_vecNtNtB9_5alloc6GlobalECskHJyVYlCinc_10findshlibs
_RINvXs_NtNtCsjN361EugDAD_3der6reader5sliceNtB5_11SliceReaderNtB7_6Reader6finishNtNtNtB9_4asn110ia5_string12Ia5StringRefEB9_
_RINvXs_NtNtNtCs5cYH0lLSdLc_4core4iter8adapters3revINtB5_3RevINtNtB7_6copied6CopiedINtNtNtBb_5slice4iter4IterNtNtNtCs6nv0K25L1YS_14regex_automata4util10primitives7StateIDEEENtNtNtB9_6traits8iterator8Iterator4folduNCINvNtB7_3map8map_foldB1I_NtNtNtNtB1O_3nfa8thompson9backtrack5FrameuNCNvMs2_B3R_NtB3R_18BoundedBacktracker4step0NCINvNvB2K_8for_each4callB3P_NCINvMsi_NtCsaz9ix1H7t6h_5alloc3vecINtB5P_3VecB3P_E14extend_trustedINtB3t_3MapBM_B4v_EE0E0E0EB1O_
_RINvXs_NtNtNtCs5cYH0lLSdLc_4core4iter8adapters3revINtB5_3RevNtNtNtBb_3str4iter5CharsENtNtNtB9_6traits8iterator8Iterator4folduNCINvNvB1l_8for_each4callcNCINvXsb_NtCsaz9ix1H7t6h_5alloc6stringNtB2y_6StringINtNtB1p_7collect6ExtendcE6extendBM_E0E0ECs3k9pxlh0Big_12unicode_bidi
_RINvXs_NtNtNtCs5cYH0lLSdLc_4core4iter8adapters6clonedINtB5_6ClonedINtNtNtBb_5slice4iter4IterRNtNtNtCs2FIVCi1Wrow_3std3ffi6os_str5OsStrEENtNtNtB9_6traits8iterator8Iterator4folduQNCINvNtB7_3map8map_foldB1s_INtNtCsaz9ix1H7t6h_5alloc5boxed3BoxB1t_EuNvYB1s_INtNtBb_7convert4IntoB3g_E4intoNCINvNvB2a_8for_each4callB3g_NCINvMsi_NtB3l_3vecINtB59_3VecB3g_E14extend_trustedINtB2U_3MapINtNtB7_5chain5ChainBP_IB5Q_IB13_NtNtB3l_6string6StringEINvMsl_B1v_B1t_3newB6x_EEEB3V_EE0E0E0ECskmFptwX7bJS_2cc
_RINvXs_NtNtNtCs5cYH0lLSdLc_4core4iter8adapters9enumerateINtB5_9EnumerateINtNtB7_3rev3RevINtNtNtBb_5slice4iter4IterlEEENtNtNtB9_6traits8iterator8Iterator4foldmNCNvMsb_NtNtCsfQ8IEn1gy0G_11miniz_oxide7deflate4coreNtB2E_12HuffmanOxide21enforce_max_code_size0EB2I_
_RINvXs_NtNtNtCsiL7B6CFZHyD_4core4iter8adapters3revINtB5_3RevINtNtNtBb_3ops5range5RangejEENtNtNtB9_6traits8iterator8Iterator8try_folduQNCINvNtB7_3map12map_try_foldjNtNtNtCseDWgqLcbJaL_12unicode_bidi9char_data6tables9BidiClassuINtNtB11_12control_flow11ControlFlowB2B_ENCINvNtB2H_8implicit15resolve_neutralNtB2F_17HardcodedBidiDataE0NCINvNvB1p_4find5checkB2B_NCB4i_s_0E0E0B3B_EB2H_
_RINvXs_NtNtNtCsiL7B6CFZHyD_4core4iter8adapters3revINtB5_3RevINtNtNtBb_5slice4iter4IterhEENtNtNtB9_6traits8iterator8Iterator8try_foldjNCINvNvXs0_NtB7_10take_whileINtB2i_9TakeWhileppEB1p_8try_fold5checkRhjINtNtNtBb_3ops9try_trait17NeverShortCircuitjENCINvCscCWi16CzCXC_13data_encoding9check_padNtB43_2N3E0NCINvMB3i_B3f_10wrap_mut_2jB3c_NCNvYIB2A_BM_B3Y_EB1p_5count0E0E0INtNtB3k_12control_flow11ControlFlowB3f_jEEB43_
_RINvXs_NtNtNtCsiL7B6CFZHyD_4core4iter8adapters3revINtB5_3RevQNtCshcLmOkTmYN7_11fixedbitset4OnesENtNtNtB9_6traits8iterator8Iterator4findNCNvXsg_BZ_NtBZ_12IntersectionNtNtB1A_12double_ended19DoubleEndedIterator9next_back0EBZ_
_RINvXs_NtNtNtCsiL7B6CFZHyD_4core4iter8adapters4takeINtB5_4TakeINtNtNtB9_7sources6repeat6RepeatNtNtNtCsc9MEfsw61gC_12aho_corasick4util10primitives7StateIDEENtNtNtB9_6traits8iterator8Iterator8for_eachNCINvMsi_NtCshgx866xcH9W_5alloc3vecINtB3j_3VecB1u_E14extend_trustedBN_E0EB1A_
_RINvXs_NtNtNtCsiL7B6CFZHyD_4core4iter8adapters5chainINtB5_5ChainINtNtB7_3map3MapNtNtNtBb_3str4iter5LinesNCNvMs3_NtCskvdpLI7AOSZ_5insta8snapshotNtB1M_20TextSnapshotContents9to_inline0EINtNtBb_6option8IntoIterNtNtCshgx866xcH9W_5alloc6string6StringEENtNtNtB9_6traits8iterator8Iterator4folduNCINvNvB3X_8for_each4callB3j_NCINvXsf_B3l_B3j_INtNtB41_7collect6ExtendB3j_E6extendBO_E0E0EB1O_
_RINvXs_NtNtNtCsiL7B6CFZHyD_4core4iter8adapters6clonedINtB5_6ClonedINtNtNtBb_5slice4iter4IterTllEEENtNtNtB9_6traits8iterator8Iterator4folduNCINvNvB1y_8for_each4callB1s_QNCNvNtNtCse2m4tWGdFjm_16plotters_backend10rasterizer4path10polygonize0E0EB2O_
_RINvXs_NtNtNtCsiL7B6CFZHyD_4core4iter8adapters6copiedINtB5_6CopiedINtNtNtBb_5slice4iter4IterhEENtNtNtB9_6traits8iterator8Iterator8try_foldjNCINvNvB1v_8position5checkhNCINvNtNtCs455279n054P_10iri_string6parser3str13satisfy_charsNvNtB2L_4char16is_ascii_regnameINvB3F_19is_nonascii_regnameNtNtB2N_4spec7IriSpecEEs_0E0INtNtNtBb_3ops12control_flow11ControlFlowjjEEB2N_
_RINvXs_NtNtNtCsiL7B6CFZHyD_4core4iter8adapters6copiedINtB5_6CopiedINtNtNtBb_5slice4iter4IterhEENtNtNtB9_6traits8iterator8Iterator8try_folduNCINvNvB1v_3all5checkhNvNtNtCs455279n054P_10iri_string6parser4char31is_ascii_userinfo_ipvfutureaddrE0INtNtNtBb_3ops12control_flow11ControlFlowuEEB2F_
_RINvXs_NtNtNtCsiL7B6CFZHyD_4core4iter8adapters9enumerateINtB5_9EnumerateINtNtNtBb_5slice4iter4IterNtNtNtNtCs3NZLoJsOov_3std4sync4mpmc5waker5EntryEENtNtNtB9_6traits8iterator8Iterator8try_folduNCINvNvB2l_4find5checkTjRB1y_ENCNvMB1A_NtB1A_5Waker10unregister0E0INtNtNtBb_3ops12control_flow11ControlFlowB3p_EECsd5OiiQZmzhE_10threadpool
_RINvXs_NtNtNtNtCs2FIVCi1Wrow_3std3sys12thread_local6native4lazyuNtB5_14DestroyedState13register_dtorNtNtCs8wL1BgCnak8_15crossbeam_epoch9collector11LocalHandleEB1E_
_RINvXsa_NtNtCsiL7B6CFZHyD_4core4hash5implsyNtB8_4Hash4hashNtCsjt6QawPyDY5_10rustc_hash8FxHasherECs20txnxQ5U84_7bindgen
_RINvXsb_NtCsfu6Qj4YGNz_11toml_writer5valuedNtB6_14WriteTomlValue16write_toml_valueNtNtCsaz9ix1H7t6h_5alloc6string6StringECs7NbdE0zyweH_4toml
_RINvXsb_NtCshgx866xcH9W_5alloc6stringNtB6_6StringINtNtNtNtCsiL7B6CFZHyD_4core4iter6traits7collect6ExtendcE6extendINtNtNtBS_8adapters4take4TakeINtNtNtBS_7sources6repeat6RepeatcEEECseWnAVIMley_12prettyplease
_RINvXsc_NtCsfu6Qj4YGNz_11toml_writer5valuecNtB6_14WriteTomlValue16write_toml_valueNtNtCsaz9ix1H7t6h_5alloc6string6StringECs7NbdE0zyweH_4toml
_RINvXsd_NtCs39k8jHxWV8Y_3der6lengthNtB6_6LengthNtNtB8_6decode6Decode6decodeNtNtNtB8_6reader3pem9PemReaderEB8_
_RINvXsd_NtCsaz9ix1H7t6h_5alloc3vecINtB6_3VecNtNtCs2X71yuh7ehP_12regex_syntax3hir15ClassBytesRangeEINtNtNtNtCs5cYH0lLSdLc_4core4iter6traits7collect12FromIteratorBG_E9from_iterINtNtNtB1F_8adapters3map3MapINtNtNtB1H_5slice4iter4IterTccEENCNvMs3_NtBI_9translateNtB3S_11TranslatorI20hir_ascii_byte_class0EEBK_
_RINvXsd_NtCsaz9ix1H7t6h_5alloc3vecINtB6_3VecNtNtCsIOS3H4Mofs_8textwrap4core4WordEINtNtNtNtCs5cYH0lLSdLc_4core4iter6traits7collect12FromIteratorBG_E9from_iterINtNtNtB1o_8adapters7flatten7FlatMapINtNtB8_5boxed3BoxDNtNtB1m_8iterator8Iteratorp4ItemBG_EL_EINtNtNtB1o_7sources7from_fn6FromFnNCNCINvNtBK_14word_splitters11split_wordsB35_E00ENCB4D_0EEBK_
_RINvXsd_NtCsaz9ix1H7t6h_5alloc3vecINtB6_3VechEINtNtNtNtCs5cYH0lLSdLc_4core4iter6traits7collect12FromIteratorhE9from_iterNtNtBR_5ascii13EscapeDefaultECs2X71yuh7ehP_12regex_syntax
_RINvXsd_NtCshgx866xcH9W_5alloc3vecINtB6_3VecINtNtNtCsfjsGG03OZM8_7similar10algorithms5utils10UniqueItemINtBJ_12OffsetLookupmEEEINtNtNtNtCsiL7B6CFZHyD_4core4iter6traits7collect12FromIteratorBG_E9from_iterINtNtNtB28_8adapters3map3MapINtNtB3k_10filter_map9FilterMapINtNtNtNtCs3NZLoJsOov_3std11collections4hash3map8IntoIterRmINtNtB2a_6option6OptionjEENCINvBJ_6uniqueB1D_E0ENCB5B_s_0EEBN_
_RINvXsd_NtCshgx866xcH9W_5alloc3vecINtB6_3VecNtNtB8_6string6StringEINtNtNtNtCsiL7B6CFZHyD_4core4iter6traits7collect12FromIteratorBG_E9from_iterINtNtNtB19_8adapters3map3MapINtNtNtB1b_5slice4iter4IterBG_ENCNvXs_NtNtNvCsi6pTmhHIU5M_9clang_sys13load_manually5build6commonNtB3k_19CommandErrorPrinterNtNtNtB1b_3ops4drop4Drop4drops0_0EEB3q_
_RINvXsd_NtCshgx866xcH9W_5alloc3vecINtB6_3VecNtNtB8_6string6StringEINtNtNtNtCsiL7B6CFZHyD_4core4iter6traits7collect12FromIteratorBG_E9from_iterINtNtNtB19_8adapters6filter6FilterINtNtB2l_3map3MapINtNtB6_9into_iter8IntoIterNtNtNtCs20txnxQ5U84_7bindgen2ir7context6ItemIdENCNvMsj_NtB3A_4itemNtB4p_4Item19real_canonical_names1_0ENCB4j_s2_0EEB3C_
_RINvXsd_NtCshgx866xcH9W_5alloc3vecINtB6_3VecNtNtCs3NZLoJsOov_3std4path7PathBufEINtNtNtNtCsiL7B6CFZHyD_4core4iter6traits7collect12FromIteratorBG_E9from_iterINtNtB1m_8adapters12GenericShuntINtNtB2w_3map3MapNtNtBK_2fs7ReadDirNCNCNvCs8qPlBtFINoP_4glob9fill_todos_00EINtNtB1o_6result6ResultNtNtB1o_7convert10InfallibleNtNtNtBK_2io5error5ErrorEEEB3E_
_RINvXsd_NtCshgx866xcH9W_5alloc3vecINtB6_3VecNtNtCs6c37mDEUb8k_12regex_syntax3hir17ClassUnicodeRangeEINtNtNtNtCsiL7B6CFZHyD_4core4iter6traits7collect12FromIteratorBG_E9from_iterINtNtNtB1H_8adapters3map3MapIB2P_INtNtB2T_6copied6CopiedINtNtNtB1J_5slice4iter4IterThhEEENCNvNtBI_9translate20ascii_class_as_chars0ENCNvMs3_B4j_NtB4j_11TranslatorI23hir_ascii_unicode_class0EEBK_
_RINvXsd_NtCshgx866xcH9W_5alloc3vecINtB6_3VecNtNtCsjh4mrTFEWVx_12regex_syntax3hir17ClassUnicodeRangeEINtNtNtNtCsiL7B6CFZHyD_4core4iter6traits7collect12FromIteratorBG_E9from_iterINtNtNtB1H_8adapters3map3MapINtNtB6_9into_iter8IntoItercENCNvMs2_BI_NtBI_3Hir11alternation0EEBK_
_RINvXsd_NtCshgx866xcH9W_5alloc3vecINtB6_3VecNtNtNtCs2GX3rYzX9NP_14regex_automata4util10primitives7StateIDEINtNtNtNtCsiL7B6CFZHyD_4core4iter6traits7collect12FromIteratorBG_E9from_iterNtNtBK_10sparse_set13SparseSetIterEBM_
_RINvXsd_NtCshgx866xcH9W_5alloc3vecINtB6_3VecNtNtNtNtNtCskvdpLI7AOSZ_5insta7content4yaml8vendored4yaml4YamlEINtNtNtNtCsiL7B6CFZHyD_4core4iter6traits7collect12FromIteratorBG_E9from_iterINtNtNtB1O_8adapters3map3MapINtNtNtB1Q_5slice4iter4IterNtBO_7ContentENvBM_13to_yaml_valueEEBQ_
_RINvXsd_NtCshgx866xcH9W_5alloc3vecINtB6_3VecReEINtNtNtNtCsiL7B6CFZHyD_4core4iter6traits7collect12FromIteratorBG_E9from_iterINtNtNtBQ_8adapters3map3MapINtNtNtNtCs3NZLoJsOov_3std11collections4hash3map4KeysBG_NtNtNtCskt8TpxtZnof_4clap4args11matched_arg10MatchedArgENvYBG_NtNtNtBS_3ops5deref5Deref5derefEEB3o_
_RINvXsd_NtCshgx866xcH9W_5alloc3vecINtB6_3VecTcReEEINtNtNtNtCsiL7B6CFZHyD_4core4iter6traits7collect12FromIteratorBG_E9from_iterNtCs4XYJ9wD4cAC_13language_tags18ExtensionsIteratorEB22_
_RINvXsd_NtCshgx866xcH9W_5alloc3vecINtB6_3VechEINtNtNtNtCsiL7B6CFZHyD_4core4iter6traits7collect12FromIteratorhE9from_iterNtNtCsf48c72s39yb_14regex_automata7classes24ByteClassRepresentativesEB1Y_
_RINvXsd_NtCsjN361EugDAD_3der6lengthNtB6_6LengthNtNtB8_6decode6Decode6decodeINtNtNtB8_6reader6nested12NestedReaderNtNtB1g_5slice11SliceReaderEECs6dcfljeyQgu_4sec1
_RINvXsf_CsXx2EzV4NGC_13generic_arrayINtB6_12GenericArrayhINtNtCs2hrG609V7R9_7typenum4uint4UIntIBU_IBU_IBU_IBU_NtBW_5UTermNtNtBY_3bit2B1ENtB1X_2B0EB2a_EB2a_EB2a_EEINtNtNtNtCsiL7B6CFZHyD_4core4iter6traits7collect12FromIteratorhE9from_iterINtNtNtB2H_8adapters3map3MapINtNtNtB2J_5slice4iter4IterhENvYhNtNtB2J_5clone5Clone5cloneEECs9qnCHBwWAbg_8poly1305
_RINvXsg_NtCsaz9ix1H7t6h_5alloc5boxedINtB6_3BoxNtNtCs4EMmDgM0Qf0_3syn8lifetime8LifetimeENtNtCs5cYH0lLSdLc_4core4hash4Hash4hashNtNtNtCs2FIVCi1Wrow_3std4hash6random13DefaultHasherECscpgdAsQ0t7q_12synstructure
_RINvXsh_NtCsaz9ix1H7t6h_5alloc3vecINtB6_3VecNtCshS2dRy2YWOW_11proc_macro29TokenTreeEINtNtNtNtCs5cYH0lLSdLc_4core4iter6traits7collect6ExtendBG_E6extendINtNtBI_5rcvec12RcVecBuilderBG_EEBI_
_RINvXsh_NtCsaz9ix1H7t6h_5alloc3vecINtB6_3VechEINtNtNtNtCs5cYH0lLSdLc_4core4iter6traits7collect6ExtendhE6extendNtCs3ETDKfISLNJ_16percent_encoding13PercentDecodeEB1M_
_RINvXsh_NtCshgx866xcH9W_5alloc3vecINtB6_3VecNtCsgMKgB7mnEUJ_11proc_macro29TokenTreeEINtNtNtNtCsiL7B6CFZHyD_4core4iter6traits7collect6ExtendBG_E6extendINtNtNtB1r_8adapters7flatten7FlattenINtNtB2t_3map3MapIB2Z_IB2Z_INtNtNtB1t_5slice4iter4IterNtNtCs1cxMKpSN2o4_3syn5error12ErrorMessageENvMs_B3S_B3Q_16to_compile_errorENCINvXs7_BI_NtBI_11TokenStreamINtB1n_12FromIteratorB5f_E9from_iterB3k_E0ENCINvXs6_NtBI_3impNtB6n_11TokenStreamIB5y_B6w_E9from_iterB3f_Es_0EEEB3U_
_RINvXsh_NtCshgx866xcH9W_5alloc3vecINtB6_3VecNtNtCs5Ng0wM7PJ5I_12regex_syntax3hir3HirEINtNtNtNtCsiL7B6CFZHyD_4core4iter6traits7collect6ExtendBG_E6extendINtNtB6_5drain5DrainBG_EEBK_
_RINvXsh_NtCshgx866xcH9W_5alloc3vecINtB6_3VecNtNtNtNtCs2GX3rYzX9NP_14regex_automata3nfa8thompson9backtrack5FrameEINtNtNtNtCsiL7B6CFZHyD_4core4iter6traits7collect6ExtendBG_E6extendINtNtNtB1T_8adapters3map3MapINtNtB2V_3rev3RevINtNtB2V_6copied6CopiedINtNtNtB1V_5slice4iter4IterNtNtNtBO_4util10primitives7StateIDEEENCNvMs2_BI_NtBI_18BoundedBacktracker4step0EEBO_
_RINvXsh_NtCshgx866xcH9W_5alloc3vecINtB6_3VecmEINtNtNtNtCsiL7B6CFZHyD_4core4iter6traits7collect6ExtendmE6extendINtNtNtBP_8adapters3map3MapINtNtNtBP_7sources7from_fn6FromFnNCNvMs_NtNtCsc9MEfsw61gC_12aho_corasick3nfa13noncontiguousNtB2P_3NFA12iter_matches0ENCNvMs2_NtB2R_10contiguousNtB4c_5State5writes_0EEB2T_
_RINvXsi_NtNtNtCsiL7B6CFZHyD_4core4iter8adapters7flattenINtB6_13FlattenCompatINtNtB8_3map3MapINtNtB8_3rev3RevINtNtNtBc_5slice4iter4IterINtNtNtBc_3ops5range5RangejEEENvYB28_NtNtBc_5clone5Clone5cloneEB28_ENtNtNtBa_6traits8iterator8Iterator8try_folduNCINvNvB3e_4find5checkjNCNvNtCs5a5uyJZDxbc_12unicode_bidi7prepare23isolating_run_sequencess2_0E0INtNtB2d_12control_flow11ControlFlowjEEB4p_
_RINvXsj_NtCsaz9ix1H7t6h_5alloc3vecINtB6_3VecyEINtNtNtNtCs5cYH0lLSdLc_4core4iter6traits7collect6ExtendRyE6extendINtNtNtBR_5slice4iter4IteryEECsb5MyUsmU2ju_10num_bigint
_RINvXsj_NtNtCs20txnxQ5U84_7bindgen2ir4compNtB6_8CompInfoNtNtB8_9traversal5Trace5traceNCINvNtB8_8analysis21generate_dependenciesNvMNtB1q_23has_type_param_in_arrayNtB24_23HasTypeParameterInArray13consider_edgeE0EBa_
_RINvXsk_NtNtCs3paU50YnTHN_10serde_json5value2deNtB6_13KeyClassifierNtNtCs1TTIPxQ7D2X_10serde_core2de15DeserializeSeed11deserializeINtNtBa_2de6MapKeyNtNtBa_4read7StrReadEEBa_
_RINvXsl_NtNtCs5cYH0lLSdLc_4core4hash5implsTccENtB8_4Hash4hashNtNtNtCs2FIVCi1Wrow_3std4hash6random13DefaultHasherECsjdZ23FVQsGn_6strsim
_RINvXsn_NtCsiL7B6CFZHyD_4core6resultINtB6_6ResultINtNtCshgx866xcH9W_5alloc3vec3VecNtNtNtNtCs9vszGGFNfUy_18tracing_subscriber6filter3env5field5MatchEINtNtBQ_5boxed3BoxDNtNtB8_5error5ErrorNtNtB8_6marker4SendNtB30_4SyncEL_EEINtNtNtNtB8_4iter6traits7collect12FromIteratorIBz_B1i_B2m_EE9from_iterINtNtNtB3E_8adapters3map3MapNtNtNtCsh7LMuWptdmn_5regex5regex6string7MatchesNCNCNCNvMNtB1m_9directiveNtB61_9Directive5parses0_0s0_00EEB1q_
_RINvXso_NtCshSsKFDWfsSD_5bytes9bytes_mutNtB6_8BytesMutINtNtNtNtCsiL7B6CFZHyD_4core4iter6traits7collect12FromIteratorhE9from_iterINtNtCshgx866xcH9W_5alloc3vec3VechEECs4sdexCj5LDw_11tungstenite
_RINvXss_NtCshgx866xcH9W_5alloc2rcINtB6_2RcNtNtCsf48c72s39yb_14regex_automata11determinize5StateENtNtCsiL7B6CFZHyD_4core4hash4Hash4hashNtNtNtNtCs3NZLoJsOov_3std11collections4hash3map13DefaultHasherEBI_
_RINvXsv_NtCs1qLRX4BTaFd_10num_traits4castmNtB6_7NumCast4fromhECsjoGxOb29wVB_10num_bigint
_RINvXsy_NtCslbaYSKDmuAQ_10num_traits4castjNtB6_7NumCast4fromhECsg6ZIQJj5H2g_10num_bigint
_RINvYINtCs5rTiqEIskse_7vec_map6ValuesNtNtNtNtCskt8TpxtZnof_4clap4args11arg_builder10positional10PosBuilderENtNtNtNtCsiL7B6CFZHyD_4core4iter6traits8iterator8Iterator3anyNCNvMNtNtBH_3app6parserNtB2L_6Parser18verify_positionals0EBH_
_RINvYINtCs5rTiqEIskse_7vec_map6ValuesNtNtNtNtCskt8TpxtZnof_4clap4args11arg_builder10positional10PosBuilderENtNtNtNtCsiL7B6CFZHyD_4core4iter6traits8iterator8Iterator8try_folduNCINvNvB1H_3any5checkRBz_NCNCNvNtNtBH_3app5usage23get_required_usage_fromsb_00E0INtNtNtB1P_3ops12control_flow11ControlFlowuEEBH_
_RINvYINtNtCs1VYxpr1ArYB_6object3elf15SectionHeader32NtNtB8_6endian10EndiannessENtNtNtNtB8_4read3elf7section13SectionHeader13data_as_arrayINtB6_5Sym32BO_EEB8_
_RINvYINtNtCs3paU50YnTHN_10serde_json2de9MapAccessNtNtB8_4read7StrReadENtNtCs1TTIPxQ7D2X_10serde_core2de9MapAccess10next_valueNtNtB8_5value5ValueEB8_
_RINvYINtNtCs91GDN4qvfiu_7similar4iter11ChangesIterSReBM_BN_ENtNtNtNtCsiL7B6CFZHyD_4core4iter6traits8iterator8Iterator3mapINtNtNtB8_4text6inline12InlineChangeeENCINvB1Y_19iter_inline_changeseEs0_0ECskvdpLI7AOSZ_5insta
_RINvYINtNtCsdA9E9juh3JZ_21unicode_normalization9recompose14RecompositionsINtNtNtNtCsiL7B6CFZHyD_4core4iter8adapters7flatten7FlatMapINtNtB1e_6filter6FilterNtNtNtB1i_3str4iter5CharsNCNvCs7nzyhGHHeiz_10stringprep8namepreps_0ENtNtB2V_6tables15CaseFoldForNfkcNvB3A_18case_fold_for_nfkcEENtNtNtB1g_6traits8iterator8Iterator7collectNtNtCshgx866xcH9W_5alloc6string6StringEB2V_
_RINvYINtNtCshgx866xcH9W_5alloc5boxed3BoxDNtNtCs1yFw5o97rjX_6thrift9transport15TWriteTransportNtNtCsiL7B6CFZHyD_4core6marker4SendEL_ENtNtCsjuIL0iBpDuy_9byteorder2io13WriteBytesExt9write_f64NtB2a_12LittleEndianEBH_
_RINvYINtNtCsiL7B6CFZHyD_4core6option8IntoIterReENtNtNtNtB8_4iter6traits8iterator8Iterator3mapINtNtNtBQ_8adapters3map3MapINtNtNtB8_3str4iter5SplitNCNCNvMs0_NtNtCs5xbKWwF31JS_7headers4util8flat_csvINtB2t_7FlatCsvNtB2t_9SemiColonE4iter00ENCB2l_s_0ENCB2n_0EB2x_
_RINvYINtNtCsivq4NZsOFee_5rayon5range4IterlENtNtB8_4iter16ParallelIterator5chainINtNtBH_4once4OncelEEB8_
_RINvYINtNtNtCs5cYH0lLSdLc_4core3ops5range14RangeInclusivehEINtB6_11RangeBoundshE8containshECsjRWpUytRaxp_6chrono
_RINvYINtNtNtCs5cYH0lLSdLc_4core3ops5range5RangejENtNtNtNtBa_4iter6traits12double_ended19DoubleEndedIterator9try_rfolduNCINvNvBL_5rfind5checkjNCNvNtNtBa_3str7pattern13simd_contains0E0INtNtB8_12control_flow11ControlFlowjEECshS2dRy2YWOW_11proc_macro2
_RINvYINtNtNtCs5cYH0lLSdLc_4core3ops5range5RangejENtNtNtNtBa_4iter6traits8iterator8Iterator4folduNCINvNtNtBR_8adapters3map8map_foldjINtNtCsaluMZKqF2aj_15crossbeam_utils12cache_padded11CachePaddedNtNtCseXY6b7LfkWH_10rayon_core5sleep16WorkerSleepStateEuNCNvMB38_NtB38_5Sleep3new0NCINvNvBL_8for_each4callB25_NCINvMsi_NtCsaz9ix1H7t6h_5alloc3vecINtB51_3VecB25_E14extend_trustedINtB1B_3MapB3_B40_EE0E0E0EB3a_
_RINvYINtNtNtCs5cYH0lLSdLc_4core3ops5range5RangemENtNtNtNtBa_4iter6traits8iterator8Iterator10filter_mapcNvNtBa_4char8from_u32ECs2X71yuh7ehP_12regex_syntax
_RINvYINtNtNtCs5cYH0lLSdLc_4core5array4iter8IntoIterINtNtNtCs57lu83pa5Ym_4jiff4util8rangeint4ri32Knn80000000_Kn7fffffff_EKj1_ENtNtNtNtBa_4iter6traits8iterator8Iterator3zipABN_B1V_EBU_
_RINvYINtNtNtCs5cYH0lLSdLc_4core5slice4iter4IterINtNtCsby9wAIILX7F_7tinystr5ascii12TinyAsciiStrKj8_EENtNtNtNtBa_4iter6traits8iterator8Iterator8try_folduNCINvNtNtB1G_8adapters3map12map_try_foldRBJ_ReuINtNtBa_6result6ResultuNtNtBa_3fmt5ErrorENvMBM_BJ_6as_strNCINvNvB1A_12try_for_each4callB37_B3a_QNCINvXs9_NtNtNtCsaCO2qWNJEWF_9icu_locid10extensions9transform5valueNtB4R_5ValueNtCse2m2UGz0brZ_9writeable9Writeable8write_toNtNtCsaz9ix1H7t6h_5alloc6string6StringE0E0E0B3a_EB4X_
_RINvYINtNtNtCs5cYH0lLSdLc_4core5slice4iter4IterNtNtCs7NbdE0zyweH_4toml5value5ValueENtNtNtNtBa_4iter6traits8iterator8Iterator12try_for_eachNCINvYNtNtNtBN_3ser8document10SerializerNtNtCsdAnUIRMebSX_10serde_core3ser10Serializer11collect_seqRINtNtCsaz9ix1H7t6h_5alloc3vec3VecBJ_EE0INtNtBa_6result6ResultuNtNtB2m_5error5ErrorEEBN_
_RINvYINtNtNtCs5cYH0lLSdLc_4core5slice4iter4IterNtNtCshD5YnGfk4Ix_12tracing_core10dispatcher9RegistrarENtNtNtNtBa_4iter6traits8iterator8Iterator10filter_mapNtBL_8DispatchNvMs8_BL_BJ_7upgradeEBN_
_RINvYINtNtNtCs5cYH0lLSdLc_4core5slice4iter4IterNtNtNtCskLaOWpELs51_11toml_parser5lexer5token5TokenENtNtNtNtBa_4iter6traits12double_ended19DoubleEndedIterator5rfindNCNvNtNtBP_6parser8document13on_array_open0EBP_
_RINvYINtNtNtCs5cYH0lLSdLc_4core5slice4iter4IterNtNtNtNtCsaCO2qWNJEWF_9icu_locid10extensions7unicode9attribute9AttributeENtNtNtNtBa_4iter6traits8iterator8Iterator3mapReNCINvMNtBN_10attributesNtB2L_10Attributes19for_each_subtag_strNtNtBa_3fmt5ErrorNCINvXsf_NtBR_6localeNtB45_6LocaleNtCse2m2UGz0brZ_9writeable9Writeable8write_toNtNtCsaz9ix1H7t6h_5alloc6string6StringE0E0EBR_
_RINvYINtNtNtCs5cYH0lLSdLc_4core5slice4iter4IterTRNtNtCsetRrSidvX01_12tracing_core5field5FieldINtNtBa_6option6OptionRDNtBN_5ValueEL_EEENtNtNtNtBa_4iter6traits8iterator8Iterator6filterNCNvMsR_BN_NtBN_8ValueSet3len0EBP_
_RINvYINtNtNtCs5cYH0lLSdLc_4core5slice4iter4IterhENtNtNtNtBa_4iter6traits8iterator8Iterator3mapNtNtCsaz9ix1H7t6h_5alloc6string6StringNCNvNtNtCseN3EgHAt5QS_8petgraph6graph614graph6_decoder19get_bits_as_decimal0EB2e_
_RINvYINtNtNtCs5cYH0lLSdLc_4core5slice4iter4IterhENtNtNtNtBa_4iter6traits8iterator8Iterator3mapjNCINvNvXs1_NtNtBR_8adapters6filterINtB1G_6FilterppEBL_5count8to_usizeRhNCNvNtCs5tx0e2t1Md0_9toml_edit5error18translate_positions0_0E0EB2K_
_RINvYINtNtNtCs5cYH0lLSdLc_4core5slice4iter4IterhENtNtNtNtBa_4iter6traits8iterator8Iterator8try_folduNCINvNtNtBR_8adapters3map12map_try_foldRhhuINtNtNtBa_3ops12control_flow11ControlFlowIB2i_INtNtBa_6option6OptionNtNtBa_3cmp8OrderingEB3n_EENCNvXs8_NtNtCs5Qv6yQAsokC_4http3uri9authorityNtB3W_9AuthorityNtB3p_10PartialOrd11partial_cmp0NCINvNvBL_12try_for_each4callhB2h_NCINvNvBN_12iter_compare7compareINtB1F_3MapB3_NCB3Q_s_0EhB31_NCINvNvBL_14partial_cmp_by7comparehhNCINvYIB6o_B3_B3O_EBL_11partial_cmpB6n_E0E0E0E0E0B2h_EB40_
_RINvYINtNtNtCs5cYH0lLSdLc_4core5slice4iter4IterjENtNtNtNtBa_4iter6traits8iterator8Iterator8try_folduNCINvNvXs_NtNtBR_8adapters9enumerateINtB1K_9EnumeratepEBL_8try_fold9enumerateRjuINtNtNtBa_3ops12control_flow11ControlFlowTjB2P_EENCINvNvBL_4find5checkB3x_QNCINvCs6QqrTfyomC9_5smawk11smawk_innerdNCINvB4a_20online_column_minimadNCINvNtNtCsIOS3H4Mofs_8textwrap15wrap_algorithms11optimal_fit16wrap_optimal_fitNtNtB5n_4core4WordE0E0E0E0E0B2S_EB5n_
_RINvYINtNtNtCs5cYH0lLSdLc_4core5slice4iter7IterMutcENtNtNtNtBa_4iter6traits8iterator8Iterator3zipINtB6_4ItercEECspQV0jMy21P_4idna
_RINvYINtNtNtCsaz9ix1H7t6h_5alloc3vec5drain5DrainNtNtCs9nCsezDqTf4_12regex_syntax3ast3AstENtNtNtNtCs5cYH0lLSdLc_4core4iter6traits8iterator8Iterator4folduNCINvNvB1p_8for_each4callBK_NCINvMsi_B8_INtB8_3VecBK_E14extend_trustedB3_E0E0EBO_
_RINvYINtNtNtCsaz9ix1H7t6h_5alloc3vec9into_iter8IntoIterhENtNtNtNtCs5cYH0lLSdLc_4core4iter6traits8iterator8Iterator3mapNtNtCs9nCsezDqTf4_12regex_syntax3hir15ClassBytesRangeNCNvMs3_B1U_NtB1U_3Hir11alternations_0EB1W_
_RINvYINtNtNtCsh4ySdynPyhh_5gimli4read4line9DebugLineINtNtB8_12endian_slice11EndianSliceNtNtBa_9endianity12LittleEndianEEINtB8_7SectionBO_E4loadQNCNvMs_NtNtCs7adunahxyaw_9backtrace9symbolize5gimliNtB2p_7Context3news0_0NtB8_5ErrorEB2t_
_RINvYINtNtNtCshgx866xcH9W_5alloc3vec5drain5DrainNtNtCs302BLY9Avsm_12regex_syntax3hir3HirENtNtNtNtCsiL7B6CFZHyD_4core4iter6traits8iterator8Iterator4folduNCINvNvB1p_8for_each4callBK_NCINvMsi_B8_INtB8_3VecBK_E14extend_trustedB3_E0E0EBO_
_RINvYINtNtNtCshgx866xcH9W_5alloc3vec5drain5DrainNtNtNtCsjh4mrTFEWVx_12regex_syntax3hir7literal7LiteralENtNtNtNtCsiL7B6CFZHyD_4core4iter6traits8iterator8Iterator4folduNCINvNvB1D_8for_each4callBK_NCINvMsi_B8_INtB8_3VecBK_E14extend_trustedB3_E0E0EBQ_
_RINvYINtNtNtCshgx866xcH9W_5alloc3vec9into_iter8IntoIterNtCsbPHw0ZMlxUx_2cc6ObjectENtNtNtNtCsiL7B6CFZHyD_4core4iter6traits8iterator8Iterator3mapNtNtCs3NZLoJsOov_3std4path7PathBufNCNvMs4_BT_NtBT_5Build25try_compile_intermediates0EBT_
_RINvYINtNtNtCshgx866xcH9W_5alloc3vec9into_iter8IntoIterNtNtCshpKpake7nJI_12regex_syntax3hir15ClassBytesRangeENtNtNtNtCsiL7B6CFZHyD_4core4iter6traits8iterator8Iterator7collectINtB8_3VecBR_EEBV_
_RINvYINtNtNtCshgx866xcH9W_5alloc3vec9into_iter8IntoIterNtNtNtNtCs5MsBAlmYmSD_4time18format_description5parse3ast23NestedFormatDescriptionENtNtNtNtCsiL7B6CFZHyD_4core4iter6traits8iterator8Iterator3mapINtNtB2k_6result6ResultINtNtBa_5boxed3BoxSNtNtBV_11format_item4ItemENtBV_5ErrorENCNvMB3T_B3R_8from_ast0EBZ_
_RINvYINtNtNtCshgx866xcH9W_5alloc3vec9into_iter8IntoIterTjNtCsjQAgS81B8HG_7getopts6OptvalEENtNtNtNtCsiL7B6CFZHyD_4core4iter6traits8iterator8Iterator3mapjNCNvMs3_BV_NtBV_7Matches13opt_positions0EBV_
_RINvYINtNtNtCsiL7B6CFZHyD_4core3ops5range14RangeInclusivehEINtB6_11RangeBoundshE8containshECs5xbKWwF31JS_7headers
_RINvYINtNtNtCsiL7B6CFZHyD_4core3ops5range16RangeToInclusivejEINtB6_11RangeBoundsjE8containsjECs5MsBAlmYmSD_4time
_RINvYINtNtNtCsiL7B6CFZHyD_4core3ops5range5RangejENtNtNtNtBa_4iter6traits12double_ended19DoubleEndedIterator9try_rfolduNCINvNvBL_5rfind5checkjNCNvNtNtBa_3str7pattern13simd_contains0E0INtNtB8_12control_flow11ControlFlowjEECsgMh45ZzF4i5_10serde_core
_RINvYINtNtNtCsiL7B6CFZHyD_4core3ops5range5RangejENtNtNtNtBa_4iter6traits8iterator8Iterator3mapINtNtNtCs7HzlohoAeks_12sharded_slab4page4slot4SlotNtNtNtCs1XKReJ1SRGG_18tracing_subscriber8registry7sharded9DataInnerNtNtB1B_3cfg13DefaultConfigENvMs2_B1x_B1u_3newEB2o_
_RINvYINtNtNtCsiL7B6CFZHyD_4core3ops5range5RangejENtNtNtNtBa_4iter6traits8iterator8Iterator3mapjNCNvMNtNtCslIjNMLs0yCi_4rand4prng5isaacNtB1A_8IsaacRng4init0EB1E_
_RINvYINtNtNtCsiL7B6CFZHyD_4core3ops5range5RangejENtNtNtNtBa_4iter6traits8iterator8Iterator4folduNCINvNtNtBR_8adapters3map8map_foldjNtNtNtNtNtCsk9QERyUqk6O_5tokio7runtime4time5wheel5level5LeveluNvMB27_B25_3newNCINvNvBL_8for_each4callB25_NCINvMsi_NtCshgx866xcH9W_5alloc3vecINtB3V_3VecB25_E14extend_trustedINtB1B_3MapB3_B35_EE0E0E0EB2f_
_RINvYINtNtNtCsiL7B6CFZHyD_4core3ops5range5RangelEINtB6_11RangeBoundslE8containslECshKX2nQO4Ie9_8tempfile
_RINvYINtNtNtCsiL7B6CFZHyD_4core3ops5range9RangeFromjENtNtNtNtBa_4iter6traits8iterator8Iterator3zipRShECs1DT2mKzNIQv_4jiff
_RINvYINtNtNtCsiL7B6CFZHyD_4core3str4iter5SplitcENtNtNtNtBa_4iter6traits8iterator8Iterator10filter_mapTINtNtNtBa_3ops5range5BoundyEB1C_ENCNvMNtNtCs5xbKWwF31JS_7headers6common5rangeNtB2e_5Range18satisfiable_ranges0EB2i_
_RINvYINtNtNtCsiL7B6CFZHyD_4core3str4iter5SplitcENtNtNtNtBa_4iter6traits8iterator8Iterator7collectINtNtCshgx866xcH9W_5alloc3vec3VecReEECsbPHw0ZMlxUx_2cc
_RINvYINtNtNtCsiL7B6CFZHyD_4core4char6decode11DecodeUtf16INtNtNtNtBa_4iter8adapters6cloned6ClonedINtNtNtBa_5slice4iter4ItertEEENtNtNtBZ_6traits8iterator8Iterator4folduNCINvNtBX_3map8map_foldINtNtBa_6result6ResultcNtB6_16DecodeUtf16ErrorEcuNCNvMNtCshgx866xcH9W_5alloc6stringNtB3T_6String16from_utf16_lossy0NCINvNvB20_8for_each4callcNCINvXsb_B3T_B4m_INtNtB24_7collect6ExtendcE6extendINtB2J_3MapB3_B3O_EE0E0E0ECs7adunahxyaw_9backtrace
_RINvYINtNtNtCsiL7B6CFZHyD_4core5array4iter8IntoIterNtNtCs5Ng0wM7PJ5I_12regex_syntax3hir15ClassBytesRangeKj3_ENtNtNtNtBa_4iter6traits8iterator8Iterator7collectINtNtCshgx866xcH9W_5alloc3vec3VecBN_EEBR_
_RINvYINtNtNtCsiL7B6CFZHyD_4core5array4iter8IntoIterTRShNtNtCs5MsBAlmYmSD_4time5month5MonthEKjc_ENtNtNtNtBa_4iter6traits8iterator8Iterator8try_folduNCINvNvB1w_8find_map5checkBN_INtNtBV_7parsing10ParsedItemBR_ENCNCINvNtB2R_10combinator11first_matchBR_ABN_B1s_E00E0INtNtNtBa_3ops12control_flow11ControlFlowB2O_EEBV_
_RINvYINtNtNtCsiL7B6CFZHyD_4core5slice4iter4IterINtNtBa_6option6OptionNtCs2Pvizc7JAy_20signal_hook_registry5SigIdEENtNtNtNtBa_4iter6traits8iterator8Iterator10filter_mapB15_NCNvXs0_NtNtCs9Gu2Q9LF3LJ_11signal_hook8iterator7backendNtB2R_13DeliveryStateNtNtNtBa_3ops4drop4Drop4drop0EB2V_
_RINvYINtNtNtCsiL7B6CFZHyD_4core5slice4iter4IterINtNtCshgx866xcH9W_5alloc2rc2RcDNtNtCs20txnxQ5U84_7bindgen9callbacks14ParseCallbacksEL_EENtNtNtNtBa_4iter6traits8iterator8Iterator3mapINtNtBO_3vec3VecNtNtBO_6string6StringENCINvMs4_B1j_NtNtB1j_7options14BindgenOptions13all_callbacksB39_NCNvXsm_NtB1j_7codegenNtNtNtB1j_2ir4comp8CompInfoNtB4F_13CodeGenerator7codegens2_0E0EB1j_
_RINvYINtNtNtCsiL7B6CFZHyD_4core5slice4iter4IterINtNtCshgx866xcH9W_5alloc5boxed3BoxeEENtNtNtNtBa_4iter6traits8iterator8Iterator6filterNCNvNvMs7_Cs20txnxQ5U84_7bindgenNtB2h_8Bindings8generate20detect_include_paths0EB2h_
_RINvYINtNtNtCsiL7B6CFZHyD_4core5slice4iter4IterNtCsjQAgS81B8HG_7getopts8OptGroupENtNtNtNtBa_4iter6traits8iterator8Iterator3mapNtNtCshgx866xcH9W_5alloc6string6StringNvBL_13format_optionEBL_
_RINvYINtNtNtCsiL7B6CFZHyD_4core5slice4iter4IterNtNtCs23yxf7uxwGf_12regex_syntax3hir3HirENtNtNtNtBa_4iter6traits8iterator8Iterator6filterNCNvMs2_NtNtNtCshfzWP1bsRXe_14regex_automata3nfa8thompson8compilerNtB2i_8Compiler11c_alt_slice0EB2o_
_RINvYINtNtNtCsiL7B6CFZHyD_4core5slice4iter4IterNtNtCs5FZ8FOT2Wnz_5ascii10ascii_char9AsciiCharENtNtNtNtBa_4iter6traits8iterator8Iterator3zipB3_ECsaGnL1G5hXQS_9tiny_http
_RINvYINtNtNtCsiL7B6CFZHyD_4core5slice4iter4IterNtNtCs6c37mDEUb8k_12regex_syntax3hir3HirENtNtNtNtBa_4iter6traits8iterator8Iterator4folduNCINvNtNtB1u_8adapters3map8map_foldRBJ_BJ_uNCNvNtNtCs2GX3rYzX9NP_14regex_automata4meta13reverse_inner7flatten0NCINvNvB1o_8for_each4callBJ_NCINvMsi_NtCshgx866xcH9W_5alloc3vecINtB4w_3VecBJ_E14extend_trustedINtB2e_3MapB3_B2Q_EE0E0E0EB2Y_
_RINvYINtNtNtCsiL7B6CFZHyD_4core5slice4iter4IterNtNtCsgkOA8Rcyn8K_7ndarray5slice13SliceInfoElemENtNtNtNtBa_4iter6traits8iterator8Iterator6filterNCNvXs7_BL_SBJ_INtBL_8SliceArgINtNtNtBN_9dimension3dim3DimNtNtB2Q_12dynindeximpl9IxDynImplEE7in_ndim0EBN_
_RINvYINtNtNtCsiL7B6CFZHyD_4core5slice4iter4IterNtNtCshgx866xcH9W_5alloc6string6StringENtNtNtNtBa_4iter6traits8iterator8Iterator4folduNCINvNtNtB1s_8adapters3map8map_foldRBJ_BJ_uNCNvXs_NtNtNvCsi6pTmhHIU5M_9clang_sys13load_manually5build6commonNtB2V_19CommandErrorPrinterNtNtNtBa_3ops4drop4Drop4drops_0NCINvNvB1m_8for_each4callBJ_NCINvMsi_NtBN_3vecINtB5o_3VecBJ_E14extend_trustedINtB2c_3MapB3_B2O_EE0E0E0EB31_
_RINvYINtNtNtCsiL7B6CFZHyD_4core5slice4iter4IterNtNtCshpKpake7nJI_12regex_syntax3hir15ClassBytesRangeENtNtNtNtBa_4iter6traits8iterator8Iterator4folduNCINvNtNtB1H_8adapters3map8map_foldRBJ_NtBL_17ClassUnicodeRangeuNCNvMsf_BL_NtBL_10ClassBytes16to_unicode_class0NCINvNvB1B_8for_each4callB2Z_NCINvMsi_NtCshgx866xcH9W_5alloc3vecINtB4L_3VecB2Z_E14extend_trustedINtB2r_3MapB3_B3o_EE0E0E0EBN_
_RINvYINtNtNtCsiL7B6CFZHyD_4core5slice4iter4IterNtNtCsk1c4NF7YhJt_12jpeg_decoder6parser9ComponentENtNtNtNtBa_4iter6traits8iterator8Iterator3maphNCNvMNtBN_9upsamplerNtB2m_9Upsampler3new0EBN_
_RINvYINtNtNtCsiL7B6CFZHyD_4core5slice4iter4IterNtNtCslWI3VPFq81_12regex_syntax3hir3HirENtNtNtNtBa_4iter6traits8iterator8Iterator3mapjNCINvNvXs0_NtNtB1t_8adapters6filterINtB2i_6FilterppEB1n_5count8to_usizeRBJ_NCNvMs2_NtNtNtCs8u8Bt1oxYji_14regex_automata3nfa8thompson8compilerNtB3s_8Compiler11c_alt_slice0E0EB3y_
_RINvYINtNtNtCsiL7B6CFZHyD_4core5slice4iter4IterNtNtNtCs2GX3rYzX9NP_14regex_automata4util10primitives7StateIDENtNtNtNtBa_4iter6traits8iterator8Iterator4folduNCINvNtNtB1P_8adapters3map8map_foldRBJ_BJ_uNvYBJ_NtNtBa_5clone5Clone5cloneNCINvNvB1J_8for_each4callBJ_NCINvMsi_NtCshgx866xcH9W_5alloc3vecINtB4h_3VecBJ_E14extend_trustedINtNtB2B_6cloned6ClonedB3_EE0E0E0EBP_
_RINvYINtNtNtCsiL7B6CFZHyD_4core5slice4iter4IterNtNtNtCs8u8Bt1oxYji_14regex_automata4util10primitives7StateIDENtNtNtNtBa_4iter6traits8iterator8Iterator6copiedBJ_EBP_
_RINvYINtNtNtCsiL7B6CFZHyD_4core5slice4iter4IterNtNtNtCsgMh45ZzF4i5_10serde_core7private7content7ContentENtNtNtNtBa_4iter6traits8iterator8Iterator3mapBJ_NvNtNtNtCs9jILlod8Q2y_5serde7private2de7content13content_cloneEB2y_
_RINvYINtNtNtCsiL7B6CFZHyD_4core5slice4iter4IterNtNtNtNtCs3WGgTq7KBOl_4libc4unix10linux_like5linux10Elf64_PhdrENtNtNtNtBa_4iter6traits8iterator8Iterator3mapINtNtBa_6result6ResultuNtNtBa_3fmt5ErrorENCNvXs4_NtCskHJyVYlCinc_10findshlibs5linuxNtB3g_13SharedLibraryNtB2S_5Debug3fmt0EB3i_
_RINvYINtNtNtCsiL7B6CFZHyD_4core5slice4iter4IterNtNtNtNtCskt8TpxtZnof_4clap4args11arg_builder4flag11FlagBuilderENtNtNtNtBa_4iter6traits8iterator8Iterator6filterNCNvMNtNtBR_3app6parserNtB2C_6Parser18did_you_mean_errors0_0EBR_
_RINvYINtNtNtCsiL7B6CFZHyD_4core5slice4iter4IterRNtNtCseJ4fYN2mE0W_14parse_zoneinfo5table8RuleInfoENtNtNtNtBa_4iter6traits8iterator8Iterator4foldTxTjxEENCINvNvXs_NtNtB1E_8adapters9enumerateINtB2z_9EnumeratepEB1y_4fold9enumerateRBJ_B2i_NCINvNtB2B_3map8map_foldTjB3C_EB2k_B2i_NCNvMs0_NtBO_11transitionsNtB4v_23FixedTimespanSetBuilder19add_multiple_savings_0NCIB3N_B2k_B2i_B2i_NCINvNvB1y_10min_by_key3keyB2k_xNCB4p_s0_0E0NCINvNvB1y_6min_by4foldB2i_INvB64_7compareB2k_xEE0E0E0E0EBO_
_RINvYINtNtNtCsiL7B6CFZHyD_4core5slice4iter4IterReENtNtNtNtBa_4iter6traits8iterator8Iterator3mapINtNtCsdROACSpa1aI_12tracing_core5field12DisplayValueRBJ_EINvB1y_7displayB2m_EEB1A_
_RINvYINtNtNtCsiL7B6CFZHyD_4core5slice4iter4IterReENtNtNtNtBa_4iter6traits8iterator8Iterator4folduNCINvNtNtBS_8adapters3map8map_foldRBJ_NtNtCshgx866xcH9W_5alloc6string6StringuNCNvMs2_NtNtCskt8TpxtZnof_4clap3app4helpNtB2U_4Help9spec_valss_0NCINvNvBM_8for_each4callB29_NCINvMsi_NtB2d_3vecINtB4p_3VecB29_E14extend_trustedINtB1C_3MapB3_B2M_EE0E0E0EB2Y_
_RINvYINtNtNtCsiL7B6CFZHyD_4core5slice4iter4IterTNtNtCs1cxMKpSN2o4_3syn2ty4TypeNtNtBO_5token5CommaEENtNtNtNtBa_4iter6traits8iterator8Iterator3zipB3_EBO_
_RINvYINtNtNtCsiL7B6CFZHyD_4core5slice4iter4IterTRNtNtCs52Ma2mZ51Xc_12tracing_core5field5FieldINtNtBa_6option6OptionRDNtBN_5ValueEL_EEENtNtNtNtBa_4iter6traits8iterator8Iterator4foldjNCINvNtNtB2e_8adapters3map8map_foldRBJ_jjNCINvNvXs0_NtB30_6filterINtB3J_6FilterppEB28_5count8to_usizeB3s_NCNvMsO_BN_NtBN_8ValueSet3len0E0NCINvXsK_NtB2c_5accumjNtB5f_3Sum3sumINtB2Y_3MapB3_B3y_EE0E0EBP_
_RINvYINtNtNtCsiL7B6CFZHyD_4core5slice4iter4IterTccEENtNtNtNtBa_4iter6traits8iterator8Iterator3mapNtNtCs23yxf7uxwGf_12regex_syntax3hir17ClassUnicodeRangeNCNvNtB1B_7unicode9hir_class0EB1B_
_RINvYINtNtNtCsiL7B6CFZHyD_4core5slice4iter4IterThhhhEENtNtNtNtBa_4iter6traits8iterator8Iterator3mapAhj3_NCNvMs4_NtCsb6BebbR1nVn_3gif6commonNtB1M_5Frame15from_rgba_speeds0_0EB1O_
_RINvYINtNtNtCsiL7B6CFZHyD_4core5slice4iter4ItercENtNtNtNtBa_4iter6traits8iterator8Iterator6clonedcECsfcdQbM8XNhc_7asn1_rs
_RINvYINtNtNtCsiL7B6CFZHyD_4core5slice4iter4IterhENtNtNtNtBa_4iter6traits12double_ended19DoubleEndedIterator9try_rfoldjNCINvNvXs0_NtNtBR_8adapters10take_whileINtB23_9TakeWhileppENtNtBP_8iterator8Iterator8try_fold5checkRhjINtNtNtBa_3ops9try_trait17NeverShortCircuitjENCNvMCsc2HCojBQwtV_10bigdecimalNtB4k_10BigDecimal10normalized0NCINvMB3z_B3w_10wrap_mut_2jB3t_NCNvYIB2w_INtNtB25_3rev3RevB3_EB4f_EB2P_5count0E0E0INtNtB3B_12control_flow11ControlFlowB3w_jEEB4k_
_RINvYINtNtNtCsiL7B6CFZHyD_4core5slice4iter4IterhENtNtNtNtBa_4iter6traits8iterator8Iterator3maphNCNvXs8_NtNtCsaRhs7vhgYg1_4http3uri9authorityNtB1D_9AuthorityNtNtBa_3cmp10PartialOrd11partial_cmps_0EB1H_
_RINvYINtNtNtCsiL7B6CFZHyD_4core5slice4iter4IterhENtNtNtNtBa_4iter6traits8iterator8Iterator3maphNCNvXsb_NtNtCsczE7PKsO40l_4http3uri9authorityReINtNtBa_3cmp10PartialOrdNtB1D_9AuthorityE11partial_cmps_0EB1H_
_RINvYINtNtNtCsiL7B6CFZHyD_4core5slice4iter4IterhENtNtNtNtBa_4iter6traits8iterator8Iterator3maphNCNvXse_NtNtCseiJFhKSjCIQ_4http3uri9authorityNtNtCshgx866xcH9W_5alloc6string6StringINtNtBa_3cmp10PartialOrdNtB1D_9AuthorityE11partial_cmps_0EB1H_
_RINvYINtNtNtCsiL7B6CFZHyD_4core5slice4iter4IterhENtNtNtNtBa_4iter6traits8iterator8Iterator3zipRShECs2HqUbEmi8sP_10serde_core
_RINvYINtNtNtCsiL7B6CFZHyD_4core5slice4iter4IterhENtNtNtNtBa_4iter6traits8iterator8Iterator4foldTjjENCNvMs4_NtNtCsedCA7Tpfiji_7asn1_rs10asn1_types3oidNtB1H_3Oid4iter0EB1L_
_RINvYINtNtNtCsiL7B6CFZHyD_4core5slice4iter4IterhENtNtNtNtBa_4iter6traits8iterator8Iterator6copiedhECs5KhTJ13vvrI_3log
_RINvYINtNtNtCsiL7B6CFZHyD_4core5slice4iter4IterhENtNtNtNtBa_4iter6traits8iterator8Iterator6copiedhECsktiBBMuWnbs_4mime
_RINvYINtNtNtCsiL7B6CFZHyD_4core5slice4iter4IterhENtNtNtNtBa_4iter6traits8iterator8Iterator8try_foldjNCINvNtNtBR_8adapters6copied13copy_try_foldhjINtNtNtBa_3ops12control_flow11ControlFlowjjENCINvNvBL_8position5checkhNCNvNtNtCs455279n054P_10iri_string6parser3str11find_split30E0E0B2j_EB3z_
_RINvYINtNtNtCsiL7B6CFZHyD_4core5slice4iter4IterhENtNtNtNtBa_4iter6traits8iterator8Iterator8try_folduNCINvNtNtBR_8adapters3map12map_try_foldRhhuINtNtNtBa_3ops12control_flow11ControlFlowIB2i_INtNtBa_6option6OptionNtNtBa_3cmp8OrderingEB3n_EENCNvXsc_NtNtCs2V1jnu7GmYn_4http3uri9authorityNtB3W_9AuthorityINtB3p_10PartialOrdReE11partial_cmp0NCINvNvBL_12try_for_each4callhB2h_NCINvNvBN_12iter_compare7compareINtB1F_3MapB3_NCB3Q_s_0EhB31_NCINvNvBL_14partial_cmp_by7comparehhNCINvYIB6s_B3_B3O_EBL_11partial_cmpB6r_E0E0E0E0E0B2h_EB40_
_RINvYINtNtNtCsiL7B6CFZHyD_4core5slice4iter4IterhENtNtNtNtBa_4iter6traits8iterator8Iterator8try_folduNCINvNtNtBR_8adapters6copied13copy_try_foldhuINtNtNtBa_3ops12control_flow11ControlFlowuENCINvNvBL_3any5checkhNCNvNtNtCslc5DL33MxoQ_6rustix7backend13vdso_wrappers4inits0_0E0E0B2j_EB3t_
_RINvYINtNtNtCsiL7B6CFZHyD_4core5slice4iter4ItermENtNtNtNtBa_4iter6traits8iterator8Iterator4folduNCINvNtNtBR_8adapters3map8map_foldRmcuNCNvMs_NtCs4Ra6QXC7Q85_10widestring4ustrNtB2f_6U32Str15to_string_lossy0NCINvNvBL_8for_each4callcNCINvMsi_NtCshgx866xcH9W_5alloc3vecINtB3P_3VeccE14extend_trustedINtB1B_3MapB3_B28_EE0E0E0EB2h_
_RINvYINtNtNtCsiL7B6CFZHyD_4core5slice4iter4IteryENtNtNtNtBa_4iter6traits8iterator8Iterator3mapyNCNvNtNtCsg6ZIQJj5H2g_10num_bigint6bigint4bits13bitor_pos_neg0EB1D_
_RINvYINtNtNtCsiL7B6CFZHyD_4core5slice4iter4IteryENtNtNtNtBa_4iter6traits8iterator8Iterator4folduNCINvNtNtBR_8adapters3map8map_foldRyyuNvYyNtNtBa_5clone5Clone5cloneNCINvNvBL_8for_each4callyNCINvMsi_NtCshgx866xcH9W_5alloc3vecINtB39_3VecyE14extend_trustedINtNtB1D_6cloned6ClonedB3_EE0E0E0ECs16toIqv7aHG_10num_bigint
_RINvYINtNtNtCsiL7B6CFZHyD_4core5slice4iter6ChunkshENtNtNtNtBa_4iter6traits8iterator8Iterator3mapyNCNvNtNtCs16toIqv7aHG_10num_bigint7biguint7convert22from_bitwise_digits_le0EB1F_
_RINvYINtNtNtCsiL7B6CFZHyD_4core5slice4iter7IterMutbENtNtNtNtBa_4iter6traits8iterator8Iterator3zipRANtNtNtBa_4sync6atomic11AtomicUsizej2_ECs2Pvizc7JAy_20signal_hook_registry
_RINvYINtNtNtCsiL7B6CFZHyD_4core5slice4iter7WindowshENtNtNtNtBa_4iter6traits8iterator8Iterator8positionNCNvNtNtCsedCA7Tpfiji_7asn1_rs10asn1_types7integer10trim_slices_0EB1K_
_RINvYINtNtNtCsivq4NZsOFee_5rayon4iter9enumerate9EnumerateINtNtB8_3len6MaxLenINtNtNtBa_5slice6chunks9ChunksMuthEEENtB8_16ParallelIterator8for_eachNCNvNtNtCsk1c4NF7YhJt_12jpeg_decoder6worker5rayon22compute_image_parallel0EB2r_
_RINvYINtNtNtNtCs3NZLoJsOov_3std11collections4hash3map6ValuesNtNtNtCs20txnxQ5U84_7bindgen2ir7context6ItemIdNtNtB10_6derive9CanDeriveENtNtNtNtCsiL7B6CFZHyD_4core4iter6traits8iterator8Iterator8try_folduNCINvNvB26_3all5checkRB1G_NCNvXs2_NtNtB10_8analysis6deriveINtB6_7HashMapBW_B1G_NtCsjt6QawPyDY5_10rustc_hash13FxBuildHasherEINtNtB2e_7convert4FromNtB3J_12CannotDeriveE4from0E0INtNtNtB2e_3ops12control_flow11ControlFlowuEEB12_
_RINvYINtNtNtNtCs3NZLoJsOov_3std11collections4hash3map8IntoIterRhINtNtCshgx866xcH9W_5alloc3vec3VecjEENtNtNtNtCsiL7B6CFZHyD_4core4iter6traits8iterator8Iterator6filterNCNvMs1_NtCs2P2SgBKwLCl_7difflib15sequencematcherINtB2K_15SequenceMatcherhE16chain_second_seqs_0EB2M_
_RINvYINtNtNtNtCs5cYH0lLSdLc_4core4iter7sources7from_fn6FromFnNCNvMs1_NtCs8v0VABUG8rU_14rustc_demangle2v0NtB15_10HexNibbles19try_parse_str_charss0_0ENtNtNtBa_6traits8iterator8Iterator8try_folduNCINvNvB2m_3any5checkINtNtBc_6result6ResultcuENCBZ_s1_0E0INtNtNtBc_3ops12control_flow11ControlFlowuEEB17_
_RINvYINtNtNtNtCs5cYH0lLSdLc_4core4iter8adapters3map3MapIB4_INtNtB8_6copied6CopiedINtNtNtBc_5slice4iter4IterThhEEENCNvNtNtCs9XN0b3DABn9_12regex_syntax3hir9translate20ascii_class_as_chars0ENCNvMs3_B1R_NtB1R_11TranslatorI23hir_ascii_unicode_class0ENtNtNtBa_6traits8iterator8Iterator7collectINtNtCsaz9ix1H7t6h_5alloc3vec3VecNtB1T_17ClassUnicodeRangeEEB1V_
_RINvYINtNtNtNtCs5cYH0lLSdLc_4core4iter8adapters3map3MapINtNtB8_6copied6CopiedINtNtNtBc_5slice4iter4ItercEENCINvNtCsaMSDOvq7TeD_4idna8punycode11encode_intoBR_NtNtCsaz9ix1H7t6h_5alloc6string6StringNtB1L_14InternalCallerE0ENtNtNtBa_6traits8iterator8Iterator4findQNCB1I_s_0EB1N_
_RINvYINtNtNtNtCs5cYH0lLSdLc_4core4iter8adapters3map3MapINtNtNtBc_3ops5range5RangejENCNvMs_NtCssQs4bxTCl8_15crossbeam_deque5dequeINtB1q_6BufferNtNtCseXY6b7LfkWH_10rayon_core3job6JobRefE5alloc0ENtNtNtBa_6traits8iterator8Iterator8for_eachNCINvMsi_NtCsaz9ix1H7t6h_5alloc3vecINtB3U_3VecINtNtNtBc_3mem12maybe_uninit11MaybeUninitB2g_EE14extend_trustedB3_E0EB2k_
_RINvYINtNtNtNtCs5cYH0lLSdLc_4core4iter8adapters3map3MapINtNtNtBc_5slice4iter4IterNtNtCs9XN0b3DABn9_12regex_syntax3hir3HirENCNvNtNtCs6nv0K25L1YS_14regex_automata4meta13reverse_inner7flatten0ENtNtNtBa_6traits8iterator8Iterator8for_eachNCINvMsi_NtCsaz9ix1H7t6h_5alloc3vecINtB3S_3VecB1h_E14extend_trustedB3_E0EB24_
_RINvYINtNtNtNtCs5cYH0lLSdLc_4core4iter8adapters3map3MapINtNtNtBc_5slice4iter4IterRNtNtCs9XN0b3DABn9_12regex_syntax3hir3HirENCINvMsj_NtNtCs6nv0K25L1YS_14regex_automata4meta5regexNtB26_7Builder19build_many_from_hirB1h_E0ENtNtNtBa_6traits8iterator8Iterator7collectINtNtCsaz9ix1H7t6h_5alloc3vec3VecB1h_EEB2a_
_RINvYINtNtNtNtCs5cYH0lLSdLc_4core4iter8adapters3map3MapINtNtNtBc_5slice4iter4IterhENCNvXs8_NtNtCs7go1Y9JeEON_4http3uri9authorityNtB1r_9AuthorityNtNtBc_3cmp10PartialOrd11partial_cmp0ENtNtNtBa_6traits8iterator8Iterator14partial_cmp_byIB4_BR_NCB1l_s_0ENCINvYB3_B2U_11partial_cmpB3I_E0EB1v_
_RINvYINtNtNtNtCs5cYH0lLSdLc_4core4iter8adapters3map3MapINtNtNtBc_5slice4iter4IterhENCNvXsd_NtNtCsdPhejGtpz0t_4http3uri9authorityNtB1r_9AuthorityINtNtBc_3cmp10PartialOrdNtNtCsaz9ix1H7t6h_5alloc6string6StringE11partial_cmp0ENtNtNtBa_6traits8iterator8Iterator14partial_cmp_byIB4_BR_NCB1l_s_0ENCINvYB3_B3y_11partial_cmpB4m_E0EB1v_
_RINvYINtNtNtNtCs5cYH0lLSdLc_4core4iter8adapters3map3MapINtNtNtCsaz9ix1H7t6h_5alloc3vec9into_iter8IntoIterReENvYNtNtBY_6string6StringINtNtBc_7convert4FromB1F_E4fromENtNtNtBa_6traits8iterator8Iterator8for_eachNCINvMsi_BW_INtBW_3VecB1L_E14extend_trustedB3_E0ECslmJ0Mh1KeWG_10pkg_config
_RINvYINtNtNtNtCs5cYH0lLSdLc_4core4iter8adapters3map3MapNtNtNtCsjRWpUytRaxp_6chrono6format8strftime13StrftimeItemsNCNvMBT_BR_5parse0ENtNtNtBa_6traits8iterator8Iterator7collectINtNtBc_6result6ResultINtNtCsaz9ix1H7t6h_5alloc3vec3VecNtBV_4ItemENtBV_10ParseErrorEEBX_
_RINvYINtNtNtNtCs5cYH0lLSdLc_4core4iter8adapters3zip3ZipINtNtB8_3rev3RevINtNtNtBc_5slice4iter4IterhEEBR_ENtNtNtBa_6traits8iterator8Iterator10take_whileNCNvMs2_NtNtCs9XN0b3DABn9_12regex_syntax3hir7literalNtB2w_3Seq21longest_common_suffix0EB2A_
_RINvYINtNtNtNtCs5cYH0lLSdLc_4core4iter8adapters3zip3ZipINtNtNtBc_5slice4iter4IterhEINtBU_7IterMutINtNtNtBc_3mem12maybe_uninit11MaybeUninithEEENtNtNtBa_6traits8iterator8Iterator8for_eachNCNvNtNtCsdPhejGtpz0t_4http6header4name9parse_hdr0EB35_
_RINvYINtNtNtNtCs5cYH0lLSdLc_4core4iter8adapters6cloned6ClonedINtNtNtBc_5slice4iter4IterRNtNtNtCs2FIVCi1Wrow_3std3ffi6os_str5OsStrEENtNtNtBa_6traits8iterator8Iterator5chainINtNtB8_3map3MapIBY_NtNtCsaz9ix1H7t6h_5alloc6string6StringEINvMsl_B1q_B1o_3newB33_EEECskmFptwX7bJS_2cc
_RINvYINtNtNtNtCs5cYH0lLSdLc_4core4iter8adapters6filter6FilterINtNtB8_3map3MapINtNtB8_6copied6CopiedINtNtNtBc_5slice4iter4ItercEENCINvNtCsaMSDOvq7TeD_4idna8punycode11encode_intoB1d_NtNtCsaz9ix1H7t6h_5alloc6string6StringNtB27_14InternalCallerE0ENCB24_s_0ENtNtNtBa_6traits8iterator8Iterator6min_byNvYmNtNtBc_3cmp3Ord3cmpEB29_
_RINvYINtNtNtNtCs5cYH0lLSdLc_4core4iter8adapters9enumerate9EnumerateINtNtNtBc_5slice4iter4IterNtNtNtCslN86gTjml9v_18tracing_subscriber8registry5stack9ContextIdEENtNtNtBa_6traits12double_ended19DoubleEndedIterator5rfindNCNvMB1v_NtB1v_9SpanStack3pop0EB1z_
_RINvYINtNtNtNtCshgx866xcH9W_5alloc11collections5btree3set4IterNtNtNtCs20txnxQ5U84_7bindgen2ir7context6ItemIdENtNtNtNtCsiL7B6CFZHyD_4core4iter6traits8iterator8Iterator8try_folduNCINvNvB1J_8find_map5checkRBY_NtB10_6TypeIdQNCNvXs2_NtNtB12_8analysis9sizednessNtB3E_17SizednessAnalysisNtB3G_17MonotoneFramework16initial_worklist0E0INtNtNtB1R_3ops12control_flow11ControlFlowB3i_EEB14_
_RINvYINtNtNtNtCsiL7B6CFZHyD_4core4iter7sources6repeat6RepeathENtNtNtBa_6traits8iterator8Iterator8try_foldjNCINvNvXs_NtNtBa_8adapters4takeINtB1Q_4TakepEBY_8for_each5checkhNCINvMsi_NtCshgx866xcH9W_5alloc3vecINtB2R_3VechE14extend_trustedIB2c_B3_EE0E0INtNtBc_6option6OptionjEECs4YuQlQH4i4p_11pem_rfc7468
_RINvYINtNtNtNtCsiL7B6CFZHyD_4core4iter8adapters10filter_map9FilterMapINtCs5rTiqEIskse_7vec_map4IterNtNtNtNtCskt8TpxtZnof_4clap4args11arg_builder10positional10PosBuilderENCNvNtNtB1H_3app5usage12get_args_tags9_0ENtNtNtBa_6traits8iterator8Iterator6filterNCB2J_sa_0EB1H_
_RINvYINtNtNtNtCsiL7B6CFZHyD_4core4iter8adapters10filter_map9FilterMapINtNtNtBc_5slice4iter4IterNtNtCskt8TpxtZnof_4clap3app3AppENCINvNtB1z_11suggestions24did_you_mean_flag_suffixReINtNtB8_5chain5ChainINtNtB8_3map3MapINtNtB8_6filter6FilterIB16_NtNtNtNtB1z_4args11arg_builder4flag11FlagBuilderENCNvMNtB1x_6parserNtB4K_6Parser18did_you_mean_errors0_0ENCB4H_s1_0EIB3c_IB3s_IB16_NtNtB3W_6option10OptBuilderENCB4H_s2_0ENCB4H_s3_0EEE0ENtNtNtBa_6traits8iterator8Iterator3mapTjTjTNtNtCshgx866xcH9W_5alloc6string6StringINtNtBc_6option6OptionB2P_EEEENCINvNvB6R_10min_by_key3keyB7v_jNCB23_s_0E0EB1z_
_RINvYINtNtNtNtCsiL7B6CFZHyD_4core4iter8adapters10take_while9TakeWhileINtNtNtBc_5slice4iter4IterNtNtCs302BLY9Avsm_12regex_syntax3hir3HirENCNvMs3_B1x_B1v_6concat0ENtNtNtBa_6traits8iterator8Iterator3anyNCB2c_s_0EB1z_
_RINvYINtNtNtNtCsiL7B6CFZHyD_4core4iter8adapters3map3MapIB4_NtNtNtBc_3str4iter5CharsNCNvCsgwZHJb2rARN_5vcpkg6envify0ENCB1l_s_0ENtNtNtBa_6traits8iterator8Iterator8for_eachNCINvXsb_NtCshgx866xcH9W_5alloc6stringNtB2Q_6StringINtNtB24_7collect6ExtendcE6extendB3_E0EB1n_
_RINvYINtNtNtNtCsiL7B6CFZHyD_4core4iter8adapters3map3MapINtNtB8_3zip3ZipINtNtNtBc_5slice4iter4ItertEIB18_hEENCNvMs8_NtCsedz0TwNyP2V_5weezl6decodeNtB1P_5Table12derive_burst0ENtNtNtBa_6traits8iterator8Iterator8for_eachNCINvMsi_NtCshgx866xcH9W_5alloc3vecINtB3A_3VecNtB1P_4LinkE14extend_trustedB3_E0EB1R_
_RINvYINtNtNtNtCsiL7B6CFZHyD_4core4iter8adapters3map3MapINtNtB8_6copied6CopiedINtNtNtBc_5slice4iter4IterThhEEENCNvNtNtCslWI3VPFq81_12regex_syntax3hir9translate21hir_ascii_class_bytes0ENtNtNtBa_6traits8iterator8Iterator8for_eachNCINvMsi_NtCshgx866xcH9W_5alloc3vecINtB3L_3VecNtB1P_15ClassBytesRangeE14extend_trustedB3_E0EB1R_
_RINvYINtNtNtNtCsiL7B6CFZHyD_4core4iter8adapters3map3MapINtNtB8_6filter6FilterNtNtNtBc_3str4iter5CharsNCNvCs7nzyhGHHeiz_10stringprep8x520preps_0ENCB1D_s0_0ENtNtNtBa_6traits8iterator8Iterator3mapNtNtB1F_6tables15CaseFoldForNfkcNvB37_18case_fold_for_nfkcEB1F_
_RINvYINtNtNtNtCsiL7B6CFZHyD_4core4iter8adapters3map3MapINtNtNtBc_3ops5range5RangejENCINvMNtNtCs2GX3rYzX9NP_14regex_automata3dfa8remapperNtB1p_8Remapper3newINtNtB1r_5dense3DFAINtNtCshgx866xcH9W_5alloc3vec3VecmEEE0ENtNtNtBa_6traits8iterator8Iterator8for_eachNCINvMsi_B2P_IB2N_NtNtNtB1t_4util10primitives7StateIDE14extend_trustedB3_E0EB1t_
_RINvYINtNtNtNtCsiL7B6CFZHyD_4core4iter8adapters3map3MapINtNtNtBc_3ops5range5RangejENCNvMs_NtCs3sZDYscQcZY_10rayon_core5scopeNtB1q_9ScopeFifo3new0ENtNtNtBa_6traits8iterator8Iterator7collectINtNtCshgx866xcH9W_5alloc3vec3VecNtNtB1s_3job7JobFifoEEB1s_
_RINvYINtNtNtNtCsiL7B6CFZHyD_4core4iter8adapters3map3MapINtNtNtBc_4char6decode11DecodeUtf16INtNtB8_6cloned6ClonedINtNtNtBc_5slice4iter4ItertEEENCNvMNtCshgx866xcH9W_5alloc6stringNtB2l_6String16from_utf16_lossy0ENtNtNtBa_6traits8iterator8Iterator8for_eachNCINvXsb_B2l_B2O_INtNtB3p_7collect6ExtendcE6extendB3_E0ECs7adunahxyaw_9backtrace
_RINvYINtNtNtNtCsiL7B6CFZHyD_4core4iter8adapters3map3MapINtNtNtBc_5slice4iter4IterNtCs2X3rQV7wZYL_3pem3PemENCNvB1j_18encode_many_config0ENtNtNtBa_6traits8iterator8Iterator8for_eachNCINvMsi_NtCshgx866xcH9W_5alloc3vecINtB30_3VecNtNtB32_6string6StringE14extend_trustedB3_E0EB1j_
_RINvYINtNtNtNtCsiL7B6CFZHyD_4core4iter8adapters3map3MapINtNtNtBc_5slice4iter4IterNtNtCs3NZLoJsOov_3std4path9ComponentENCNvNtCskvdpLI7AOSZ_5insta7runtime18path_relative_from0ENtNtNtBa_6traits8iterator8Iterator7collectNtB1j_7PathBufEB1Y_
_RINvYINtNtNtNtCsiL7B6CFZHyD_4core4iter8adapters3map3MapINtNtNtBc_5slice4iter4IterNtNtCshgx866xcH9W_5alloc6string6StringENCNvNtNtNvCsi6pTmhHIU5M_9clang_sys13load_manually5build7dynamic27search_libclang_directoriess4_0ENtNtNtBa_6traits8iterator8Iterator7collectINtNtB1l_3vec3VecB1h_EEB24_
_RINvYINtNtNtNtCsiL7B6CFZHyD_4core4iter8adapters3map3MapINtNtNtBc_5slice4iter4IterNtNtCsk1c4NF7YhJt_12jpeg_decoder6parser9ComponentENCNvMNtB1l_9upsamplerNtB2a_9Upsampler3news_0ENtNtNtBa_6traits8iterator8Iterator6max_byNvYhNtNtBc_3cmp3Ord3cmpEB1l_
_RINvYINtNtNtNtCsiL7B6CFZHyD_4core4iter8adapters3map3MapINtNtNtBc_5slice4iter4IterNtNtNtCs6c37mDEUb8k_12regex_syntax3hir7literal7LiteralENCINvMNtNtNtCs2GX3rYzX9NP_14regex_automata4util9prefilter5teddyNtB2g_5Teddy3newB1h_E0ENtNtNtBa_6traits8iterator8Iterator6min_byNvYjNtNtBc_3cmp3Ord3cmpEB2m_
_RINvYINtNtNtNtCsiL7B6CFZHyD_4core4iter8adapters3map3MapINtNtNtBc_5slice4iter4IterNtNtNtNtCs8u8Bt1oxYji_14regex_automata3nfa8thompson10range_trie10TransitionENCNvXs3_B1j_NtB1j_5StateNtNtBc_3fmt5Debug3fmt0ENtNtNtBa_6traits8iterator8Iterator8for_eachNCINvMsi_NtCshgx866xcH9W_5alloc3vecINtB46_3VecNtNtB48_6string6StringE14extend_trustedB3_E0EB1p_
_RINvYINtNtNtNtCsiL7B6CFZHyD_4core4iter8adapters3map3MapINtNtNtBc_5slice4iter4IterRShENCNCINvMNtNtCshfzWP1bsRXe_14regex_automata4util9prefilterNtB1t_9Prefilter3newB1h_E00ENtNtNtBa_6traits8iterator8Iterator6max_byNvYjNtNtBc_3cmp3Ord3cmpEB1x_
_RINvYINtNtNtNtCsiL7B6CFZHyD_4core4iter8adapters3map3MapINtNtNtBc_5slice4iter4IterReENCNvNtNtNvCsi6pTmhHIU5M_9clang_sys13load_manually5build6common27search_libclang_directoriess2_0ENtNtNtBa_6traits8iterator8Iterator7collectINtNtCshgx866xcH9W_5alloc3vec3VecB1h_EEB1u_
_RINvYINtNtNtNtCsiL7B6CFZHyD_4core4iter8adapters3map3MapINtNtNtBc_5slice4iter4IterThhEENCNvNtNtCs4rHto5i1Wx6_10regex_lite3hir5parse11posix_class0ENtNtNtBa_6traits8iterator8Iterator8for_eachNCINvMsi_NtCshgx866xcH9W_5alloc3vecINtB39_3VecNtB1s_10ClassRangeE14extend_trustedB3_E0EB1u_
_RINvYINtNtNtNtCsiL7B6CFZHyD_4core4iter8adapters3map3MapINtNtNtBc_5slice4iter4IterhENCNvXs9_NtNtCsaRhs7vhgYg1_4http3uri9authorityNtB1r_9AuthorityINtNtBc_3cmp10PartialOrdeE11partial_cmp0ENtNtNtBa_6traits8iterator8Iterator12try_for_eachNCINvNvB2Z_12iter_compare7compareIB4_BR_NCB1l_s_0EhINtNtBc_6option6OptionNtB2l_8OrderingENCINvNvB2X_14partial_cmp_by7comparehhNCINvYB3_B2X_11partial_cmpB4g_E0E0E0INtNtNtBc_3ops12control_flow11ControlFlowIB6m_B4y_B4U_EEEB1v_
_RINvYINtNtNtNtCsiL7B6CFZHyD_4core4iter8adapters3map3MapINtNtNtBc_5slice4iter4IterhENCNvXsb_NtNtCsczE7PKsO40l_4http3uri9authorityReINtNtBc_3cmp10PartialOrdNtB1r_9AuthorityE11partial_cmp0ENtNtNtBa_6traits8iterator8Iterator11partial_cmpIB4_BR_NCB1l_s_0EEB1v_
_RINvYINtNtNtNtCsiL7B6CFZHyD_4core4iter8adapters3map3MapINtNtNtBc_5slice4iter4IterhENCNvXsd_NtNtCsczE7PKsO40l_4http3uri9authorityNtB1r_9AuthorityINtNtBc_3cmp10PartialOrdNtNtCshgx866xcH9W_5alloc6string6StringE11partial_cmp0ENtNtNtBa_6traits8iterator8Iterator14partial_cmp_byIB4_BR_NCB1l_s_0ENCINvYB3_B3y_11partial_cmpB4m_E0EB1v_
_RINvYINtNtNtNtCsiL7B6CFZHyD_4core4iter8adapters3map3MapINtNtNtBc_5slice4iter4IteryENCINvYNtNtNtCsc2HCojBQwtV_10bigdecimal8bigdigit5radix15RADIX_10p19_u64NtB1r_9RadixType15validate_digitsBR_E0ENtNtNtBa_6traits8iterator8Iterator3allNCB1l_s_0EB1v_
_RINvYINtNtNtNtCsiL7B6CFZHyD_4core4iter8adapters3map3MapINtNtNtBc_5slice4iter6ChunksmENvNtCs16toIqv7aHG_10num_bigint7biguint16u32_chunk_to_u64ENtNtNtBa_6traits8iterator8Iterator8for_eachNCINvMsi_NtCshgx866xcH9W_5alloc3vecINtB36_3VecyE14extend_trustedB3_E0EB1p_
_RINvYINtNtNtNtCsiL7B6CFZHyD_4core4iter8adapters3map3MapINtNtNtCshgx866xcH9W_5alloc3vec9into_iter8IntoIterNtNtBY_6string6StringENCINvMs0_NtNtCs1DT2mKzNIQv_4jiff2tz2dbNtB2a_16TimeZoneNameIter9from_iterB1F_BR_E0ENtNtNtBa_6traits8iterator8Iterator8for_eachNCINvMsi_BW_INtBW_3VecNtB2a_12TimeZoneNameE14extend_trustedB3_E0EB2e_
